
build/STM32_FreeRTOS.bin:     file format binary


Disassembly of section .data:

00000000 <.data>:
       0:	0000      	movs	r0, r0
       2:	2001      	movs	r0, #1
       4:	88e1      	ldrh	r1, [r4, #6]
       6:	0800      	lsrs	r0, r0, #32
       8:	5a69      	ldrh	r1, [r5, r1]
       a:	0800      	lsrs	r0, r0, #32
       c:	5a6b      	ldrh	r3, [r5, r1]
       e:	0800      	lsrs	r0, r0, #32
      10:	5a6d      	ldrh	r5, [r5, r1]
      12:	0800      	lsrs	r0, r0, #32
      14:	5a6f      	ldrh	r7, [r5, r1]
      16:	0800      	lsrs	r0, r0, #32
      18:	5a71      	ldrh	r1, [r6, r1]
      1a:	0800      	lsrs	r0, r0, #32
	...
      2c:	86b1      	strh	r1, [r6, #52]	; 0x34
      2e:	0800      	lsrs	r0, r0, #32
      30:	5a73      	ldrh	r3, [r6, r1]
      32:	0800      	lsrs	r0, r0, #32
      34:	0000      	movs	r0, r0
      36:	0000      	movs	r0, r0
      38:	8751      	strh	r1, [r2, #58]	; 0x3a
      3a:	0800      	lsrs	r0, r0, #32
      3c:	8795      	strh	r5, [r2, #60]	; 0x3c
      3e:	0800      	lsrs	r0, r0, #32
      40:	8929      	ldrh	r1, [r5, #8]
      42:	0800      	lsrs	r0, r0, #32
      44:	8929      	ldrh	r1, [r5, #8]
      46:	0800      	lsrs	r0, r0, #32
      48:	8929      	ldrh	r1, [r5, #8]
      4a:	0800      	lsrs	r0, r0, #32
      4c:	8929      	ldrh	r1, [r5, #8]
      4e:	0800      	lsrs	r0, r0, #32
      50:	8929      	ldrh	r1, [r5, #8]
      52:	0800      	lsrs	r0, r0, #32
      54:	8929      	ldrh	r1, [r5, #8]
      56:	0800      	lsrs	r0, r0, #32
      58:	8929      	ldrh	r1, [r5, #8]
      5a:	0800      	lsrs	r0, r0, #32
      5c:	8929      	ldrh	r1, [r5, #8]
      5e:	0800      	lsrs	r0, r0, #32
      60:	8929      	ldrh	r1, [r5, #8]
      62:	0800      	lsrs	r0, r0, #32
      64:	8929      	ldrh	r1, [r5, #8]
      66:	0800      	lsrs	r0, r0, #32
      68:	8929      	ldrh	r1, [r5, #8]
      6a:	0800      	lsrs	r0, r0, #32
      6c:	8929      	ldrh	r1, [r5, #8]
      6e:	0800      	lsrs	r0, r0, #32
      70:	8929      	ldrh	r1, [r5, #8]
      72:	0800      	lsrs	r0, r0, #32
      74:	8929      	ldrh	r1, [r5, #8]
      76:	0800      	lsrs	r0, r0, #32
      78:	8929      	ldrh	r1, [r5, #8]
      7a:	0800      	lsrs	r0, r0, #32
      7c:	8929      	ldrh	r1, [r5, #8]
      7e:	0800      	lsrs	r0, r0, #32
      80:	8929      	ldrh	r1, [r5, #8]
      82:	0800      	lsrs	r0, r0, #32
      84:	8929      	ldrh	r1, [r5, #8]
      86:	0800      	lsrs	r0, r0, #32
      88:	8929      	ldrh	r1, [r5, #8]
      8a:	0800      	lsrs	r0, r0, #32
      8c:	8929      	ldrh	r1, [r5, #8]
      8e:	0800      	lsrs	r0, r0, #32
      90:	8929      	ldrh	r1, [r5, #8]
      92:	0800      	lsrs	r0, r0, #32
      94:	8929      	ldrh	r1, [r5, #8]
      96:	0800      	lsrs	r0, r0, #32
      98:	8929      	ldrh	r1, [r5, #8]
      9a:	0800      	lsrs	r0, r0, #32
      9c:	8929      	ldrh	r1, [r5, #8]
      9e:	0800      	lsrs	r0, r0, #32
      a0:	8929      	ldrh	r1, [r5, #8]
      a2:	0800      	lsrs	r0, r0, #32
      a4:	5a75      	ldrh	r5, [r6, r1]
      a6:	0800      	lsrs	r0, r0, #32
      a8:	8929      	ldrh	r1, [r5, #8]
      aa:	0800      	lsrs	r0, r0, #32
      ac:	8929      	ldrh	r1, [r5, #8]
      ae:	0800      	lsrs	r0, r0, #32
      b0:	8929      	ldrh	r1, [r5, #8]
      b2:	0800      	lsrs	r0, r0, #32
      b4:	8929      	ldrh	r1, [r5, #8]
      b6:	0800      	lsrs	r0, r0, #32
      b8:	8929      	ldrh	r1, [r5, #8]
      ba:	0800      	lsrs	r0, r0, #32
      bc:	8929      	ldrh	r1, [r5, #8]
      be:	0800      	lsrs	r0, r0, #32
      c0:	8929      	ldrh	r1, [r5, #8]
      c2:	0800      	lsrs	r0, r0, #32
      c4:	8929      	ldrh	r1, [r5, #8]
      c6:	0800      	lsrs	r0, r0, #32
      c8:	8929      	ldrh	r1, [r5, #8]
      ca:	0800      	lsrs	r0, r0, #32
      cc:	8929      	ldrh	r1, [r5, #8]
      ce:	0800      	lsrs	r0, r0, #32
      d0:	8929      	ldrh	r1, [r5, #8]
      d2:	0800      	lsrs	r0, r0, #32
      d4:	8929      	ldrh	r1, [r5, #8]
      d6:	0800      	lsrs	r0, r0, #32
      d8:	8929      	ldrh	r1, [r5, #8]
      da:	0800      	lsrs	r0, r0, #32
      dc:	8929      	ldrh	r1, [r5, #8]
      de:	0800      	lsrs	r0, r0, #32
      e0:	8929      	ldrh	r1, [r5, #8]
      e2:	0800      	lsrs	r0, r0, #32
      e4:	8929      	ldrh	r1, [r5, #8]
      e6:	0800      	lsrs	r0, r0, #32
      e8:	8929      	ldrh	r1, [r5, #8]
      ea:	0800      	lsrs	r0, r0, #32
      ec:	8929      	ldrh	r1, [r5, #8]
      ee:	0800      	lsrs	r0, r0, #32
      f0:	8929      	ldrh	r1, [r5, #8]
      f2:	0800      	lsrs	r0, r0, #32
      f4:	8929      	ldrh	r1, [r5, #8]
      f6:	0800      	lsrs	r0, r0, #32
      f8:	8929      	ldrh	r1, [r5, #8]
      fa:	0800      	lsrs	r0, r0, #32
      fc:	8929      	ldrh	r1, [r5, #8]
      fe:	0800      	lsrs	r0, r0, #32
     100:	8929      	ldrh	r1, [r5, #8]
     102:	0800      	lsrs	r0, r0, #32
     104:	8929      	ldrh	r1, [r5, #8]
     106:	0800      	lsrs	r0, r0, #32
     108:	8929      	ldrh	r1, [r5, #8]
     10a:	0800      	lsrs	r0, r0, #32
     10c:	8929      	ldrh	r1, [r5, #8]
     10e:	0800      	lsrs	r0, r0, #32
     110:	8929      	ldrh	r1, [r5, #8]
     112:	0800      	lsrs	r0, r0, #32
     114:	8929      	ldrh	r1, [r5, #8]
     116:	0800      	lsrs	r0, r0, #32
     118:	8929      	ldrh	r1, [r5, #8]
     11a:	0800      	lsrs	r0, r0, #32
     11c:	8929      	ldrh	r1, [r5, #8]
     11e:	0800      	lsrs	r0, r0, #32
     120:	8929      	ldrh	r1, [r5, #8]
     122:	0800      	lsrs	r0, r0, #32
     124:	8929      	ldrh	r1, [r5, #8]
     126:	0800      	lsrs	r0, r0, #32
     128:	8929      	ldrh	r1, [r5, #8]
     12a:	0800      	lsrs	r0, r0, #32
     12c:	8929      	ldrh	r1, [r5, #8]
     12e:	0800      	lsrs	r0, r0, #32
	...
     1e0:	f85f f1e0 	ldr.w	pc, [pc, #-480]	; 0x4
	...
     1f0:	b510      	push	{r4, lr}
     1f2:	4c05      	ldr	r4, [pc, #20]	; (0x208)
     1f4:	7823      	ldrb	r3, [r4, #0]
     1f6:	b933      	cbnz	r3, 0x206
     1f8:	4b04      	ldr	r3, [pc, #16]	; (0x20c)
     1fa:	b113      	cbz	r3, 0x202
     1fc:	4804      	ldr	r0, [pc, #16]	; (0x210)
     1fe:	f3af 8000 	nop.w
     202:	2301      	movs	r3, #1
     204:	7023      	strb	r3, [r4, #0]
     206:	bd10      	pop	{r4, pc}
     208:	00a8      	lsls	r0, r5, #2
     20a:	2000      	movs	r0, #0
     20c:	0000      	movs	r0, r0
     20e:	0000      	movs	r0, r0
     210:	9224      	str	r2, [sp, #144]	; 0x90
     212:	0800      	lsrs	r0, r0, #32
     214:	b508      	push	{r3, lr}
     216:	4b03      	ldr	r3, [pc, #12]	; (0x224)
     218:	b11b      	cbz	r3, 0x222
     21a:	4903      	ldr	r1, [pc, #12]	; (0x228)
     21c:	4803      	ldr	r0, [pc, #12]	; (0x22c)
     21e:	f3af 8000 	nop.w
     222:	bd08      	pop	{r3, pc}
     224:	0000      	movs	r0, r0
     226:	0000      	movs	r0, r0
     228:	00ac      	lsls	r4, r5, #2
     22a:	2000      	movs	r0, #0
     22c:	9224      	str	r2, [sp, #144]	; 0x90
     22e:	0800      	lsrs	r0, r0, #32
     230:	b530      	push	{r4, r5, lr}
     232:	b091      	sub	sp, #68	; 0x44
     234:	2228      	movs	r2, #40	; 0x28
     236:	2100      	movs	r1, #0
     238:	a806      	add	r0, sp, #24
     23a:	f003 fba6 	bl	0x398a
     23e:	2400      	movs	r4, #0
     240:	9401      	str	r4, [sp, #4]
     242:	9402      	str	r4, [sp, #8]
     244:	9403      	str	r4, [sp, #12]
     246:	9404      	str	r4, [sp, #16]
     248:	9405      	str	r4, [sp, #20]
     24a:	2201      	movs	r2, #1
     24c:	9206      	str	r2, [sp, #24]
     24e:	f44f 3380 	mov.w	r3, #65536	; 0x10000
     252:	9307      	str	r3, [sp, #28]
     254:	920a      	str	r2, [sp, #40]	; 0x28
     256:	2502      	movs	r5, #2
     258:	950d      	str	r5, [sp, #52]	; 0x34
     25a:	930e      	str	r3, [sp, #56]	; 0x38
     25c:	f44f 13e0 	mov.w	r3, #1835008	; 0x1c0000
     260:	930f      	str	r3, [sp, #60]	; 0x3c
     262:	a806      	add	r0, sp, #24
     264:	f000 ffe4 	bl	0x1230
     268:	230f      	movs	r3, #15
     26a:	9301      	str	r3, [sp, #4]
     26c:	9502      	str	r5, [sp, #8]
     26e:	9403      	str	r4, [sp, #12]
     270:	f44f 6380 	mov.w	r3, #1024	; 0x400
     274:	9304      	str	r3, [sp, #16]
     276:	9405      	str	r4, [sp, #20]
     278:	4629      	mov	r1, r5
     27a:	a801      	add	r0, sp, #4
     27c:	f001 f9fe 	bl	0x167c
     280:	b011      	add	sp, #68	; 0x44
     282:	bd30      	pop	{r4, r5, pc}
     284:	b508      	push	{r3, lr}
     286:	f000 ff85 	bl	0x1194
     28a:	f7ff ffd1 	bl	0x230
     28e:	f000 f819 	bl	0x2c4
     292:	f000 f93b 	bl	0x50c
     296:	f000 f975 	bl	0x584
     29a:	f000 fa89 	bl	0x7b0
     29e:	f000 f8c1 	bl	0x424
     2a2:	f002 ffb6 	bl	0x3212
     2a6:	e7fe      	b.n	0x2a6
     2a8:	b508      	push	{r3, lr}
     2aa:	6802      	ldr	r2, [r0, #0]
     2ac:	4b03      	ldr	r3, [pc, #12]	; (0x2bc)
     2ae:	429a      	cmp	r2, r3
     2b0:	d000      	beq.n	0x2b4
     2b2:	bd08      	pop	{r3, pc}
     2b4:	f000 ff80 	bl	0x11b8
     2b8:	e7fb      	b.n	0x2b2
     2ba:	bf00      	nop
     2bc:	2c00      	cmp	r4, #0
     2be:	4001      	ands	r1, r0
     2c0:	4770      	bx	lr
     2c2:	0000      	movs	r0, r0
     2c4:	e92d 43f0 	stmdb	sp!, {r4, r5, r6, r7, r8, r9, lr}
     2c8:	b08b      	sub	sp, #44	; 0x2c
     2ca:	2400      	movs	r4, #0
     2cc:	9406      	str	r4, [sp, #24]
     2ce:	9407      	str	r4, [sp, #28]
     2d0:	9408      	str	r4, [sp, #32]
     2d2:	9409      	str	r4, [sp, #36]	; 0x24
     2d4:	4b45      	ldr	r3, [pc, #276]	; (0x3ec)
     2d6:	699a      	ldr	r2, [r3, #24]
     2d8:	f042 0240 	orr.w	r2, r2, #64	; 0x40
     2dc:	619a      	str	r2, [r3, #24]
     2de:	699a      	ldr	r2, [r3, #24]
     2e0:	f002 0240 	and.w	r2, r2, #64	; 0x40
     2e4:	9201      	str	r2, [sp, #4]
     2e6:	9a01      	ldr	r2, [sp, #4]
     2e8:	699a      	ldr	r2, [r3, #24]
     2ea:	f042 0210 	orr.w	r2, r2, #16
     2ee:	619a      	str	r2, [r3, #24]
     2f0:	699a      	ldr	r2, [r3, #24]
     2f2:	f002 0210 	and.w	r2, r2, #16
     2f6:	9202      	str	r2, [sp, #8]
     2f8:	9a02      	ldr	r2, [sp, #8]
     2fa:	699a      	ldr	r2, [r3, #24]
     2fc:	f042 0204 	orr.w	r2, r2, #4
     300:	619a      	str	r2, [r3, #24]
     302:	699a      	ldr	r2, [r3, #24]
     304:	f002 0204 	and.w	r2, r2, #4
     308:	9203      	str	r2, [sp, #12]
     30a:	9a03      	ldr	r2, [sp, #12]
     30c:	699a      	ldr	r2, [r3, #24]
     30e:	f042 0208 	orr.w	r2, r2, #8
     312:	619a      	str	r2, [r3, #24]
     314:	699a      	ldr	r2, [r3, #24]
     316:	f002 0208 	and.w	r2, r2, #8
     31a:	9204      	str	r2, [sp, #16]
     31c:	9a04      	ldr	r2, [sp, #16]
     31e:	699a      	ldr	r2, [r3, #24]
     320:	f042 0220 	orr.w	r2, r2, #32
     324:	619a      	str	r2, [r3, #24]
     326:	699b      	ldr	r3, [r3, #24]
     328:	f003 0320 	and.w	r3, r3, #32
     32c:	9305      	str	r3, [sp, #20]
     32e:	9b05      	ldr	r3, [sp, #20]
     330:	f8df 90c8 	ldr.w	r9, [pc, #200]	; 0x3fc
     334:	4622      	mov	r2, r4
     336:	f44f 5100 	mov.w	r1, #8192	; 0x2000
     33a:	4648      	mov	r0, r9
     33c:	f001 fbae 	bl	0x1a9c
     340:	f8df 80bc 	ldr.w	r8, [pc, #188]	; 0x400
     344:	4622      	mov	r2, r4
     346:	2120      	movs	r1, #32
     348:	4640      	mov	r0, r8
     34a:	f001 fba7 	bl	0x1a9c
     34e:	4e28      	ldr	r6, [pc, #160]	; (0x3f0)
     350:	4622      	mov	r2, r4
     352:	2102      	movs	r1, #2
     354:	4630      	mov	r0, r6
     356:	f001 fba1 	bl	0x1a9c
     35a:	237d      	movs	r3, #125	; 0x7d
     35c:	9306      	str	r3, [sp, #24]
     35e:	2503      	movs	r5, #3
     360:	9507      	str	r5, [sp, #28]
     362:	a906      	add	r1, sp, #24
     364:	4630      	mov	r0, r6
     366:	f001 fa9b 	bl	0x18a0
     36a:	f643 73ff 	movw	r3, #16383	; 0x3fff
     36e:	9306      	str	r3, [sp, #24]
     370:	9507      	str	r5, [sp, #28]
     372:	a906      	add	r1, sp, #24
     374:	481f      	ldr	r0, [pc, #124]	; (0x3f4)
     376:	f001 fa93 	bl	0x18a0
     37a:	f64f 13ff 	movw	r3, #63999	; 0xf9ff
     37e:	9306      	str	r3, [sp, #24]
     380:	9507      	str	r5, [sp, #28]
     382:	a906      	add	r1, sp, #24
     384:	481c      	ldr	r0, [pc, #112]	; (0x3f8)
     386:	f001 fa8b 	bl	0x18a0
     38a:	f64f 73df 	movw	r3, #65503	; 0xffdf
     38e:	9306      	str	r3, [sp, #24]
     390:	9507      	str	r5, [sp, #28]
     392:	a906      	add	r1, sp, #24
     394:	4640      	mov	r0, r8
     396:	f001 fa83 	bl	0x18a0
     39a:	f241 034c 	movw	r3, #4172	; 0x104c
     39e:	9306      	str	r3, [sp, #24]
     3a0:	9507      	str	r5, [sp, #28]
     3a2:	a906      	add	r1, sp, #24
     3a4:	4648      	mov	r0, r9
     3a6:	f001 fa7b 	bl	0x18a0
     3aa:	f44f 5300 	mov.w	r3, #8192	; 0x2000
     3ae:	9306      	str	r3, [sp, #24]
     3b0:	2701      	movs	r7, #1
     3b2:	9707      	str	r7, [sp, #28]
     3b4:	9408      	str	r4, [sp, #32]
     3b6:	9509      	str	r5, [sp, #36]	; 0x24
     3b8:	a906      	add	r1, sp, #24
     3ba:	4648      	mov	r0, r9
     3bc:	f001 fa70 	bl	0x18a0
     3c0:	2320      	movs	r3, #32
     3c2:	9306      	str	r3, [sp, #24]
     3c4:	9707      	str	r7, [sp, #28]
     3c6:	9408      	str	r4, [sp, #32]
     3c8:	2502      	movs	r5, #2
     3ca:	9509      	str	r5, [sp, #36]	; 0x24
     3cc:	a906      	add	r1, sp, #24
     3ce:	4640      	mov	r0, r8
     3d0:	f001 fa66 	bl	0x18a0
     3d4:	9506      	str	r5, [sp, #24]
     3d6:	9707      	str	r7, [sp, #28]
     3d8:	9408      	str	r4, [sp, #32]
     3da:	9509      	str	r5, [sp, #36]	; 0x24
     3dc:	a906      	add	r1, sp, #24
     3de:	4630      	mov	r0, r6
     3e0:	f001 fa5e 	bl	0x18a0
     3e4:	b00b      	add	sp, #44	; 0x2c
     3e6:	e8bd 83f0 	ldmia.w	sp!, {r4, r5, r6, r7, r8, r9, pc}
     3ea:	bf00      	nop
     3ec:	1000      	asrs	r0, r0, #32
     3ee:	4002      	ands	r2, r0
     3f0:	1800      	adds	r0, r0, r0
     3f2:	4001      	ands	r1, r0
     3f4:	1000      	asrs	r0, r0, #32
     3f6:	4001      	ands	r1, r0
     3f8:	0800      	lsrs	r0, r0, #32
     3fa:	4001      	ands	r1, r0
     3fc:	1400      	asrs	r0, r0, #16
     3fe:	4001      	ands	r1, r0
     400:	0c00      	lsrs	r0, r0, #16
     402:	4001      	ands	r1, r0
     404:	b508      	push	{r3, lr}
     406:	2120      	movs	r1, #32
     408:	4804      	ldr	r0, [pc, #16]	; (0x41c)
     40a:	f001 fb4d 	bl	0x1aa8
     40e:	2264      	movs	r2, #100	; 0x64
     410:	210c      	movs	r1, #12
     412:	4b03      	ldr	r3, [pc, #12]	; (0x420)
     414:	6818      	ldr	r0, [r3, #0]
     416:	f002 ff71 	bl	0x32fc
     41a:	bd08      	pop	{r3, pc}
     41c:	0c00      	lsrs	r0, r0, #16
     41e:	4001      	ands	r1, r0
     420:	2978      	cmp	r1, #120	; 0x78
     422:	2000      	movs	r0, #0
     424:	b5f0      	push	{r4, r5, r6, r7, lr}
     426:	b08b      	sub	sp, #44	; 0x2c
     428:	2700      	movs	r7, #0
     42a:	a80a      	add	r0, sp, #40	; 0x28
     42c:	f840 7d04 	str.w	r7, [r0, #-4]!
     430:	f002 ff58 	bl	0x32e4
     434:	4b15      	ldr	r3, [pc, #84]	; (0x48c)
     436:	6018      	str	r0, [r3, #0]
     438:	4e15      	ldr	r6, [pc, #84]	; (0x490)
     43a:	ac04      	add	r4, sp, #16
     43c:	4635      	mov	r5, r6
     43e:	cd0f      	ldmia	r5!, {r0, r1, r2, r3}
     440:	c40f      	stmia	r4!, {r0, r1, r2, r3}
     442:	682b      	ldr	r3, [r5, #0]
     444:	6023      	str	r3, [r4, #0]
     446:	4639      	mov	r1, r7
     448:	a804      	add	r0, sp, #16
     44a:	f002 fee7 	bl	0x321c
     44e:	4c11      	ldr	r4, [pc, #68]	; (0x494)
     450:	6020      	str	r0, [r4, #0]
     452:	a80a      	add	r0, sp, #40	; 0x28
     454:	4b10      	ldr	r3, [pc, #64]	; (0x498)
     456:	f840 3d1c 	str.w	r3, [r0, #-28]!
     45a:	463a      	mov	r2, r7
     45c:	2101      	movs	r1, #1
     45e:	f002 fef7 	bl	0x3250
     462:	4b0e      	ldr	r3, [pc, #56]	; (0x49c)
     464:	6018      	str	r0, [r3, #0]
     466:	ab01      	add	r3, sp, #4
     468:	3614      	adds	r6, #20
     46a:	e896 0003 	ldmia.w	r6, {r0, r1}
     46e:	e883 0003 	stmia.w	r3, {r0, r1}
     472:	4639      	mov	r1, r7
     474:	4618      	mov	r0, r3
     476:	f002 ff3a 	bl	0x32ee
     47a:	4b09      	ldr	r3, [pc, #36]	; (0x4a0)
     47c:	6018      	str	r0, [r3, #0]
     47e:	2131      	movs	r1, #49	; 0x31
     480:	6820      	ldr	r0, [r4, #0]
     482:	f002 fa87 	bl	0x2994
     486:	b00b      	add	sp, #44	; 0x2c
     488:	bdf0      	pop	{r4, r5, r6, r7, pc}
     48a:	bf00      	nop
     48c:	2984      	cmp	r1, #132	; 0x84
     48e:	2000      	movs	r0, #0
     490:	923c      	str	r2, [sp, #240]	; 0xf0
     492:	0800      	lsrs	r0, r0, #32
     494:	2980      	cmp	r1, #128	; 0x80
     496:	2000      	movs	r0, #0
     498:	5405      	strb	r5, [r0, r0]
     49a:	0800      	lsrs	r0, r0, #32
     49c:	297c      	cmp	r1, #124	; 0x7c
     49e:	2000      	movs	r0, #0
     4a0:	2978      	cmp	r1, #120	; 0x78
     4a2:	2000      	movs	r0, #0
     4a4:	4770      	bx	lr
     4a6:	4770      	bx	lr
     4a8:	4b14      	ldr	r3, [pc, #80]	; (0x4fc)
     4aa:	681b      	ldr	r3, [r3, #0]
     4ac:	b103      	cbz	r3, 0x4b0
     4ae:	4770      	bx	lr
     4b0:	b530      	push	{r4, r5, lr}
     4b2:	b087      	sub	sp, #28
     4b4:	2201      	movs	r2, #1
     4b6:	4b11      	ldr	r3, [pc, #68]	; (0x4fc)
     4b8:	601a      	str	r2, [r3, #0]
     4ba:	4b11      	ldr	r3, [pc, #68]	; (0x500)
     4bc:	695a      	ldr	r2, [r3, #20]
     4be:	f442 7280 	orr.w	r2, r2, #256	; 0x100
     4c2:	615a      	str	r2, [r3, #20]
     4c4:	695b      	ldr	r3, [r3, #20]
     4c6:	f403 7380 	and.w	r3, r3, #256	; 0x100
     4ca:	9301      	str	r3, [sp, #4]
     4cc:	9b01      	ldr	r3, [sp, #4]
     4ce:	f64f 7380 	movw	r3, #65408	; 0xff80
     4d2:	9302      	str	r3, [sp, #8]
     4d4:	2502      	movs	r5, #2
     4d6:	9503      	str	r5, [sp, #12]
     4d8:	2403      	movs	r4, #3
     4da:	9405      	str	r4, [sp, #20]
     4dc:	a902      	add	r1, sp, #8
     4de:	4809      	ldr	r0, [pc, #36]	; (0x504)
     4e0:	f001 f9de 	bl	0x18a0
     4e4:	f64c 73b3 	movw	r3, #53171	; 0xcfb3
     4e8:	9302      	str	r3, [sp, #8]
     4ea:	9503      	str	r5, [sp, #12]
     4ec:	9405      	str	r4, [sp, #20]
     4ee:	a902      	add	r1, sp, #8
     4f0:	4805      	ldr	r0, [pc, #20]	; (0x508)
     4f2:	f001 f9d5 	bl	0x18a0
     4f6:	b007      	add	sp, #28
     4f8:	bd30      	pop	{r4, r5, pc}
     4fa:	bf00      	nop
     4fc:	00c4      	lsls	r4, r0, #3
     4fe:	2000      	movs	r0, #0
     500:	1000      	asrs	r0, r0, #32
     502:	4002      	ands	r2, r0
     504:	1800      	adds	r0, r0, r0
     506:	4001      	ands	r1, r0
     508:	1400      	asrs	r0, r0, #16
     50a:	4001      	ands	r1, r0
     50c:	b500      	push	{lr}
     50e:	b089      	sub	sp, #36	; 0x24
     510:	4818      	ldr	r0, [pc, #96]	; (0x574)
     512:	f04f 4320 	mov.w	r3, #2684354560	; 0xa0000000
     516:	6003      	str	r3, [r0, #0]
     518:	f503 7382 	add.w	r3, r3, #260	; 0x104
     51c:	6043      	str	r3, [r0, #4]
     51e:	2200      	movs	r2, #0
     520:	6082      	str	r2, [r0, #8]
     522:	60c2      	str	r2, [r0, #12]
     524:	6102      	str	r2, [r0, #16]
     526:	2310      	movs	r3, #16
     528:	6143      	str	r3, [r0, #20]
     52a:	6182      	str	r2, [r0, #24]
     52c:	61c2      	str	r2, [r0, #28]
     52e:	6202      	str	r2, [r0, #32]
     530:	6242      	str	r2, [r0, #36]	; 0x24
     532:	f44f 5180 	mov.w	r1, #4096	; 0x1000
     536:	6281      	str	r1, [r0, #40]	; 0x28
     538:	62c2      	str	r2, [r0, #44]	; 0x2c
     53a:	6302      	str	r2, [r0, #48]	; 0x30
     53c:	6342      	str	r2, [r0, #52]	; 0x34
     53e:	6382      	str	r2, [r0, #56]	; 0x38
     540:	2102      	movs	r1, #2
     542:	9101      	str	r1, [sp, #4]
     544:	210f      	movs	r1, #15
     546:	9102      	str	r1, [sp, #8]
     548:	2105      	movs	r1, #5
     54a:	9103      	str	r1, [sp, #12]
     54c:	9204      	str	r2, [sp, #16]
     54e:	9305      	str	r3, [sp, #20]
     550:	2311      	movs	r3, #17
     552:	9306      	str	r3, [sp, #24]
     554:	9207      	str	r2, [sp, #28]
     556:	a901      	add	r1, sp, #4
     558:	f000 fbb2 	bl	0xcc0
     55c:	b938      	cbnz	r0, 0x56e
     55e:	4a06      	ldr	r2, [pc, #24]	; (0x578)
     560:	69d3      	ldr	r3, [r2, #28]
     562:	f443 6380 	orr.w	r3, r3, #1024	; 0x400
     566:	61d3      	str	r3, [r2, #28]
     568:	b009      	add	sp, #36	; 0x24
     56a:	f85d fb04 	ldr.w	pc, [sp], #4
     56e:	f7ff fea7 	bl	0x2c0
     572:	e7f4      	b.n	0x55e
     574:	2988      	cmp	r1, #136	; 0x88
     576:	2000      	movs	r0, #0
     578:	0000      	movs	r0, r0
     57a:	4001      	ands	r1, r0
     57c:	b508      	push	{r3, lr}
     57e:	f7ff ff93 	bl	0x4a8
     582:	bd08      	pop	{r3, pc}
     584:	b508      	push	{r3, lr}
     586:	480a      	ldr	r0, [pc, #40]	; (0x5b0)
     588:	4b0a      	ldr	r3, [pc, #40]	; (0x5b4)
     58a:	6003      	str	r3, [r0, #0]
     58c:	f44f 33e1 	mov.w	r3, #115200	; 0x1c200
     590:	6043      	str	r3, [r0, #4]
     592:	2300      	movs	r3, #0
     594:	6083      	str	r3, [r0, #8]
     596:	60c3      	str	r3, [r0, #12]
     598:	6103      	str	r3, [r0, #16]
     59a:	220c      	movs	r2, #12
     59c:	6142      	str	r2, [r0, #20]
     59e:	6183      	str	r3, [r0, #24]
     5a0:	61c3      	str	r3, [r0, #28]
     5a2:	f000 fdc7 	bl	0x1134
     5a6:	b900      	cbnz	r0, 0x5aa
     5a8:	bd08      	pop	{r3, pc}
     5aa:	f7ff fe89 	bl	0x2c0
     5ae:	e7fb      	b.n	0x5a8
     5b0:	29cc      	cmp	r1, #204	; 0xcc
     5b2:	2000      	movs	r0, #0
     5b4:	3800      	subs	r0, #0
     5b6:	4001      	ands	r1, r0
     5b8:	b510      	push	{r4, lr}
     5ba:	b086      	sub	sp, #24
     5bc:	2300      	movs	r3, #0
     5be:	9302      	str	r3, [sp, #8]
     5c0:	9303      	str	r3, [sp, #12]
     5c2:	9304      	str	r3, [sp, #16]
     5c4:	9305      	str	r3, [sp, #20]
     5c6:	6802      	ldr	r2, [r0, #0]
     5c8:	4b17      	ldr	r3, [pc, #92]	; (0x628)
     5ca:	429a      	cmp	r2, r3
     5cc:	d001      	beq.n	0x5d2
     5ce:	b006      	add	sp, #24
     5d0:	bd10      	pop	{r4, pc}
     5d2:	f503 4358 	add.w	r3, r3, #55296	; 0xd800
     5d6:	699a      	ldr	r2, [r3, #24]
     5d8:	f442 4280 	orr.w	r2, r2, #16384	; 0x4000
     5dc:	619a      	str	r2, [r3, #24]
     5de:	699a      	ldr	r2, [r3, #24]
     5e0:	f402 4280 	and.w	r2, r2, #16384	; 0x4000
     5e4:	9200      	str	r2, [sp, #0]
     5e6:	9a00      	ldr	r2, [sp, #0]
     5e8:	699a      	ldr	r2, [r3, #24]
     5ea:	f042 0204 	orr.w	r2, r2, #4
     5ee:	619a      	str	r2, [r3, #24]
     5f0:	699b      	ldr	r3, [r3, #24]
     5f2:	f003 0304 	and.w	r3, r3, #4
     5f6:	9301      	str	r3, [sp, #4]
     5f8:	9b01      	ldr	r3, [sp, #4]
     5fa:	f44f 7300 	mov.w	r3, #512	; 0x200
     5fe:	9302      	str	r3, [sp, #8]
     600:	2302      	movs	r3, #2
     602:	9303      	str	r3, [sp, #12]
     604:	2303      	movs	r3, #3
     606:	9305      	str	r3, [sp, #20]
     608:	4c08      	ldr	r4, [pc, #32]	; (0x62c)
     60a:	a902      	add	r1, sp, #8
     60c:	4620      	mov	r0, r4
     60e:	f001 f947 	bl	0x18a0
     612:	f44f 6380 	mov.w	r3, #1024	; 0x400
     616:	9302      	str	r3, [sp, #8]
     618:	2300      	movs	r3, #0
     61a:	9303      	str	r3, [sp, #12]
     61c:	9304      	str	r3, [sp, #16]
     61e:	a902      	add	r1, sp, #8
     620:	4620      	mov	r0, r4
     622:	f001 f93d 	bl	0x18a0
     626:	e7d2      	b.n	0x5ce
     628:	3800      	subs	r0, #0
     62a:	4001      	ands	r1, r0
     62c:	0800      	lsrs	r0, r0, #32
     62e:	4001      	ands	r1, r0
     630:	b280      	uxth	r0, r0
     632:	f04f 43c0 	mov.w	r3, #1610612736	; 0x60000000
     636:	8018      	strh	r0, [r3, #0]
     638:	b289      	uxth	r1, r1
     63a:	f503 3300 	add.w	r3, r3, #131072	; 0x20000
     63e:	8019      	strh	r1, [r3, #0]
     640:	4770      	bx	lr
     642:	0000      	movs	r0, r0
     644:	b280      	uxth	r0, r0
     646:	4b01      	ldr	r3, [pc, #4]	; (0x64c)
     648:	8018      	strh	r0, [r3, #0]
     64a:	4770      	bx	lr
     64c:	0000      	movs	r0, r0
     64e:	6002      	str	r2, [r0, #0]
     650:	b280      	uxth	r0, r0
     652:	f04f 43c0 	mov.w	r3, #1610612736	; 0x60000000
     656:	8018      	strh	r0, [r3, #0]
     658:	4770      	bx	lr
     65a:	0000      	movs	r0, r0
     65c:	29e2      	cmp	r1, #226	; 0xe2
     65e:	d900      	bls.n	0x662
     660:	4770      	bx	lr
     662:	e92d 41f0 	stmdb	sp!, {r4, r5, r6, r7, r8, lr}
     666:	4617      	mov	r7, r2
     668:	460c      	mov	r4, r1
     66a:	4605      	mov	r5, r0
     66c:	2100      	movs	r1, #0
     66e:	2002      	movs	r0, #2
     670:	f7ff ffde 	bl	0x630
     674:	4629      	mov	r1, r5
     676:	2003      	movs	r0, #3
     678:	f7ff ffda 	bl	0x630
     67c:	2100      	movs	r1, #0
     67e:	2004      	movs	r0, #4
     680:	f7ff ffd6 	bl	0x630
     684:	1d69      	adds	r1, r5, #5
     686:	2005      	movs	r0, #5
     688:	f7ff ffd2 	bl	0x630
     68c:	ea4f 2814 	mov.w	r8, r4, lsr #8
     690:	4641      	mov	r1, r8
     692:	2006      	movs	r0, #6
     694:	f7ff ffcc 	bl	0x630
     698:	b2e6      	uxtb	r6, r4
     69a:	4631      	mov	r1, r6
     69c:	2007      	movs	r0, #7
     69e:	f7ff ffc7 	bl	0x630
     6a2:	f104 010b 	add.w	r1, r4, #11
     6a6:	1209      	asrs	r1, r1, #8
     6a8:	2008      	movs	r0, #8
     6aa:	f7ff ffc1 	bl	0x630
     6ae:	f106 010b 	add.w	r1, r6, #11
     6b2:	b2c9      	uxtb	r1, r1
     6b4:	2009      	movs	r0, #9
     6b6:	f7ff ffbb 	bl	0x630
     6ba:	2100      	movs	r1, #0
     6bc:	2002      	movs	r0, #2
     6be:	f7ff ffb7 	bl	0x630
     6c2:	4629      	mov	r1, r5
     6c4:	2003      	movs	r0, #3
     6c6:	f7ff ffb3 	bl	0x630
     6ca:	4641      	mov	r1, r8
     6cc:	2006      	movs	r0, #6
     6ce:	f7ff ffaf 	bl	0x630
     6d2:	4631      	mov	r1, r6
     6d4:	2007      	movs	r0, #7
     6d6:	f7ff ffab 	bl	0x630
     6da:	2022      	movs	r0, #34	; 0x22
     6dc:	f7ff ffb8 	bl	0x650
     6e0:	3f20      	subs	r7, #32
     6e2:	b2ff      	uxtb	r7, r7
     6e4:	2600      	movs	r6, #0
     6e6:	e012      	b.n	0x70e
     6e8:	f64f 70ff 	movw	r0, #65535	; 0xffff
     6ec:	f7ff ffaa 	bl	0x644
     6f0:	086d      	lsrs	r5, r5, #1
     6f2:	3401      	adds	r4, #1
     6f4:	b2e4      	uxtb	r4, r4
     6f6:	2c05      	cmp	r4, #5
     6f8:	d807      	bhi.n	0x70a
     6fa:	f015 0f01 	tst.w	r5, #1
     6fe:	d0f3      	beq.n	0x6e8
     700:	4b09      	ldr	r3, [pc, #36]	; (0x728)
     702:	8818      	ldrh	r0, [r3, #0]
     704:	f7ff ff9e 	bl	0x644
     708:	e7f2      	b.n	0x6f0
     70a:	3601      	adds	r6, #1
     70c:	b2f6      	uxtb	r6, r6
     70e:	2e0b      	cmp	r6, #11
     710:	d807      	bhi.n	0x722
     712:	eb07 0347 	add.w	r3, r7, r7, lsl #1
     716:	009a      	lsls	r2, r3, #2
     718:	4b04      	ldr	r3, [pc, #16]	; (0x72c)
     71a:	4413      	add	r3, r2
     71c:	5d9d      	ldrb	r5, [r3, r6]
     71e:	2400      	movs	r4, #0
     720:	e7e9      	b.n	0x6f6
     722:	e8bd 81f0 	ldmia.w	sp!, {r4, r5, r6, r7, r8, pc}
     726:	bf00      	nop
     728:	00c8      	lsls	r0, r1, #3
     72a:	2000      	movs	r0, #0
     72c:	9274      	str	r2, [sp, #464]	; 0x1d0
     72e:	0800      	lsrs	r0, r0, #32
     730:	b570      	push	{r4, r5, r6, lr}
     732:	4604      	mov	r4, r0
     734:	460e      	mov	r6, r1
     736:	4615      	mov	r5, r2
     738:	e006      	b.n	0x748
     73a:	4631      	mov	r1, r6
     73c:	4620      	mov	r0, r4
     73e:	f7ff ff8d 	bl	0x65c
     742:	3406      	adds	r4, #6
     744:	b2e4      	uxtb	r4, r4
     746:	3501      	adds	r5, #1
     748:	782a      	ldrb	r2, [r5, #0]
     74a:	2a00      	cmp	r2, #0
     74c:	d1f5      	bne.n	0x73a
     74e:	bd70      	pop	{r4, r5, r6, pc}
     750:	b510      	push	{r4, lr}
     752:	2400      	movs	r4, #0
     754:	e009      	b.n	0x76a
     756:	eb04 0344 	add.w	r3, r4, r4, lsl #1
     75a:	0099      	lsls	r1, r3, #2
     75c:	b289      	uxth	r1, r1
     75e:	4a04      	ldr	r2, [pc, #16]	; (0x770)
     760:	2000      	movs	r0, #0
     762:	f7ff ffe5 	bl	0x730
     766:	3401      	adds	r4, #1
     768:	b2a4      	uxth	r4, r4
     76a:	2c14      	cmp	r4, #20
     76c:	d9f3      	bls.n	0x756
     76e:	bd10      	pop	{r4, pc}
     770:	0000      	movs	r0, r0
     772:	2000      	movs	r0, #0
     774:	b510      	push	{r4, lr}
     776:	4c0c      	ldr	r4, [pc, #48]	; (0x7a8)
     778:	2200      	movs	r2, #0
     77a:	2102      	movs	r1, #2
     77c:	4620      	mov	r0, r4
     77e:	f001 f98d 	bl	0x1a9c
     782:	200a      	movs	r0, #10
     784:	f000 fd2a 	bl	0x11dc
     788:	2201      	movs	r2, #1
     78a:	2102      	movs	r1, #2
     78c:	4620      	mov	r0, r4
     78e:	f001 f985 	bl	0x1a9c
     792:	200a      	movs	r0, #10
     794:	f000 fd22 	bl	0x11dc
     798:	2201      	movs	r2, #1
     79a:	f44f 5100 	mov.w	r1, #8192	; 0x2000
     79e:	4803      	ldr	r0, [pc, #12]	; (0x7ac)
     7a0:	f001 f97c 	bl	0x1a9c
     7a4:	bd10      	pop	{r4, pc}
     7a6:	bf00      	nop
     7a8:	1800      	adds	r0, r0, r0
     7aa:	4001      	ands	r1, r0
     7ac:	1400      	asrs	r0, r0, #16
     7ae:	4001      	ands	r1, r0
     7b0:	b508      	push	{r3, lr}
     7b2:	f7ff ffdf 	bl	0x774
     7b6:	2100      	movs	r1, #0
     7b8:	20ea      	movs	r0, #234	; 0xea
     7ba:	f7ff ff39 	bl	0x630
     7be:	2120      	movs	r1, #32
     7c0:	20eb      	movs	r0, #235	; 0xeb
     7c2:	f7ff ff35 	bl	0x630
     7c6:	213c      	movs	r1, #60	; 0x3c
     7c8:	20ec      	movs	r0, #236	; 0xec
     7ca:	f7ff ff31 	bl	0x630
     7ce:	21c4      	movs	r1, #196	; 0xc4
     7d0:	20ed      	movs	r0, #237	; 0xed
     7d2:	f7ff ff2d 	bl	0x630
     7d6:	2148      	movs	r1, #72	; 0x48
     7d8:	20e8      	movs	r0, #232	; 0xe8
     7da:	f7ff ff29 	bl	0x630
     7de:	2138      	movs	r1, #56	; 0x38
     7e0:	20e9      	movs	r0, #233	; 0xe9
     7e2:	f7ff ff25 	bl	0x630
     7e6:	2101      	movs	r1, #1
     7e8:	20f1      	movs	r0, #241	; 0xf1
     7ea:	f7ff ff21 	bl	0x630
     7ee:	2108      	movs	r1, #8
     7f0:	20f2      	movs	r0, #242	; 0xf2
     7f2:	f7ff ff1d 	bl	0x630
     7f6:	2101      	movs	r1, #1
     7f8:	2040      	movs	r0, #64	; 0x40
     7fa:	f7ff ff19 	bl	0x630
     7fe:	2107      	movs	r1, #7
     800:	2041      	movs	r0, #65	; 0x41
     802:	f7ff ff15 	bl	0x630
     806:	2109      	movs	r1, #9
     808:	2042      	movs	r0, #66	; 0x42
     80a:	f7ff ff11 	bl	0x630
     80e:	2119      	movs	r1, #25
     810:	2043      	movs	r0, #67	; 0x43
     812:	f7ff ff0d 	bl	0x630
     816:	2117      	movs	r1, #23
     818:	2044      	movs	r0, #68	; 0x44
     81a:	f7ff ff09 	bl	0x630
     81e:	2120      	movs	r1, #32
     820:	2045      	movs	r0, #69	; 0x45
     822:	f7ff ff05 	bl	0x630
     826:	2118      	movs	r1, #24
     828:	2046      	movs	r0, #70	; 0x46
     82a:	f7ff ff01 	bl	0x630
     82e:	2161      	movs	r1, #97	; 0x61
     830:	2047      	movs	r0, #71	; 0x47
     832:	f7ff fefd 	bl	0x630
     836:	2100      	movs	r1, #0
     838:	2048      	movs	r0, #72	; 0x48
     83a:	f7ff fef9 	bl	0x630
     83e:	2110      	movs	r1, #16
     840:	2049      	movs	r0, #73	; 0x49
     842:	f7ff fef5 	bl	0x630
     846:	2117      	movs	r1, #23
     848:	204a      	movs	r0, #74	; 0x4a
     84a:	f7ff fef1 	bl	0x630
     84e:	2119      	movs	r1, #25
     850:	204b      	movs	r0, #75	; 0x4b
     852:	f7ff feed 	bl	0x630
     856:	2114      	movs	r1, #20
     858:	204c      	movs	r0, #76	; 0x4c
     85a:	f7ff fee9 	bl	0x630
     85e:	211f      	movs	r1, #31
     860:	2050      	movs	r0, #80	; 0x50
     862:	f7ff fee5 	bl	0x630
     866:	2128      	movs	r1, #40	; 0x28
     868:	2051      	movs	r0, #81	; 0x51
     86a:	f7ff fee1 	bl	0x630
     86e:	2126      	movs	r1, #38	; 0x26
     870:	2052      	movs	r0, #82	; 0x52
     872:	f7ff fedd 	bl	0x630
     876:	2136      	movs	r1, #54	; 0x36
     878:	2053      	movs	r0, #83	; 0x53
     87a:	f7ff fed9 	bl	0x630
     87e:	2138      	movs	r1, #56	; 0x38
     880:	2054      	movs	r0, #84	; 0x54
     882:	f7ff fed5 	bl	0x630
     886:	213e      	movs	r1, #62	; 0x3e
     888:	2055      	movs	r0, #85	; 0x55
     88a:	f7ff fed1 	bl	0x630
     88e:	211e      	movs	r1, #30
     890:	2056      	movs	r0, #86	; 0x56
     892:	f7ff fecd 	bl	0x630
     896:	2167      	movs	r1, #103	; 0x67
     898:	2057      	movs	r0, #87	; 0x57
     89a:	f7ff fec9 	bl	0x630
     89e:	210b      	movs	r1, #11
     8a0:	2058      	movs	r0, #88	; 0x58
     8a2:	f7ff fec5 	bl	0x630
     8a6:	2106      	movs	r1, #6
     8a8:	2059      	movs	r0, #89	; 0x59
     8aa:	f7ff fec1 	bl	0x630
     8ae:	2108      	movs	r1, #8
     8b0:	205a      	movs	r0, #90	; 0x5a
     8b2:	f7ff febd 	bl	0x630
     8b6:	210f      	movs	r1, #15
     8b8:	205b      	movs	r0, #91	; 0x5b
     8ba:	f7ff feb9 	bl	0x630
     8be:	211f      	movs	r1, #31
     8c0:	205c      	movs	r0, #92	; 0x5c
     8c2:	f7ff feb5 	bl	0x630
     8c6:	21cc      	movs	r1, #204	; 0xcc
     8c8:	205d      	movs	r0, #93	; 0x5d
     8ca:	f7ff feb1 	bl	0x630
     8ce:	211b      	movs	r1, #27
     8d0:	4608      	mov	r0, r1
     8d2:	f7ff fead 	bl	0x630
     8d6:	2101      	movs	r1, #1
     8d8:	201a      	movs	r0, #26
     8da:	f7ff fea9 	bl	0x630
     8de:	2170      	movs	r1, #112	; 0x70
     8e0:	2024      	movs	r0, #36	; 0x24
     8e2:	f7ff fea5 	bl	0x630
     8e6:	2158      	movs	r1, #88	; 0x58
     8e8:	2025      	movs	r0, #37	; 0x25
     8ea:	f7ff fea1 	bl	0x630
     8ee:	216e      	movs	r1, #110	; 0x6e
     8f0:	2023      	movs	r0, #35	; 0x23
     8f2:	f7ff fe9d 	bl	0x630
     8f6:	2136      	movs	r1, #54	; 0x36
     8f8:	2018      	movs	r0, #24
     8fa:	f7ff fe99 	bl	0x630
     8fe:	2101      	movs	r1, #1
     900:	2019      	movs	r0, #25
     902:	f7ff fe95 	bl	0x630
     906:	2100      	movs	r1, #0
     908:	2001      	movs	r0, #1
     90a:	f7ff fe91 	bl	0x630
     90e:	21d0      	movs	r1, #208	; 0xd0
     910:	201f      	movs	r0, #31
     912:	f7ff fe8d 	bl	0x630
     916:	2105      	movs	r1, #5
     918:	2017      	movs	r0, #23
     91a:	f7ff fe89 	bl	0x630
     91e:	2109      	movs	r1, #9
     920:	2036      	movs	r0, #54	; 0x36
     922:	f7ff fe85 	bl	0x630
     926:	213f      	movs	r1, #63	; 0x3f
     928:	2028      	movs	r0, #40	; 0x28
     92a:	f7ff fe81 	bl	0x630
     92e:	2150      	movs	r1, #80	; 0x50
     930:	2016      	movs	r0, #22
     932:	f7ff fe7d 	bl	0x630
     936:	21e0      	movs	r1, #224	; 0xe0
     938:	2016      	movs	r0, #22
     93a:	f7ff fe79 	bl	0x630
     93e:	2100      	movs	r1, #0
     940:	2002      	movs	r0, #2
     942:	f7ff fe75 	bl	0x630
     946:	2100      	movs	r1, #0
     948:	2003      	movs	r0, #3
     94a:	f7ff fe71 	bl	0x630
     94e:	2100      	movs	r1, #0
     950:	2004      	movs	r0, #4
     952:	f7ff fe6d 	bl	0x630
     956:	21ef      	movs	r1, #239	; 0xef
     958:	2005      	movs	r0, #5
     95a:	f7ff fe69 	bl	0x630
     95e:	2100      	movs	r1, #0
     960:	2006      	movs	r0, #6
     962:	f7ff fe65 	bl	0x630
     966:	2100      	movs	r1, #0
     968:	2007      	movs	r0, #7
     96a:	f7ff fe61 	bl	0x630
     96e:	2101      	movs	r1, #1
     970:	2008      	movs	r0, #8
     972:	f7ff fe5d 	bl	0x630
     976:	213f      	movs	r1, #63	; 0x3f
     978:	2009      	movs	r0, #9
     97a:	f7ff fe59 	bl	0x630
     97e:	2200      	movs	r2, #0
     980:	4b0c      	ldr	r3, [pc, #48]	; (0x9b4)
     982:	601a      	str	r2, [r3, #0]
     984:	e007      	b.n	0x996
     986:	f64f 70ff 	movw	r0, #65535	; 0xffff
     98a:	f7ff fe5b 	bl	0x644
     98e:	4a09      	ldr	r2, [pc, #36]	; (0x9b4)
     990:	6813      	ldr	r3, [r2, #0]
     992:	3301      	adds	r3, #1
     994:	6013      	str	r3, [r2, #0]
     996:	4b07      	ldr	r3, [pc, #28]	; (0x9b4)
     998:	681b      	ldr	r3, [r3, #0]
     99a:	f5b3 3f96 	cmp.w	r3, #76800	; 0x12c00
     99e:	d3f2      	bcc.n	0x986
     9a0:	2200      	movs	r2, #0
     9a2:	4b04      	ldr	r3, [pc, #16]	; (0x9b4)
     9a4:	601a      	str	r2, [r3, #0]
     9a6:	f7ff fed3 	bl	0x750
     9aa:	f44f 4278 	mov.w	r2, #63488	; 0xf800
     9ae:	4b02      	ldr	r3, [pc, #8]	; (0x9b8)
     9b0:	801a      	strh	r2, [r3, #0]
     9b2:	bd08      	pop	{r3, pc}
     9b4:	00cc      	lsls	r4, r1, #3
     9b6:	2000      	movs	r0, #0
     9b8:	00c8      	lsls	r0, r1, #3
     9ba:	2000      	movs	r0, #0
     9bc:	b40f      	push	{r0, r1, r2, r3}
     9be:	b570      	push	{r4, r5, r6, lr}
     9c0:	b08c      	sub	sp, #48	; 0x30
     9c2:	ac10      	add	r4, sp, #64	; 0x40
     9c4:	f854 6b04 	ldr.w	r6, [r4], #4
     9c8:	2528      	movs	r5, #40	; 0x28
     9ca:	462a      	mov	r2, r5
     9cc:	2100      	movs	r1, #0
     9ce:	a802      	add	r0, sp, #8
     9d0:	f002 ffdb 	bl	0x398a
     9d4:	9401      	str	r4, [sp, #4]
     9d6:	4623      	mov	r3, r4
     9d8:	4632      	mov	r2, r6
     9da:	4629      	mov	r1, r5
     9dc:	a802      	add	r0, sp, #8
     9de:	f003 f809 	bl	0x39f4
     9e2:	4b0f      	ldr	r3, [pc, #60]	; (0xa20)
     9e4:	881b      	ldrh	r3, [r3, #0]
     9e6:	2b10      	cmp	r3, #16
     9e8:	d813      	bhi.n	0xa12
     9ea:	4c0d      	ldr	r4, [pc, #52]	; (0xa20)
     9ec:	8823      	ldrh	r3, [r4, #0]
     9ee:	ebc3 03c3 	rsb	r3, r3, r3, lsl #3
     9f2:	0059      	lsls	r1, r3, #1
     9f4:	b289      	uxth	r1, r1
     9f6:	3102      	adds	r1, #2
     9f8:	b289      	uxth	r1, r1
     9fa:	aa02      	add	r2, sp, #8
     9fc:	2002      	movs	r0, #2
     9fe:	f7ff fe97 	bl	0x730
     a02:	8823      	ldrh	r3, [r4, #0]
     a04:	3301      	adds	r3, #1
     a06:	8023      	strh	r3, [r4, #0]
     a08:	b00c      	add	sp, #48	; 0x30
     a0a:	e8bd 4070 	ldmia.w	sp!, {r4, r5, r6, lr}
     a0e:	b004      	add	sp, #16
     a10:	4770      	bx	lr
     a12:	2200      	movs	r2, #0
     a14:	4b02      	ldr	r3, [pc, #8]	; (0xa20)
     a16:	801a      	strh	r2, [r3, #0]
     a18:	f7ff fe9a 	bl	0x750
     a1c:	e7e5      	b.n	0x9ea
     a1e:	bf00      	nop
     a20:	00d0      	lsls	r0, r2, #3
     a22:	2000      	movs	r0, #0
     a24:	b500      	push	{lr}
     a26:	b085      	sub	sp, #20
     a28:	f44f 717a 	mov.w	r1, #1000	; 0x3e8
     a2c:	4b0b      	ldr	r3, [pc, #44]	; (0xa5c)
     a2e:	6818      	ldr	r0, [r3, #0]
     a30:	f002 fc22 	bl	0x3278
     a34:	2100      	movs	r1, #0
     a36:	480a      	ldr	r0, [pc, #40]	; (0xa60)
     a38:	f7ff ffc0 	bl	0x9bc
     a3c:	f04f 32ff 	mov.w	r2, #4294967295	; 0xffffffff
     a40:	4b08      	ldr	r3, [pc, #32]	; (0xa64)
     a42:	6819      	ldr	r1, [r3, #0]
     a44:	a801      	add	r0, sp, #4
     a46:	f002 fc8d 	bl	0x3364
     a4a:	9b01      	ldr	r3, [sp, #4]
     a4c:	2b10      	cmp	r3, #16
     a4e:	d1f5      	bne.n	0xa3c
     a50:	9902      	ldr	r1, [sp, #8]
     a52:	4803      	ldr	r0, [pc, #12]	; (0xa60)
     a54:	f7ff ffb2 	bl	0x9bc
     a58:	e7f0      	b.n	0xa3c
     a5a:	bf00      	nop
     a5c:	297c      	cmp	r1, #124	; 0x7c
     a5e:	2000      	movs	r0, #0
     a60:	96e8      	str	r6, [sp, #928]	; 0x3a0
     a62:	0800      	lsrs	r0, r0, #32
     a64:	2978      	cmp	r1, #120	; 0x78
     a66:	2000      	movs	r0, #0
     a68:	4770      	bx	lr
     a6a:	e7fe      	b.n	0xa6a
     a6c:	e7fe      	b.n	0xa6c
     a6e:	e7fe      	b.n	0xa6e
     a70:	e7fe      	b.n	0xa70
     a72:	4770      	bx	lr
     a74:	b508      	push	{r3, lr}
     a76:	4802      	ldr	r0, [pc, #8]	; (0xa80)
     a78:	f000 f95c 	bl	0xd34
     a7c:	bd08      	pop	{r3, pc}
     a7e:	bf00      	nop
     a80:	2a0c      	cmp	r2, #12
     a82:	2000      	movs	r0, #0
     a84:	b500      	push	{lr}
     a86:	b083      	sub	sp, #12
     a88:	4b11      	ldr	r3, [pc, #68]	; (0xad0)
     a8a:	699a      	ldr	r2, [r3, #24]
     a8c:	f042 0201 	orr.w	r2, r2, #1
     a90:	619a      	str	r2, [r3, #24]
     a92:	699a      	ldr	r2, [r3, #24]
     a94:	f002 0201 	and.w	r2, r2, #1
     a98:	9200      	str	r2, [sp, #0]
     a9a:	9a00      	ldr	r2, [sp, #0]
     a9c:	69da      	ldr	r2, [r3, #28]
     a9e:	f042 5280 	orr.w	r2, r2, #268435456	; 0x10000000
     aa2:	61da      	str	r2, [r3, #28]
     aa4:	69db      	ldr	r3, [r3, #28]
     aa6:	f003 5380 	and.w	r3, r3, #268435456	; 0x10000000
     aaa:	9301      	str	r3, [sp, #4]
     aac:	9b01      	ldr	r3, [sp, #4]
     aae:	2200      	movs	r2, #0
     ab0:	210f      	movs	r1, #15
     ab2:	f06f 0001 	mvn.w	r0, #1
     ab6:	f001 f80d 	bl	0x1ad4
     aba:	4a06      	ldr	r2, [pc, #24]	; (0xad4)
     abc:	6853      	ldr	r3, [r2, #4]
     abe:	f023 63e0 	bic.w	r3, r3, #117440512	; 0x7000000
     ac2:	f043 6380 	orr.w	r3, r3, #67108864	; 0x4000000
     ac6:	6053      	str	r3, [r2, #4]
     ac8:	b003      	add	sp, #12
     aca:	f85d fb04 	ldr.w	pc, [sp], #4
     ace:	bf00      	nop
     ad0:	1000      	asrs	r0, r0, #32
     ad2:	4002      	ands	r2, r0
     ad4:	0000      	movs	r0, r0
     ad6:	4001      	ands	r1, r0
     ad8:	b500      	push	{lr}
     ada:	b089      	sub	sp, #36	; 0x24
     adc:	2200      	movs	r2, #0
     ade:	4601      	mov	r1, r0
     ae0:	2019      	movs	r0, #25
     ae2:	f000 fff7 	bl	0x1ad4
     ae6:	2019      	movs	r0, #25
     ae8:	f001 f826 	bl	0x1b38
     aec:	4b14      	ldr	r3, [pc, #80]	; (0xb40)
     aee:	699a      	ldr	r2, [r3, #24]
     af0:	f442 6200 	orr.w	r2, r2, #2048	; 0x800
     af4:	619a      	str	r2, [r3, #24]
     af6:	699b      	ldr	r3, [r3, #24]
     af8:	f403 6300 	and.w	r3, r3, #2048	; 0x800
     afc:	9301      	str	r3, [sp, #4]
     afe:	9b01      	ldr	r3, [sp, #4]
     b00:	a902      	add	r1, sp, #8
     b02:	a803      	add	r0, sp, #12
     b04:	f000 feae 	bl	0x1864
     b08:	f000 fe9c 	bl	0x1844
     b0c:	4b0d      	ldr	r3, [pc, #52]	; (0xb44)
     b0e:	fba3 2300 	umull	r2, r3, r3, r0
     b12:	0c9b      	lsrs	r3, r3, #18
     b14:	3b01      	subs	r3, #1
     b16:	480c      	ldr	r0, [pc, #48]	; (0xb48)
     b18:	4a0c      	ldr	r2, [pc, #48]	; (0xb4c)
     b1a:	6002      	str	r2, [r0, #0]
     b1c:	f240 32e7 	movw	r2, #999	; 0x3e7
     b20:	60c2      	str	r2, [r0, #12]
     b22:	6043      	str	r3, [r0, #4]
     b24:	2300      	movs	r3, #0
     b26:	6103      	str	r3, [r0, #16]
     b28:	6083      	str	r3, [r0, #8]
     b2a:	f000 fa0f 	bl	0xf4c
     b2e:	b118      	cbz	r0, 0xb38
     b30:	2001      	movs	r0, #1
     b32:	b009      	add	sp, #36	; 0x24
     b34:	f85d fb04 	ldr.w	pc, [sp], #4
     b38:	4803      	ldr	r0, [pc, #12]	; (0xb48)
     b3a:	f000 f8eb 	bl	0xd14
     b3e:	e7f8      	b.n	0xb32
     b40:	1000      	asrs	r0, r0, #32
     b42:	4002      	ands	r2, r0
     b44:	de83      	udf	#131	; 0x83
     b46:	431b      	orrs	r3, r3
     b48:	2a0c      	cmp	r2, #12
     b4a:	2000      	movs	r0, #0
     b4c:	2c00      	cmp	r4, #0
     b4e:	4001      	ands	r1, r0
     b50:	4b0e      	ldr	r3, [pc, #56]	; (0xb8c)
     b52:	681a      	ldr	r2, [r3, #0]
     b54:	f042 0201 	orr.w	r2, r2, #1
     b58:	601a      	str	r2, [r3, #0]
     b5a:	6859      	ldr	r1, [r3, #4]
     b5c:	4a0c      	ldr	r2, [pc, #48]	; (0xb90)
     b5e:	400a      	ands	r2, r1
     b60:	605a      	str	r2, [r3, #4]
     b62:	681a      	ldr	r2, [r3, #0]
     b64:	f022 7284 	bic.w	r2, r2, #17301504	; 0x1080000
     b68:	f422 3280 	bic.w	r2, r2, #65536	; 0x10000
     b6c:	601a      	str	r2, [r3, #0]
     b6e:	681a      	ldr	r2, [r3, #0]
     b70:	f422 2280 	bic.w	r2, r2, #262144	; 0x40000
     b74:	601a      	str	r2, [r3, #0]
     b76:	685a      	ldr	r2, [r3, #4]
     b78:	f422 02fe 	bic.w	r2, r2, #8323072	; 0x7f0000
     b7c:	605a      	str	r2, [r3, #4]
     b7e:	f44f 021f 	mov.w	r2, #10420224	; 0x9f0000
     b82:	609a      	str	r2, [r3, #8]
     b84:	4a03      	ldr	r2, [pc, #12]	; (0xb94)
     b86:	4b04      	ldr	r3, [pc, #16]	; (0xb98)
     b88:	609a      	str	r2, [r3, #8]
     b8a:	4770      	bx	lr
     b8c:	1000      	asrs	r0, r0, #32
     b8e:	4002      	ands	r2, r0
     b90:	0000      	movs	r0, r0
     b92:	f8ff 5000 	ldr??.w	r5, [pc]	; 0xb94
     b96:	0800      	lsrs	r0, r0, #32
     b98:	ed00 e000 	stc	0, cr14, [r0, #-0]
     b9c:	b430      	push	{r4, r5}
     b9e:	680a      	ldr	r2, [r1, #0]
     ba0:	f850 3022 	ldr.w	r3, [r0, r2, lsl #2]
     ba4:	f023 0301 	bic.w	r3, r3, #1
     ba8:	f840 3022 	str.w	r3, [r0, r2, lsl #2]
     bac:	688b      	ldr	r3, [r1, #8]
     bae:	2b08      	cmp	r3, #8
     bb0:	d020      	beq.n	0xbf4
     bb2:	680c      	ldr	r4, [r1, #0]
     bb4:	f850 5024 	ldr.w	r5, [r0, r4, lsl #2]
     bb8:	4a1f      	ldr	r2, [pc, #124]	; (0xc38)
     bba:	402a      	ands	r2, r5
     bbc:	684d      	ldr	r5, [r1, #4]
     bbe:	432b      	orrs	r3, r5
     bc0:	68cd      	ldr	r5, [r1, #12]
     bc2:	432b      	orrs	r3, r5
     bc4:	690d      	ldr	r5, [r1, #16]
     bc6:	432b      	orrs	r3, r5
     bc8:	694d      	ldr	r5, [r1, #20]
     bca:	432b      	orrs	r3, r5
     bcc:	698d      	ldr	r5, [r1, #24]
     bce:	432b      	orrs	r3, r5
     bd0:	69cd      	ldr	r5, [r1, #28]
     bd2:	432b      	orrs	r3, r5
     bd4:	6a0d      	ldr	r5, [r1, #32]
     bd6:	432b      	orrs	r3, r5
     bd8:	6a4d      	ldr	r5, [r1, #36]	; 0x24
     bda:	432b      	orrs	r3, r5
     bdc:	6a8d      	ldr	r5, [r1, #40]	; 0x28
     bde:	432b      	orrs	r3, r5
     be0:	6acd      	ldr	r5, [r1, #44]	; 0x2c
     be2:	432b      	orrs	r3, r5
     be4:	6b09      	ldr	r1, [r1, #48]	; 0x30
     be6:	430b      	orrs	r3, r1
     be8:	4313      	orrs	r3, r2
     bea:	f840 3024 	str.w	r3, [r0, r4, lsl #2]
     bee:	2000      	movs	r0, #0
     bf0:	bc30      	pop	{r4, r5}
     bf2:	4770      	bx	lr
     bf4:	680c      	ldr	r4, [r1, #0]
     bf6:	f850 5024 	ldr.w	r5, [r0, r4, lsl #2]
     bfa:	4a0f      	ldr	r2, [pc, #60]	; (0xc38)
     bfc:	402a      	ands	r2, r5
     bfe:	684d      	ldr	r5, [r1, #4]
     c00:	432b      	orrs	r3, r5
     c02:	68cd      	ldr	r5, [r1, #12]
     c04:	432b      	orrs	r3, r5
     c06:	690d      	ldr	r5, [r1, #16]
     c08:	432b      	orrs	r3, r5
     c0a:	694d      	ldr	r5, [r1, #20]
     c0c:	432b      	orrs	r3, r5
     c0e:	698d      	ldr	r5, [r1, #24]
     c10:	432b      	orrs	r3, r5
     c12:	69cd      	ldr	r5, [r1, #28]
     c14:	432b      	orrs	r3, r5
     c16:	6a0d      	ldr	r5, [r1, #32]
     c18:	432b      	orrs	r3, r5
     c1a:	6a4d      	ldr	r5, [r1, #36]	; 0x24
     c1c:	432b      	orrs	r3, r5
     c1e:	6a8d      	ldr	r5, [r1, #40]	; 0x28
     c20:	432b      	orrs	r3, r5
     c22:	6acd      	ldr	r5, [r1, #44]	; 0x2c
     c24:	432b      	orrs	r3, r5
     c26:	6b09      	ldr	r1, [r1, #48]	; 0x30
     c28:	430b      	orrs	r3, r1
     c2a:	4313      	orrs	r3, r2
     c2c:	f043 0340 	orr.w	r3, r3, #64	; 0x40
     c30:	f840 3024 	str.w	r3, [r0, r4, lsl #2]
     c34:	e7db      	b.n	0xbee
     c36:	bf00      	nop
     c38:	0081      	lsls	r1, r0, #2
     c3a:	fff7 b430 	vsri.32	d27, d16, #9
     c3e:	3201      	adds	r2, #1
     c40:	f850 4022 	ldr.w	r4, [r0, r2, lsl #2]
     c44:	f004 4440 	and.w	r4, r4, #3221225472	; 0xc0000000
     c48:	680b      	ldr	r3, [r1, #0]
     c4a:	684d      	ldr	r5, [r1, #4]
     c4c:	ea43 1305 	orr.w	r3, r3, r5, lsl #4
     c50:	688d      	ldr	r5, [r1, #8]
     c52:	ea43 2305 	orr.w	r3, r3, r5, lsl #8
     c56:	68cd      	ldr	r5, [r1, #12]
     c58:	ea43 4305 	orr.w	r3, r3, r5, lsl #16
     c5c:	690d      	ldr	r5, [r1, #16]
     c5e:	3d01      	subs	r5, #1
     c60:	ea43 5305 	orr.w	r3, r3, r5, lsl #20
     c64:	694d      	ldr	r5, [r1, #20]
     c66:	3d02      	subs	r5, #2
     c68:	ea43 6305 	orr.w	r3, r3, r5, lsl #24
     c6c:	6989      	ldr	r1, [r1, #24]
     c6e:	430b      	orrs	r3, r1
     c70:	4323      	orrs	r3, r4
     c72:	f840 3022 	str.w	r3, [r0, r2, lsl #2]
     c76:	2000      	movs	r0, #0
     c78:	bc30      	pop	{r4, r5}
     c7a:	4770      	bx	lr
     c7c:	f5b3 4f80 	cmp.w	r3, #16384	; 0x4000
     c80:	d005      	beq.n	0xc8e
     c82:	f06f 4370 	mvn.w	r3, #4026531840	; 0xf0000000
     c86:	f840 3022 	str.w	r3, [r0, r2, lsl #2]
     c8a:	2000      	movs	r0, #0
     c8c:	4770      	bx	lr
     c8e:	b430      	push	{r4, r5}
     c90:	f850 3022 	ldr.w	r3, [r0, r2, lsl #2]
     c94:	4c09      	ldr	r4, [pc, #36]	; (0xcbc)
     c96:	401c      	ands	r4, r3
     c98:	680b      	ldr	r3, [r1, #0]
     c9a:	684d      	ldr	r5, [r1, #4]
     c9c:	ea43 1305 	orr.w	r3, r3, r5, lsl #4
     ca0:	688d      	ldr	r5, [r1, #8]
     ca2:	ea43 2305 	orr.w	r3, r3, r5, lsl #8
     ca6:	698d      	ldr	r5, [r1, #24]
     ca8:	432b      	orrs	r3, r5
     caa:	68c9      	ldr	r1, [r1, #12]
     cac:	ea43 4301 	orr.w	r3, r3, r1, lsl #16
     cb0:	4323      	orrs	r3, r4
     cb2:	f840 3022 	str.w	r3, [r0, r2, lsl #2]
     cb6:	2000      	movs	r0, #0
     cb8:	bc30      	pop	{r4, r5}
     cba:	4770      	bx	lr
     cbc:	0000      	movs	r0, r0
     cbe:	cff0      	ldmia	r7, {r4, r5, r6, r7}
     cc0:	b328      	cbz	r0, 0xd0e
     cc2:	b570      	push	{r4, r5, r6, lr}
     cc4:	4604      	mov	r4, r0
     cc6:	4615      	mov	r5, r2
     cc8:	460e      	mov	r6, r1
     cca:	f890 303d 	ldrb.w	r3, [r0, #61]	; 0x3d
     cce:	b1cb      	cbz	r3, 0xd04
     cd0:	f104 0108 	add.w	r1, r4, #8
     cd4:	6820      	ldr	r0, [r4, #0]
     cd6:	f7ff ff61 	bl	0xb9c
     cda:	68a2      	ldr	r2, [r4, #8]
     cdc:	4631      	mov	r1, r6
     cde:	6820      	ldr	r0, [r4, #0]
     ce0:	f7ff ffac 	bl	0xc3c
     ce4:	6b23      	ldr	r3, [r4, #48]	; 0x30
     ce6:	68a2      	ldr	r2, [r4, #8]
     ce8:	4629      	mov	r1, r5
     cea:	6860      	ldr	r0, [r4, #4]
     cec:	f7ff ffc6 	bl	0xc7c
     cf0:	6822      	ldr	r2, [r4, #0]
     cf2:	68a1      	ldr	r1, [r4, #8]
     cf4:	f852 3021 	ldr.w	r3, [r2, r1, lsl #2]
     cf8:	f043 0301 	orr.w	r3, r3, #1
     cfc:	f842 3021 	str.w	r3, [r2, r1, lsl #2]
     d00:	2000      	movs	r0, #0
     d02:	bd70      	pop	{r4, r5, r6, pc}
     d04:	f880 303c 	strb.w	r3, [r0, #60]	; 0x3c
     d08:	f7ff fc38 	bl	0x57c
     d0c:	e7e0      	b.n	0xcd0
     d0e:	2001      	movs	r0, #1
     d10:	4770      	bx	lr
     d12:	4770      	bx	lr
     d14:	6802      	ldr	r2, [r0, #0]
     d16:	68d3      	ldr	r3, [r2, #12]
     d18:	f043 0301 	orr.w	r3, r3, #1
     d1c:	60d3      	str	r3, [r2, #12]
     d1e:	6802      	ldr	r2, [r0, #0]
     d20:	6813      	ldr	r3, [r2, #0]
     d22:	f043 0301 	orr.w	r3, r3, #1
     d26:	6013      	str	r3, [r2, #0]
     d28:	2000      	movs	r0, #0
     d2a:	4770      	bx	lr
     d2c:	4770      	bx	lr
     d2e:	4770      	bx	lr
     d30:	4770      	bx	lr
     d32:	4770      	bx	lr
     d34:	b510      	push	{r4, lr}
     d36:	4604      	mov	r4, r0
     d38:	6803      	ldr	r3, [r0, #0]
     d3a:	691a      	ldr	r2, [r3, #16]
     d3c:	f012 0f02 	tst.w	r2, #2
     d40:	d011      	beq.n	0xd66
     d42:	68da      	ldr	r2, [r3, #12]
     d44:	f012 0f02 	tst.w	r2, #2
     d48:	d00d      	beq.n	0xd66
     d4a:	f06f 0202 	mvn.w	r2, #2
     d4e:	611a      	str	r2, [r3, #16]
     d50:	2301      	movs	r3, #1
     d52:	7703      	strb	r3, [r0, #28]
     d54:	6803      	ldr	r3, [r0, #0]
     d56:	699b      	ldr	r3, [r3, #24]
     d58:	f013 0f03 	tst.w	r3, #3
     d5c:	d070      	beq.n	0xe40
     d5e:	f7ff ffe6 	bl	0xd2e
     d62:	2300      	movs	r3, #0
     d64:	7723      	strb	r3, [r4, #28]
     d66:	6823      	ldr	r3, [r4, #0]
     d68:	691a      	ldr	r2, [r3, #16]
     d6a:	f012 0f04 	tst.w	r2, #4
     d6e:	d012      	beq.n	0xd96
     d70:	68da      	ldr	r2, [r3, #12]
     d72:	f012 0f04 	tst.w	r2, #4
     d76:	d00e      	beq.n	0xd96
     d78:	f06f 0204 	mvn.w	r2, #4
     d7c:	611a      	str	r2, [r3, #16]
     d7e:	2302      	movs	r3, #2
     d80:	7723      	strb	r3, [r4, #28]
     d82:	6823      	ldr	r3, [r4, #0]
     d84:	699b      	ldr	r3, [r3, #24]
     d86:	f413 7f40 	tst.w	r3, #768	; 0x300
     d8a:	d05f      	beq.n	0xe4c
     d8c:	4620      	mov	r0, r4
     d8e:	f7ff ffce 	bl	0xd2e
     d92:	2300      	movs	r3, #0
     d94:	7723      	strb	r3, [r4, #28]
     d96:	6823      	ldr	r3, [r4, #0]
     d98:	691a      	ldr	r2, [r3, #16]
     d9a:	f012 0f08 	tst.w	r2, #8
     d9e:	d012      	beq.n	0xdc6
     da0:	68da      	ldr	r2, [r3, #12]
     da2:	f012 0f08 	tst.w	r2, #8
     da6:	d00e      	beq.n	0xdc6
     da8:	f06f 0208 	mvn.w	r2, #8
     dac:	611a      	str	r2, [r3, #16]
     dae:	2304      	movs	r3, #4
     db0:	7723      	strb	r3, [r4, #28]
     db2:	6823      	ldr	r3, [r4, #0]
     db4:	69db      	ldr	r3, [r3, #28]
     db6:	f013 0f03 	tst.w	r3, #3
     dba:	d04e      	beq.n	0xe5a
     dbc:	4620      	mov	r0, r4
     dbe:	f7ff ffb6 	bl	0xd2e
     dc2:	2300      	movs	r3, #0
     dc4:	7723      	strb	r3, [r4, #28]
     dc6:	6823      	ldr	r3, [r4, #0]
     dc8:	691a      	ldr	r2, [r3, #16]
     dca:	f012 0f10 	tst.w	r2, #16
     dce:	d012      	beq.n	0xdf6
     dd0:	68da      	ldr	r2, [r3, #12]
     dd2:	f012 0f10 	tst.w	r2, #16
     dd6:	d00e      	beq.n	0xdf6
     dd8:	f06f 0210 	mvn.w	r2, #16
     ddc:	611a      	str	r2, [r3, #16]
     dde:	2308      	movs	r3, #8
     de0:	7723      	strb	r3, [r4, #28]
     de2:	6823      	ldr	r3, [r4, #0]
     de4:	69db      	ldr	r3, [r3, #28]
     de6:	f413 7f40 	tst.w	r3, #768	; 0x300
     dea:	d03d      	beq.n	0xe68
     dec:	4620      	mov	r0, r4
     dee:	f7ff ff9e 	bl	0xd2e
     df2:	2300      	movs	r3, #0
     df4:	7723      	strb	r3, [r4, #28]
     df6:	6823      	ldr	r3, [r4, #0]
     df8:	691a      	ldr	r2, [r3, #16]
     dfa:	f012 0f01 	tst.w	r2, #1
     dfe:	d003      	beq.n	0xe08
     e00:	68da      	ldr	r2, [r3, #12]
     e02:	f012 0f01 	tst.w	r2, #1
     e06:	d136      	bne.n	0xe76
     e08:	6823      	ldr	r3, [r4, #0]
     e0a:	691a      	ldr	r2, [r3, #16]
     e0c:	f012 0f80 	tst.w	r2, #128	; 0x80
     e10:	d003      	beq.n	0xe1a
     e12:	68da      	ldr	r2, [r3, #12]
     e14:	f012 0f80 	tst.w	r2, #128	; 0x80
     e18:	d134      	bne.n	0xe84
     e1a:	6823      	ldr	r3, [r4, #0]
     e1c:	691a      	ldr	r2, [r3, #16]
     e1e:	f012 0f40 	tst.w	r2, #64	; 0x40
     e22:	d003      	beq.n	0xe2c
     e24:	68da      	ldr	r2, [r3, #12]
     e26:	f012 0f40 	tst.w	r2, #64	; 0x40
     e2a:	d132      	bne.n	0xe92
     e2c:	6823      	ldr	r3, [r4, #0]
     e2e:	691a      	ldr	r2, [r3, #16]
     e30:	f012 0f20 	tst.w	r2, #32
     e34:	d003      	beq.n	0xe3e
     e36:	68da      	ldr	r2, [r3, #12]
     e38:	f012 0f20 	tst.w	r2, #32
     e3c:	d130      	bne.n	0xea0
     e3e:	bd10      	pop	{r4, pc}
     e40:	f7ff ff74 	bl	0xd2c
     e44:	4620      	mov	r0, r4
     e46:	f7ff ff73 	bl	0xd30
     e4a:	e78a      	b.n	0xd62
     e4c:	4620      	mov	r0, r4
     e4e:	f7ff ff6d 	bl	0xd2c
     e52:	4620      	mov	r0, r4
     e54:	f7ff ff6c 	bl	0xd30
     e58:	e79b      	b.n	0xd92
     e5a:	4620      	mov	r0, r4
     e5c:	f7ff ff66 	bl	0xd2c
     e60:	4620      	mov	r0, r4
     e62:	f7ff ff65 	bl	0xd30
     e66:	e7ac      	b.n	0xdc2
     e68:	4620      	mov	r0, r4
     e6a:	f7ff ff5f 	bl	0xd2c
     e6e:	4620      	mov	r0, r4
     e70:	f7ff ff5e 	bl	0xd30
     e74:	e7bd      	b.n	0xdf2
     e76:	f06f 0201 	mvn.w	r2, #1
     e7a:	611a      	str	r2, [r3, #16]
     e7c:	4620      	mov	r0, r4
     e7e:	f7ff fa13 	bl	0x2a8
     e82:	e7c1      	b.n	0xe08
     e84:	f06f 0280 	mvn.w	r2, #128	; 0x80
     e88:	611a      	str	r2, [r3, #16]
     e8a:	4620      	mov	r0, r4
     e8c:	f000 f878 	bl	0xf80
     e90:	e7c3      	b.n	0xe1a
     e92:	f06f 0240 	mvn.w	r2, #64	; 0x40
     e96:	611a      	str	r2, [r3, #16]
     e98:	4620      	mov	r0, r4
     e9a:	f7ff ff4a 	bl	0xd32
     e9e:	e7c5      	b.n	0xe2c
     ea0:	f06f 0220 	mvn.w	r2, #32
     ea4:	611a      	str	r2, [r3, #16]
     ea6:	4620      	mov	r0, r4
     ea8:	f000 f869 	bl	0xf7e
     eac:	e7c7      	b.n	0xe3e
     eae:	0000      	movs	r0, r0
     eb0:	6803      	ldr	r3, [r0, #0]
     eb2:	4a25      	ldr	r2, [pc, #148]	; (0xf48)
     eb4:	4290      	cmp	r0, r2
     eb6:	d012      	beq.n	0xede
     eb8:	f502 6200 	add.w	r2, r2, #2048	; 0x800
     ebc:	4290      	cmp	r0, r2
     ebe:	d00e      	beq.n	0xede
     ec0:	f1b0 4f80 	cmp.w	r0, #1073741824	; 0x40000000
     ec4:	d00b      	beq.n	0xede
     ec6:	f5a2 3298 	sub.w	r2, r2, #77824	; 0x13000
     eca:	4290      	cmp	r0, r2
     ecc:	d007      	beq.n	0xede
     ece:	f502 6280 	add.w	r2, r2, #1024	; 0x400
     ed2:	4290      	cmp	r0, r2
     ed4:	d003      	beq.n	0xede
     ed6:	f502 6280 	add.w	r2, r2, #1024	; 0x400
     eda:	4290      	cmp	r0, r2
     edc:	d103      	bne.n	0xee6
     ede:	f023 0370 	bic.w	r3, r3, #112	; 0x70
     ee2:	684a      	ldr	r2, [r1, #4]
     ee4:	4313      	orrs	r3, r2
     ee6:	4a18      	ldr	r2, [pc, #96]	; (0xf48)
     ee8:	4290      	cmp	r0, r2
     eea:	d012      	beq.n	0xf12
     eec:	f502 6200 	add.w	r2, r2, #2048	; 0x800
     ef0:	4290      	cmp	r0, r2
     ef2:	d00e      	beq.n	0xf12
     ef4:	f1b0 4f80 	cmp.w	r0, #1073741824	; 0x40000000
     ef8:	d00b      	beq.n	0xf12
     efa:	f5a2 3298 	sub.w	r2, r2, #77824	; 0x13000
     efe:	4290      	cmp	r0, r2
     f00:	d007      	beq.n	0xf12
     f02:	f502 6280 	add.w	r2, r2, #1024	; 0x400
     f06:	4290      	cmp	r0, r2
     f08:	d003      	beq.n	0xf12
     f0a:	f502 6280 	add.w	r2, r2, #1024	; 0x400
     f0e:	4290      	cmp	r0, r2
     f10:	d103      	bne.n	0xf1a
     f12:	f423 7340 	bic.w	r3, r3, #768	; 0x300
     f16:	68ca      	ldr	r2, [r1, #12]
     f18:	4313      	orrs	r3, r2
     f1a:	f023 0380 	bic.w	r3, r3, #128	; 0x80
     f1e:	694a      	ldr	r2, [r1, #20]
     f20:	4313      	orrs	r3, r2
     f22:	6003      	str	r3, [r0, #0]
     f24:	688b      	ldr	r3, [r1, #8]
     f26:	62c3      	str	r3, [r0, #44]	; 0x2c
     f28:	680b      	ldr	r3, [r1, #0]
     f2a:	6283      	str	r3, [r0, #40]	; 0x28
     f2c:	4b06      	ldr	r3, [pc, #24]	; (0xf48)
     f2e:	4298      	cmp	r0, r3
     f30:	d006      	beq.n	0xf40
     f32:	f503 6300 	add.w	r3, r3, #2048	; 0x800
     f36:	4298      	cmp	r0, r3
     f38:	d002      	beq.n	0xf40
     f3a:	2301      	movs	r3, #1
     f3c:	6143      	str	r3, [r0, #20]
     f3e:	4770      	bx	lr
     f40:	690b      	ldr	r3, [r1, #16]
     f42:	6303      	str	r3, [r0, #48]	; 0x30
     f44:	e7f9      	b.n	0xf3a
     f46:	bf00      	nop
     f48:	2c00      	cmp	r4, #0
     f4a:	4001      	ands	r1, r0
     f4c:	b1a8      	cbz	r0, 0xf7a
     f4e:	b510      	push	{r4, lr}
     f50:	4604      	mov	r4, r0
     f52:	f890 303d 	ldrb.w	r3, [r0, #61]	; 0x3d
     f56:	b15b      	cbz	r3, 0xf70
     f58:	2302      	movs	r3, #2
     f5a:	f884 303d 	strb.w	r3, [r4, #61]	; 0x3d
     f5e:	1d21      	adds	r1, r4, #4
     f60:	6820      	ldr	r0, [r4, #0]
     f62:	f7ff ffa5 	bl	0xeb0
     f66:	2301      	movs	r3, #1
     f68:	f884 303d 	strb.w	r3, [r4, #61]	; 0x3d
     f6c:	2000      	movs	r0, #0
     f6e:	bd10      	pop	{r4, pc}
     f70:	f880 303c 	strb.w	r3, [r0, #60]	; 0x3c
     f74:	f7ff fecd 	bl	0xd12
     f78:	e7ee      	b.n	0xf58
     f7a:	2001      	movs	r0, #1
     f7c:	4770      	bx	lr
     f7e:	4770      	bx	lr
     f80:	4770      	bx	lr
     f82:	0000      	movs	r0, r0
     f84:	e92d 47f0 	stmdb	sp!, {r4, r5, r6, r7, r8, r9, sl, lr}
     f88:	4605      	mov	r5, r0
     f8a:	6802      	ldr	r2, [r0, #0]
     f8c:	6913      	ldr	r3, [r2, #16]
     f8e:	f423 5340 	bic.w	r3, r3, #12288	; 0x3000
     f92:	68c1      	ldr	r1, [r0, #12]
     f94:	430b      	orrs	r3, r1
     f96:	6113      	str	r3, [r2, #16]
     f98:	6883      	ldr	r3, [r0, #8]
     f9a:	6902      	ldr	r2, [r0, #16]
     f9c:	4313      	orrs	r3, r2
     f9e:	6942      	ldr	r2, [r0, #20]
     fa0:	4313      	orrs	r3, r2
     fa2:	6801      	ldr	r1, [r0, #0]
     fa4:	68ca      	ldr	r2, [r1, #12]
     fa6:	f422 52b0 	bic.w	r2, r2, #5632	; 0x1600
     faa:	f022 020c 	bic.w	r2, r2, #12
     fae:	4313      	orrs	r3, r2
     fb0:	60cb      	str	r3, [r1, #12]
     fb2:	6802      	ldr	r2, [r0, #0]
     fb4:	6953      	ldr	r3, [r2, #20]
     fb6:	f423 7340 	bic.w	r3, r3, #768	; 0x300
     fba:	6981      	ldr	r1, [r0, #24]
     fbc:	430b      	orrs	r3, r1
     fbe:	6153      	str	r3, [r2, #20]
     fc0:	f8d0 8000 	ldr.w	r8, [r0]
     fc4:	4b59      	ldr	r3, [pc, #356]	; (0x112c)
     fc6:	4598      	cmp	r8, r3
     fc8:	d057      	beq.n	0x107a
     fca:	f000 fc2b 	bl	0x1824
     fce:	eb00 0080 	add.w	r0, r0, r0, lsl #2
     fd2:	eb00 0080 	add.w	r0, r0, r0, lsl #2
     fd6:	686c      	ldr	r4, [r5, #4]
     fd8:	00a4      	lsls	r4, r4, #2
     fda:	fbb0 f4f4 	udiv	r4, r0, r4
     fde:	4f54      	ldr	r7, [pc, #336]	; (0x1130)
     fe0:	fba7 3404 	umull	r3, r4, r7, r4
     fe4:	0964      	lsrs	r4, r4, #5
     fe6:	0126      	lsls	r6, r4, #4
     fe8:	f000 fc1c 	bl	0x1824
     fec:	eb00 0080 	add.w	r0, r0, r0, lsl #2
     ff0:	eb00 0080 	add.w	r0, r0, r0, lsl #2
     ff4:	686c      	ldr	r4, [r5, #4]
     ff6:	00a4      	lsls	r4, r4, #2
     ff8:	fbb0 faf4 	udiv	sl, r0, r4
     ffc:	f000 fc12 	bl	0x1824
    1000:	eb00 0080 	add.w	r0, r0, r0, lsl #2
    1004:	eb00 0080 	add.w	r0, r0, r0, lsl #2
    1008:	686c      	ldr	r4, [r5, #4]
    100a:	00a4      	lsls	r4, r4, #2
    100c:	fbb0 f4f4 	udiv	r4, r0, r4
    1010:	fba7 3404 	umull	r3, r4, r7, r4
    1014:	0964      	lsrs	r4, r4, #5
    1016:	f04f 0964 	mov.w	r9, #100	; 0x64
    101a:	fb09 a414 	mls	r4, r9, r4, sl
    101e:	0124      	lsls	r4, r4, #4
    1020:	3432      	adds	r4, #50	; 0x32
    1022:	fba7 3404 	umull	r3, r4, r7, r4
    1026:	0964      	lsrs	r4, r4, #5
    1028:	f004 04f0 	and.w	r4, r4, #240	; 0xf0
    102c:	4434      	add	r4, r6
    102e:	f000 fbf9 	bl	0x1824
    1032:	eb00 0080 	add.w	r0, r0, r0, lsl #2
    1036:	eb00 0080 	add.w	r0, r0, r0, lsl #2
    103a:	686e      	ldr	r6, [r5, #4]
    103c:	00b6      	lsls	r6, r6, #2
    103e:	fbb0 f6f6 	udiv	r6, r0, r6
    1042:	f000 fbef 	bl	0x1824
    1046:	eb00 0080 	add.w	r0, r0, r0, lsl #2
    104a:	eb00 0080 	add.w	r0, r0, r0, lsl #2
    104e:	686b      	ldr	r3, [r5, #4]
    1050:	009b      	lsls	r3, r3, #2
    1052:	fbb0 f0f3 	udiv	r0, r0, r3
    1056:	fba7 3000 	umull	r3, r0, r7, r0
    105a:	0940      	lsrs	r0, r0, #5
    105c:	fb09 6910 	mls	r9, r9, r0, r6
    1060:	ea4f 1909 	mov.w	r9, r9, lsl #4
    1064:	f109 0932 	add.w	r9, r9, #50	; 0x32
    1068:	fba7 3709 	umull	r3, r7, r7, r9
    106c:	f3c7 1743 	ubfx	r7, r7, #5, #4
    1070:	4427      	add	r7, r4
    1072:	f8c8 7008 	str.w	r7, [r8, #8]
    1076:	e8bd 87f0 	ldmia.w	sp!, {r4, r5, r6, r7, r8, r9, sl, pc}
    107a:	f000 fbe3 	bl	0x1844
    107e:	eb00 0080 	add.w	r0, r0, r0, lsl #2
    1082:	eb00 0080 	add.w	r0, r0, r0, lsl #2
    1086:	686c      	ldr	r4, [r5, #4]
    1088:	00a4      	lsls	r4, r4, #2
    108a:	fbb0 f4f4 	udiv	r4, r0, r4
    108e:	4f28      	ldr	r7, [pc, #160]	; (0x1130)
    1090:	fba7 3404 	umull	r3, r4, r7, r4
    1094:	0964      	lsrs	r4, r4, #5
    1096:	0126      	lsls	r6, r4, #4
    1098:	f000 fbd4 	bl	0x1844
    109c:	eb00 0080 	add.w	r0, r0, r0, lsl #2
    10a0:	eb00 0080 	add.w	r0, r0, r0, lsl #2
    10a4:	686c      	ldr	r4, [r5, #4]
    10a6:	00a4      	lsls	r4, r4, #2
    10a8:	fbb0 faf4 	udiv	sl, r0, r4
    10ac:	f000 fbca 	bl	0x1844
    10b0:	eb00 0080 	add.w	r0, r0, r0, lsl #2
    10b4:	eb00 0080 	add.w	r0, r0, r0, lsl #2
    10b8:	686c      	ldr	r4, [r5, #4]
    10ba:	00a4      	lsls	r4, r4, #2
    10bc:	fbb0 f4f4 	udiv	r4, r0, r4
    10c0:	fba7 3404 	umull	r3, r4, r7, r4
    10c4:	0964      	lsrs	r4, r4, #5
    10c6:	f04f 0964 	mov.w	r9, #100	; 0x64
    10ca:	fb09 a414 	mls	r4, r9, r4, sl
    10ce:	0124      	lsls	r4, r4, #4
    10d0:	3432      	adds	r4, #50	; 0x32
    10d2:	fba7 3404 	umull	r3, r4, r7, r4
    10d6:	0964      	lsrs	r4, r4, #5
    10d8:	f004 04f0 	and.w	r4, r4, #240	; 0xf0
    10dc:	4434      	add	r4, r6
    10de:	f000 fbb1 	bl	0x1844
    10e2:	eb00 0080 	add.w	r0, r0, r0, lsl #2
    10e6:	eb00 0080 	add.w	r0, r0, r0, lsl #2
    10ea:	686e      	ldr	r6, [r5, #4]
    10ec:	00b6      	lsls	r6, r6, #2
    10ee:	fbb0 f6f6 	udiv	r6, r0, r6
    10f2:	f000 fba7 	bl	0x1844
    10f6:	eb00 0080 	add.w	r0, r0, r0, lsl #2
    10fa:	eb00 0080 	add.w	r0, r0, r0, lsl #2
    10fe:	686b      	ldr	r3, [r5, #4]
    1100:	009b      	lsls	r3, r3, #2
    1102:	fbb0 f3f3 	udiv	r3, r0, r3
    1106:	fba7 2303 	umull	r2, r3, r7, r3
    110a:	095b      	lsrs	r3, r3, #5
    110c:	fb09 6913 	mls	r9, r9, r3, r6
    1110:	ea4f 1909 	mov.w	r9, r9, lsl #4
    1114:	f109 0932 	add.w	r9, r9, #50	; 0x32
    1118:	fba7 3709 	umull	r3, r7, r7, r9
    111c:	f3c7 1743 	ubfx	r7, r7, #5, #4
    1120:	4427      	add	r7, r4
    1122:	f8c8 7008 	str.w	r7, [r8, #8]
    1126:	e8bd 87f0 	ldmia.w	sp!, {r4, r5, r6, r7, r8, r9, sl, pc}
    112a:	bf00      	nop
    112c:	3800      	subs	r0, #0
    112e:	4001      	ands	r1, r0
    1130:	851f      	strh	r7, [r3, #40]	; 0x28
    1132:	51eb      	str	r3, [r5, r7]
    1134:	b358      	cbz	r0, 0x118e
    1136:	b510      	push	{r4, lr}
    1138:	4604      	mov	r4, r0
    113a:	f890 3039 	ldrb.w	r3, [r0, #57]	; 0x39
    113e:	b30b      	cbz	r3, 0x1184
    1140:	2324      	movs	r3, #36	; 0x24
    1142:	f884 3039 	strb.w	r3, [r4, #57]	; 0x39
    1146:	6822      	ldr	r2, [r4, #0]
    1148:	68d3      	ldr	r3, [r2, #12]
    114a:	f423 5300 	bic.w	r3, r3, #8192	; 0x2000
    114e:	60d3      	str	r3, [r2, #12]
    1150:	4620      	mov	r0, r4
    1152:	f7ff ff17 	bl	0xf84
    1156:	6822      	ldr	r2, [r4, #0]
    1158:	6913      	ldr	r3, [r2, #16]
    115a:	f423 4390 	bic.w	r3, r3, #18432	; 0x4800
    115e:	6113      	str	r3, [r2, #16]
    1160:	6822      	ldr	r2, [r4, #0]
    1162:	6953      	ldr	r3, [r2, #20]
    1164:	f023 032a 	bic.w	r3, r3, #42	; 0x2a
    1168:	6153      	str	r3, [r2, #20]
    116a:	6822      	ldr	r2, [r4, #0]
    116c:	68d3      	ldr	r3, [r2, #12]
    116e:	f443 5300 	orr.w	r3, r3, #8192	; 0x2000
    1172:	60d3      	str	r3, [r2, #12]
    1174:	2000      	movs	r0, #0
    1176:	63e0      	str	r0, [r4, #60]	; 0x3c
    1178:	2320      	movs	r3, #32
    117a:	f884 3039 	strb.w	r3, [r4, #57]	; 0x39
    117e:	f884 303a 	strb.w	r3, [r4, #58]	; 0x3a
    1182:	bd10      	pop	{r4, pc}
    1184:	f880 3038 	strb.w	r3, [r0, #56]	; 0x38
    1188:	f7ff fa16 	bl	0x5b8
    118c:	e7d8      	b.n	0x1140
    118e:	2001      	movs	r0, #1
    1190:	4770      	bx	lr
    1192:	0000      	movs	r0, r0
    1194:	b508      	push	{r3, lr}
    1196:	4a07      	ldr	r2, [pc, #28]	; (0x11b4)
    1198:	6813      	ldr	r3, [r2, #0]
    119a:	f043 0310 	orr.w	r3, r3, #16
    119e:	6013      	str	r3, [r2, #0]
    11a0:	2003      	movs	r0, #3
    11a2:	f000 fc85 	bl	0x1ab0
    11a6:	2000      	movs	r0, #0
    11a8:	f7ff fc96 	bl	0xad8
    11ac:	f7ff fc6a 	bl	0xa84
    11b0:	2000      	movs	r0, #0
    11b2:	bd08      	pop	{r3, pc}
    11b4:	2000      	movs	r0, #0
    11b6:	4002      	ands	r2, r0
    11b8:	4a03      	ldr	r2, [pc, #12]	; (0x11c8)
    11ba:	6811      	ldr	r1, [r2, #0]
    11bc:	4b03      	ldr	r3, [pc, #12]	; (0x11cc)
    11be:	781b      	ldrb	r3, [r3, #0]
    11c0:	440b      	add	r3, r1
    11c2:	6013      	str	r3, [r2, #0]
    11c4:	4770      	bx	lr
    11c6:	bf00      	nop
    11c8:	2a4c      	cmp	r2, #76	; 0x4c
    11ca:	2000      	movs	r0, #0
    11cc:	003c      	movs	r4, r7
    11ce:	2000      	movs	r0, #0
    11d0:	4b01      	ldr	r3, [pc, #4]	; (0x11d8)
    11d2:	6818      	ldr	r0, [r3, #0]
    11d4:	4770      	bx	lr
    11d6:	bf00      	nop
    11d8:	2a4c      	cmp	r2, #76	; 0x4c
    11da:	2000      	movs	r0, #0
    11dc:	b538      	push	{r3, r4, r5, lr}
    11de:	4604      	mov	r4, r0
    11e0:	f7ff fff6 	bl	0x11d0
    11e4:	4605      	mov	r5, r0
    11e6:	f1b4 3fff 	cmp.w	r4, #4294967295	; 0xffffffff
    11ea:	d002      	beq.n	0x11f2
    11ec:	4b04      	ldr	r3, [pc, #16]	; (0x1200)
    11ee:	781b      	ldrb	r3, [r3, #0]
    11f0:	441c      	add	r4, r3
    11f2:	f7ff ffed 	bl	0x11d0
    11f6:	1b40      	subs	r0, r0, r5
    11f8:	4284      	cmp	r4, r0
    11fa:	d8fa      	bhi.n	0x11f2
    11fc:	bd38      	pop	{r3, r4, r5, pc}
    11fe:	bf00      	nop
    1200:	003c      	movs	r4, r7
    1202:	2000      	movs	r0, #0
    1204:	b082      	sub	sp, #8
    1206:	4b08      	ldr	r3, [pc, #32]	; (0x1228)
    1208:	681b      	ldr	r3, [r3, #0]
    120a:	4a08      	ldr	r2, [pc, #32]	; (0x122c)
    120c:	fba2 2303 	umull	r2, r3, r2, r3
    1210:	0a5b      	lsrs	r3, r3, #9
    1212:	fb00 f003 	mul.w	r0, r0, r3
    1216:	9001      	str	r0, [sp, #4]
    1218:	bf00      	nop
    121a:	9b01      	ldr	r3, [sp, #4]
    121c:	1e5a      	subs	r2, r3, #1
    121e:	9201      	str	r2, [sp, #4]
    1220:	2b00      	cmp	r3, #0
    1222:	d1f9      	bne.n	0x1218
    1224:	b002      	add	sp, #8
    1226:	4770      	bx	lr
    1228:	0038      	movs	r0, r7
    122a:	2000      	movs	r0, #0
    122c:	4dd3      	ldr	r5, [pc, #844]	; (0x157c)
    122e:	1062      	asrs	r2, r4, #1
    1230:	b570      	push	{r4, r5, r6, lr}
    1232:	b082      	sub	sp, #8
    1234:	4604      	mov	r4, r0
    1236:	6803      	ldr	r3, [r0, #0]
    1238:	f013 0f01 	tst.w	r3, #1
    123c:	d03d      	beq.n	0x12ba
    123e:	4bac      	ldr	r3, [pc, #688]	; (0x14f0)
    1240:	685b      	ldr	r3, [r3, #4]
    1242:	f003 030c 	and.w	r3, r3, #12
    1246:	2b04      	cmp	r3, #4
    1248:	d02e      	beq.n	0x12a8
    124a:	4ba9      	ldr	r3, [pc, #676]	; (0x14f0)
    124c:	685b      	ldr	r3, [r3, #4]
    124e:	f003 030c 	and.w	r3, r3, #12
    1252:	2b08      	cmp	r3, #8
    1254:	d023      	beq.n	0x129e
    1256:	6863      	ldr	r3, [r4, #4]
    1258:	f5b3 3f80 	cmp.w	r3, #65536	; 0x10000
    125c:	d051      	beq.n	0x1302
    125e:	2b00      	cmp	r3, #0
    1260:	d155      	bne.n	0x130e
    1262:	f103 4380 	add.w	r3, r3, #1073741824	; 0x40000000
    1266:	f503 3304 	add.w	r3, r3, #135168	; 0x21000
    126a:	681a      	ldr	r2, [r3, #0]
    126c:	f422 3280 	bic.w	r2, r2, #65536	; 0x10000
    1270:	601a      	str	r2, [r3, #0]
    1272:	681a      	ldr	r2, [r3, #0]
    1274:	f422 2280 	bic.w	r2, r2, #262144	; 0x40000
    1278:	601a      	str	r2, [r3, #0]
    127a:	6863      	ldr	r3, [r4, #4]
    127c:	2b00      	cmp	r3, #0
    127e:	d060      	beq.n	0x1342
    1280:	f7ff ffa6 	bl	0x11d0
    1284:	4605      	mov	r5, r0
    1286:	4b9a      	ldr	r3, [pc, #616]	; (0x14f0)
    1288:	681b      	ldr	r3, [r3, #0]
    128a:	f413 3f00 	tst.w	r3, #131072	; 0x20000
    128e:	d114      	bne.n	0x12ba
    1290:	f7ff ff9e 	bl	0x11d0
    1294:	1b40      	subs	r0, r0, r5
    1296:	2864      	cmp	r0, #100	; 0x64
    1298:	d9f5      	bls.n	0x1286
    129a:	2003      	movs	r0, #3
    129c:	e1af      	b.n	0x15fe
    129e:	4b94      	ldr	r3, [pc, #592]	; (0x14f0)
    12a0:	685b      	ldr	r3, [r3, #4]
    12a2:	f413 3f80 	tst.w	r3, #65536	; 0x10000
    12a6:	d0d6      	beq.n	0x1256
    12a8:	4b91      	ldr	r3, [pc, #580]	; (0x14f0)
    12aa:	681b      	ldr	r3, [r3, #0]
    12ac:	f413 3f00 	tst.w	r3, #131072	; 0x20000
    12b0:	d003      	beq.n	0x12ba
    12b2:	6863      	ldr	r3, [r4, #4]
    12b4:	2b00      	cmp	r3, #0
    12b6:	f000 819f 	beq.w	0x15f8
    12ba:	6823      	ldr	r3, [r4, #0]
    12bc:	f013 0f02 	tst.w	r3, #2
    12c0:	d065      	beq.n	0x138e
    12c2:	4b8b      	ldr	r3, [pc, #556]	; (0x14f0)
    12c4:	685b      	ldr	r3, [r3, #4]
    12c6:	f013 0f0c 	tst.w	r3, #12
    12ca:	d04e      	beq.n	0x136a
    12cc:	4b88      	ldr	r3, [pc, #544]	; (0x14f0)
    12ce:	685b      	ldr	r3, [r3, #4]
    12d0:	f003 030c 	and.w	r3, r3, #12
    12d4:	2b08      	cmp	r3, #8
    12d6:	d043      	beq.n	0x1360
    12d8:	6923      	ldr	r3, [r4, #16]
    12da:	2b00      	cmp	r3, #0
    12dc:	d079      	beq.n	0x13d2
    12de:	2201      	movs	r2, #1
    12e0:	4b84      	ldr	r3, [pc, #528]	; (0x14f4)
    12e2:	601a      	str	r2, [r3, #0]
    12e4:	f7ff ff74 	bl	0x11d0
    12e8:	4605      	mov	r5, r0
    12ea:	4b81      	ldr	r3, [pc, #516]	; (0x14f0)
    12ec:	681b      	ldr	r3, [r3, #0]
    12ee:	f013 0f02 	tst.w	r3, #2
    12f2:	d165      	bne.n	0x13c0
    12f4:	f7ff ff6c 	bl	0x11d0
    12f8:	1b40      	subs	r0, r0, r5
    12fa:	2802      	cmp	r0, #2
    12fc:	d9f5      	bls.n	0x12ea
    12fe:	2003      	movs	r0, #3
    1300:	e17d      	b.n	0x15fe
    1302:	4a7b      	ldr	r2, [pc, #492]	; (0x14f0)
    1304:	6813      	ldr	r3, [r2, #0]
    1306:	f443 3380 	orr.w	r3, r3, #65536	; 0x10000
    130a:	6013      	str	r3, [r2, #0]
    130c:	e7b5      	b.n	0x127a
    130e:	f5b3 2fa0 	cmp.w	r3, #327680	; 0x50000
    1312:	d009      	beq.n	0x1328
    1314:	4b76      	ldr	r3, [pc, #472]	; (0x14f0)
    1316:	681a      	ldr	r2, [r3, #0]
    1318:	f422 3280 	bic.w	r2, r2, #65536	; 0x10000
    131c:	601a      	str	r2, [r3, #0]
    131e:	681a      	ldr	r2, [r3, #0]
    1320:	f422 2280 	bic.w	r2, r2, #262144	; 0x40000
    1324:	601a      	str	r2, [r3, #0]
    1326:	e7a8      	b.n	0x127a
    1328:	f103 4380 	add.w	r3, r3, #1073741824	; 0x40000000
    132c:	f5a3 333c 	sub.w	r3, r3, #192512	; 0x2f000
    1330:	681a      	ldr	r2, [r3, #0]
    1332:	f442 2280 	orr.w	r2, r2, #262144	; 0x40000
    1336:	601a      	str	r2, [r3, #0]
    1338:	681a      	ldr	r2, [r3, #0]
    133a:	f442 3280 	orr.w	r2, r2, #65536	; 0x10000
    133e:	601a      	str	r2, [r3, #0]
    1340:	e79b      	b.n	0x127a
    1342:	f7ff ff45 	bl	0x11d0
    1346:	4605      	mov	r5, r0
    1348:	4b69      	ldr	r3, [pc, #420]	; (0x14f0)
    134a:	681b      	ldr	r3, [r3, #0]
    134c:	f413 3f00 	tst.w	r3, #131072	; 0x20000
    1350:	d0b3      	beq.n	0x12ba
    1352:	f7ff ff3d 	bl	0x11d0
    1356:	1b40      	subs	r0, r0, r5
    1358:	2864      	cmp	r0, #100	; 0x64
    135a:	d9f5      	bls.n	0x1348
    135c:	2003      	movs	r0, #3
    135e:	e14e      	b.n	0x15fe
    1360:	4b63      	ldr	r3, [pc, #396]	; (0x14f0)
    1362:	685b      	ldr	r3, [r3, #4]
    1364:	f413 3f80 	tst.w	r3, #65536	; 0x10000
    1368:	d1b6      	bne.n	0x12d8
    136a:	4b61      	ldr	r3, [pc, #388]	; (0x14f0)
    136c:	681b      	ldr	r3, [r3, #0]
    136e:	f013 0f02 	tst.w	r3, #2
    1372:	d004      	beq.n	0x137e
    1374:	6923      	ldr	r3, [r4, #16]
    1376:	2b01      	cmp	r3, #1
    1378:	d001      	beq.n	0x137e
    137a:	2001      	movs	r0, #1
    137c:	e13f      	b.n	0x15fe
    137e:	4a5c      	ldr	r2, [pc, #368]	; (0x14f0)
    1380:	6813      	ldr	r3, [r2, #0]
    1382:	f023 03f8 	bic.w	r3, r3, #248	; 0xf8
    1386:	6961      	ldr	r1, [r4, #20]
    1388:	ea43 03c1 	orr.w	r3, r3, r1, lsl #3
    138c:	6013      	str	r3, [r2, #0]
    138e:	6823      	ldr	r3, [r4, #0]
    1390:	f013 0f08 	tst.w	r3, #8
    1394:	d032      	beq.n	0x13fc
    1396:	69a3      	ldr	r3, [r4, #24]
    1398:	2b00      	cmp	r3, #0
    139a:	d06e      	beq.n	0x147a
    139c:	2201      	movs	r2, #1
    139e:	4b56      	ldr	r3, [pc, #344]	; (0x14f8)
    13a0:	601a      	str	r2, [r3, #0]
    13a2:	f7ff ff15 	bl	0x11d0
    13a6:	4605      	mov	r5, r0
    13a8:	4b51      	ldr	r3, [pc, #324]	; (0x14f0)
    13aa:	6a5b      	ldr	r3, [r3, #36]	; 0x24
    13ac:	f013 0f02 	tst.w	r3, #2
    13b0:	d121      	bne.n	0x13f6
    13b2:	f7ff ff0d 	bl	0x11d0
    13b6:	1b40      	subs	r0, r0, r5
    13b8:	2802      	cmp	r0, #2
    13ba:	d9f5      	bls.n	0x13a8
    13bc:	2003      	movs	r0, #3
    13be:	e11e      	b.n	0x15fe
    13c0:	4a4b      	ldr	r2, [pc, #300]	; (0x14f0)
    13c2:	6813      	ldr	r3, [r2, #0]
    13c4:	f023 03f8 	bic.w	r3, r3, #248	; 0xf8
    13c8:	6961      	ldr	r1, [r4, #20]
    13ca:	ea43 03c1 	orr.w	r3, r3, r1, lsl #3
    13ce:	6013      	str	r3, [r2, #0]
    13d0:	e7dd      	b.n	0x138e
    13d2:	2200      	movs	r2, #0
    13d4:	4b47      	ldr	r3, [pc, #284]	; (0x14f4)
    13d6:	601a      	str	r2, [r3, #0]
    13d8:	f7ff fefa 	bl	0x11d0
    13dc:	4605      	mov	r5, r0
    13de:	4b44      	ldr	r3, [pc, #272]	; (0x14f0)
    13e0:	681b      	ldr	r3, [r3, #0]
    13e2:	f013 0f02 	tst.w	r3, #2
    13e6:	d0d2      	beq.n	0x138e
    13e8:	f7ff fef2 	bl	0x11d0
    13ec:	1b40      	subs	r0, r0, r5
    13ee:	2802      	cmp	r0, #2
    13f0:	d9f5      	bls.n	0x13de
    13f2:	2003      	movs	r0, #3
    13f4:	e103      	b.n	0x15fe
    13f6:	2001      	movs	r0, #1
    13f8:	f7ff ff04 	bl	0x1204
    13fc:	6823      	ldr	r3, [r4, #0]
    13fe:	f013 0f04 	tst.w	r3, #4
    1402:	f000 8099 	beq.w	0x1538
    1406:	4b3a      	ldr	r3, [pc, #232]	; (0x14f0)
    1408:	69db      	ldr	r3, [r3, #28]
    140a:	f013 5f80 	tst.w	r3, #268435456	; 0x10000000
    140e:	d146      	bne.n	0x149e
    1410:	4b37      	ldr	r3, [pc, #220]	; (0x14f0)
    1412:	69da      	ldr	r2, [r3, #28]
    1414:	f042 5280 	orr.w	r2, r2, #268435456	; 0x10000000
    1418:	61da      	str	r2, [r3, #28]
    141a:	69db      	ldr	r3, [r3, #28]
    141c:	f003 5380 	and.w	r3, r3, #268435456	; 0x10000000
    1420:	9301      	str	r3, [sp, #4]
    1422:	9b01      	ldr	r3, [sp, #4]
    1424:	2501      	movs	r5, #1
    1426:	4b35      	ldr	r3, [pc, #212]	; (0x14fc)
    1428:	681b      	ldr	r3, [r3, #0]
    142a:	f413 7f80 	tst.w	r3, #256	; 0x100
    142e:	d038      	beq.n	0x14a2
    1430:	68e3      	ldr	r3, [r4, #12]
    1432:	2b01      	cmp	r3, #1
    1434:	d049      	beq.n	0x14ca
    1436:	2b00      	cmp	r3, #0
    1438:	d14d      	bne.n	0x14d6
    143a:	f103 4380 	add.w	r3, r3, #1073741824	; 0x40000000
    143e:	f503 3304 	add.w	r3, r3, #135168	; 0x21000
    1442:	6a1a      	ldr	r2, [r3, #32]
    1444:	f022 0201 	bic.w	r2, r2, #1
    1448:	621a      	str	r2, [r3, #32]
    144a:	6a1a      	ldr	r2, [r3, #32]
    144c:	f022 0204 	bic.w	r2, r2, #4
    1450:	621a      	str	r2, [r3, #32]
    1452:	68e3      	ldr	r3, [r4, #12]
    1454:	2b00      	cmp	r3, #0
    1456:	d05d      	beq.n	0x1514
    1458:	f7ff feba 	bl	0x11d0
    145c:	4606      	mov	r6, r0
    145e:	4b24      	ldr	r3, [pc, #144]	; (0x14f0)
    1460:	6a1b      	ldr	r3, [r3, #32]
    1462:	f013 0f02 	tst.w	r3, #2
    1466:	d166      	bne.n	0x1536
    1468:	f7ff feb2 	bl	0x11d0
    146c:	1b80      	subs	r0, r0, r6
    146e:	f241 3388 	movw	r3, #5000	; 0x1388
    1472:	4298      	cmp	r0, r3
    1474:	d9f3      	bls.n	0x145e
    1476:	2003      	movs	r0, #3
    1478:	e0c1      	b.n	0x15fe
    147a:	2200      	movs	r2, #0
    147c:	4b1e      	ldr	r3, [pc, #120]	; (0x14f8)
    147e:	601a      	str	r2, [r3, #0]
    1480:	f7ff fea6 	bl	0x11d0
    1484:	4605      	mov	r5, r0
    1486:	4b1a      	ldr	r3, [pc, #104]	; (0x14f0)
    1488:	6a5b      	ldr	r3, [r3, #36]	; 0x24
    148a:	f013 0f02 	tst.w	r3, #2
    148e:	d0b5      	beq.n	0x13fc
    1490:	f7ff fe9e 	bl	0x11d0
    1494:	1b40      	subs	r0, r0, r5
    1496:	2802      	cmp	r0, #2
    1498:	d9f5      	bls.n	0x1486
    149a:	2003      	movs	r0, #3
    149c:	e0af      	b.n	0x15fe
    149e:	2500      	movs	r5, #0
    14a0:	e7c1      	b.n	0x1426
    14a2:	4a16      	ldr	r2, [pc, #88]	; (0x14fc)
    14a4:	6813      	ldr	r3, [r2, #0]
    14a6:	f443 7380 	orr.w	r3, r3, #256	; 0x100
    14aa:	6013      	str	r3, [r2, #0]
    14ac:	f7ff fe90 	bl	0x11d0
    14b0:	4606      	mov	r6, r0
    14b2:	4b12      	ldr	r3, [pc, #72]	; (0x14fc)
    14b4:	681b      	ldr	r3, [r3, #0]
    14b6:	f413 7f80 	tst.w	r3, #256	; 0x100
    14ba:	d1b9      	bne.n	0x1430
    14bc:	f7ff fe88 	bl	0x11d0
    14c0:	1b80      	subs	r0, r0, r6
    14c2:	2864      	cmp	r0, #100	; 0x64
    14c4:	d9f5      	bls.n	0x14b2
    14c6:	2003      	movs	r0, #3
    14c8:	e099      	b.n	0x15fe
    14ca:	4a09      	ldr	r2, [pc, #36]	; (0x14f0)
    14cc:	6a13      	ldr	r3, [r2, #32]
    14ce:	f043 0301 	orr.w	r3, r3, #1
    14d2:	6213      	str	r3, [r2, #32]
    14d4:	e7bd      	b.n	0x1452
    14d6:	2b05      	cmp	r3, #5
    14d8:	d012      	beq.n	0x1500
    14da:	4b05      	ldr	r3, [pc, #20]	; (0x14f0)
    14dc:	6a1a      	ldr	r2, [r3, #32]
    14de:	f022 0201 	bic.w	r2, r2, #1
    14e2:	621a      	str	r2, [r3, #32]
    14e4:	6a1a      	ldr	r2, [r3, #32]
    14e6:	f022 0204 	bic.w	r2, r2, #4
    14ea:	621a      	str	r2, [r3, #32]
    14ec:	e7b1      	b.n	0x1452
    14ee:	bf00      	nop
    14f0:	1000      	asrs	r0, r0, #32
    14f2:	4002      	ands	r2, r0
    14f4:	0000      	movs	r0, r0
    14f6:	4242      	negs	r2, r0
    14f8:	0480      	lsls	r0, r0, #18
    14fa:	4242      	negs	r2, r0
    14fc:	7000      	strb	r0, [r0, #0]
    14fe:	4000      	ands	r0, r0
    1500:	4b41      	ldr	r3, [pc, #260]	; (0x1608)
    1502:	6a1a      	ldr	r2, [r3, #32]
    1504:	f042 0204 	orr.w	r2, r2, #4
    1508:	621a      	str	r2, [r3, #32]
    150a:	6a1a      	ldr	r2, [r3, #32]
    150c:	f042 0201 	orr.w	r2, r2, #1
    1510:	621a      	str	r2, [r3, #32]
    1512:	e79e      	b.n	0x1452
    1514:	f7ff fe5c 	bl	0x11d0
    1518:	4606      	mov	r6, r0
    151a:	4b3b      	ldr	r3, [pc, #236]	; (0x1608)
    151c:	6a1b      	ldr	r3, [r3, #32]
    151e:	f013 0f02 	tst.w	r3, #2
    1522:	d008      	beq.n	0x1536
    1524:	f7ff fe54 	bl	0x11d0
    1528:	1b80      	subs	r0, r0, r6
    152a:	f241 3388 	movw	r3, #5000	; 0x1388
    152e:	4298      	cmp	r0, r3
    1530:	d9f3      	bls.n	0x151a
    1532:	2003      	movs	r0, #3
    1534:	e063      	b.n	0x15fe
    1536:	b9e5      	cbnz	r5, 0x1572
    1538:	69e3      	ldr	r3, [r4, #28]
    153a:	2b00      	cmp	r3, #0
    153c:	d05e      	beq.n	0x15fc
    153e:	4a32      	ldr	r2, [pc, #200]	; (0x1608)
    1540:	6852      	ldr	r2, [r2, #4]
    1542:	f002 020c 	and.w	r2, r2, #12
    1546:	2a08      	cmp	r2, #8
    1548:	d05b      	beq.n	0x1602
    154a:	2b02      	cmp	r3, #2
    154c:	d017      	beq.n	0x157e
    154e:	2200      	movs	r2, #0
    1550:	4b2e      	ldr	r3, [pc, #184]	; (0x160c)
    1552:	601a      	str	r2, [r3, #0]
    1554:	f7ff fe3c 	bl	0x11d0
    1558:	4604      	mov	r4, r0
    155a:	4b2b      	ldr	r3, [pc, #172]	; (0x1608)
    155c:	681b      	ldr	r3, [r3, #0]
    155e:	f013 7f00 	tst.w	r3, #33554432	; 0x2000000
    1562:	d047      	beq.n	0x15f4
    1564:	f7ff fe34 	bl	0x11d0
    1568:	1b00      	subs	r0, r0, r4
    156a:	2802      	cmp	r0, #2
    156c:	d9f5      	bls.n	0x155a
    156e:	2003      	movs	r0, #3
    1570:	e045      	b.n	0x15fe
    1572:	4a25      	ldr	r2, [pc, #148]	; (0x1608)
    1574:	69d3      	ldr	r3, [r2, #28]
    1576:	f023 5380 	bic.w	r3, r3, #268435456	; 0x10000000
    157a:	61d3      	str	r3, [r2, #28]
    157c:	e7dc      	b.n	0x1538
    157e:	2200      	movs	r2, #0
    1580:	4b22      	ldr	r3, [pc, #136]	; (0x160c)
    1582:	601a      	str	r2, [r3, #0]
    1584:	f7ff fe24 	bl	0x11d0
    1588:	4605      	mov	r5, r0
    158a:	4b1f      	ldr	r3, [pc, #124]	; (0x1608)
    158c:	681b      	ldr	r3, [r3, #0]
    158e:	f013 7f00 	tst.w	r3, #33554432	; 0x2000000
    1592:	d006      	beq.n	0x15a2
    1594:	f7ff fe1c 	bl	0x11d0
    1598:	1b40      	subs	r0, r0, r5
    159a:	2802      	cmp	r0, #2
    159c:	d9f5      	bls.n	0x158a
    159e:	2003      	movs	r0, #3
    15a0:	e02d      	b.n	0x15fe
    15a2:	6a23      	ldr	r3, [r4, #32]
    15a4:	f5b3 3f80 	cmp.w	r3, #65536	; 0x10000
    15a8:	d01a      	beq.n	0x15e0
    15aa:	4917      	ldr	r1, [pc, #92]	; (0x1608)
    15ac:	684b      	ldr	r3, [r1, #4]
    15ae:	f423 1374 	bic.w	r3, r3, #3997696	; 0x3d0000
    15b2:	6a22      	ldr	r2, [r4, #32]
    15b4:	6a60      	ldr	r0, [r4, #36]	; 0x24
    15b6:	4302      	orrs	r2, r0
    15b8:	4313      	orrs	r3, r2
    15ba:	604b      	str	r3, [r1, #4]
    15bc:	2201      	movs	r2, #1
    15be:	4b13      	ldr	r3, [pc, #76]	; (0x160c)
    15c0:	601a      	str	r2, [r3, #0]
    15c2:	f7ff fe05 	bl	0x11d0
    15c6:	4604      	mov	r4, r0
    15c8:	4b0f      	ldr	r3, [pc, #60]	; (0x1608)
    15ca:	681b      	ldr	r3, [r3, #0]
    15cc:	f013 7f00 	tst.w	r3, #33554432	; 0x2000000
    15d0:	d10e      	bne.n	0x15f0
    15d2:	f7ff fdfd 	bl	0x11d0
    15d6:	1b00      	subs	r0, r0, r4
    15d8:	2802      	cmp	r0, #2
    15da:	d9f5      	bls.n	0x15c8
    15dc:	2003      	movs	r0, #3
    15de:	e00e      	b.n	0x15fe
    15e0:	4a09      	ldr	r2, [pc, #36]	; (0x1608)
    15e2:	6853      	ldr	r3, [r2, #4]
    15e4:	f423 3300 	bic.w	r3, r3, #131072	; 0x20000
    15e8:	68a1      	ldr	r1, [r4, #8]
    15ea:	430b      	orrs	r3, r1
    15ec:	6053      	str	r3, [r2, #4]
    15ee:	e7dc      	b.n	0x15aa
    15f0:	2000      	movs	r0, #0
    15f2:	e004      	b.n	0x15fe
    15f4:	2000      	movs	r0, #0
    15f6:	e002      	b.n	0x15fe
    15f8:	2001      	movs	r0, #1
    15fa:	e000      	b.n	0x15fe
    15fc:	2000      	movs	r0, #0
    15fe:	b002      	add	sp, #8
    1600:	bd70      	pop	{r4, r5, r6, pc}
    1602:	2001      	movs	r0, #1
    1604:	e7fb      	b.n	0x15fe
    1606:	bf00      	nop
    1608:	1000      	asrs	r0, r0, #32
    160a:	4002      	ands	r2, r0
    160c:	0060      	lsls	r0, r4, #1
    160e:	4242      	negs	r2, r0
    1610:	b510      	push	{r4, lr}
    1612:	b086      	sub	sp, #24
    1614:	4c15      	ldr	r4, [pc, #84]	; (0x166c)
    1616:	e894 000f 	ldmia.w	r4, {r0, r1, r2, r3}
    161a:	f10d 0e18 	add.w	lr, sp, #24
    161e:	e90e 000f 	stmdb	lr, {r0, r1, r2, r3}
    1622:	8a23      	ldrh	r3, [r4, #16]
    1624:	f8ad 3004 	strh.w	r3, [sp, #4]
    1628:	4b11      	ldr	r3, [pc, #68]	; (0x1670)
    162a:	685b      	ldr	r3, [r3, #4]
    162c:	f003 020c 	and.w	r2, r3, #12
    1630:	2a08      	cmp	r2, #8
    1632:	d118      	bne.n	0x1666
    1634:	f3c3 4283 	ubfx	r2, r3, #18, #4
    1638:	4472      	add	r2, lr
    163a:	f812 2c10 	ldrb.w	r2, [r2, #-16]
    163e:	f413 3f80 	tst.w	r3, #65536	; 0x10000
    1642:	d103      	bne.n	0x164c
    1644:	480b      	ldr	r0, [pc, #44]	; (0x1674)
    1646:	fb00 f002 	mul.w	r0, r0, r2
    164a:	e00d      	b.n	0x1668
    164c:	4b08      	ldr	r3, [pc, #32]	; (0x1670)
    164e:	685b      	ldr	r3, [r3, #4]
    1650:	f3c3 4340 	ubfx	r3, r3, #17, #1
    1654:	4473      	add	r3, lr
    1656:	f813 3c14 	ldrb.w	r3, [r3, #-20]
    165a:	4807      	ldr	r0, [pc, #28]	; (0x1678)
    165c:	fb00 f002 	mul.w	r0, r0, r2
    1660:	fbb0 f0f3 	udiv	r0, r0, r3
    1664:	e000      	b.n	0x1668
    1666:	4804      	ldr	r0, [pc, #16]	; (0x1678)
    1668:	b006      	add	sp, #24
    166a:	bd10      	pop	{r4, pc}
    166c:	9258      	str	r2, [sp, #352]	; 0x160
    166e:	0800      	lsrs	r0, r0, #32
    1670:	1000      	asrs	r0, r0, #32
    1672:	4002      	ands	r2, r0
    1674:	0900      	lsrs	r0, r0, #4
    1676:	003d      	movs	r5, r7
    1678:	1200      	asrs	r0, r0, #8
    167a:	007a      	lsls	r2, r7, #1
    167c:	4b62      	ldr	r3, [pc, #392]	; (0x1808)
    167e:	681b      	ldr	r3, [r3, #0]
    1680:	f003 0307 	and.w	r3, r3, #7
    1684:	428b      	cmp	r3, r1
    1686:	d20c      	bcs.n	0x16a2
    1688:	4a5f      	ldr	r2, [pc, #380]	; (0x1808)
    168a:	6813      	ldr	r3, [r2, #0]
    168c:	f023 0307 	bic.w	r3, r3, #7
    1690:	430b      	orrs	r3, r1
    1692:	6013      	str	r3, [r2, #0]
    1694:	6813      	ldr	r3, [r2, #0]
    1696:	f003 0307 	and.w	r3, r3, #7
    169a:	4299      	cmp	r1, r3
    169c:	d001      	beq.n	0x16a2
    169e:	2001      	movs	r0, #1
    16a0:	4770      	bx	lr
    16a2:	b570      	push	{r4, r5, r6, lr}
    16a4:	6803      	ldr	r3, [r0, #0]
    16a6:	f013 0f02 	tst.w	r3, #2
    16aa:	d017      	beq.n	0x16dc
    16ac:	f013 0f04 	tst.w	r3, #4
    16b0:	d004      	beq.n	0x16bc
    16b2:	4a56      	ldr	r2, [pc, #344]	; (0x180c)
    16b4:	6853      	ldr	r3, [r2, #4]
    16b6:	f443 63e0 	orr.w	r3, r3, #1792	; 0x700
    16ba:	6053      	str	r3, [r2, #4]
    16bc:	6803      	ldr	r3, [r0, #0]
    16be:	f013 0f08 	tst.w	r3, #8
    16c2:	d004      	beq.n	0x16ce
    16c4:	4a51      	ldr	r2, [pc, #324]	; (0x180c)
    16c6:	6853      	ldr	r3, [r2, #4]
    16c8:	f443 5360 	orr.w	r3, r3, #14336	; 0x3800
    16cc:	6053      	str	r3, [r2, #4]
    16ce:	4a4f      	ldr	r2, [pc, #316]	; (0x180c)
    16d0:	6853      	ldr	r3, [r2, #4]
    16d2:	f023 03f0 	bic.w	r3, r3, #240	; 0xf0
    16d6:	6884      	ldr	r4, [r0, #8]
    16d8:	4323      	orrs	r3, r4
    16da:	6053      	str	r3, [r2, #4]
    16dc:	460d      	mov	r5, r1
    16de:	4604      	mov	r4, r0
    16e0:	6803      	ldr	r3, [r0, #0]
    16e2:	f013 0f01 	tst.w	r3, #1
    16e6:	d052      	beq.n	0x178e
    16e8:	6843      	ldr	r3, [r0, #4]
    16ea:	2b01      	cmp	r3, #1
    16ec:	d023      	beq.n	0x1736
    16ee:	2b02      	cmp	r3, #2
    16f0:	d028      	beq.n	0x1744
    16f2:	4a46      	ldr	r2, [pc, #280]	; (0x180c)
    16f4:	6812      	ldr	r2, [r2, #0]
    16f6:	f012 0f02 	tst.w	r2, #2
    16fa:	f000 8082 	beq.w	0x1802
    16fe:	4943      	ldr	r1, [pc, #268]	; (0x180c)
    1700:	684a      	ldr	r2, [r1, #4]
    1702:	f022 0203 	bic.w	r2, r2, #3
    1706:	4313      	orrs	r3, r2
    1708:	604b      	str	r3, [r1, #4]
    170a:	f7ff fd61 	bl	0x11d0
    170e:	4606      	mov	r6, r0
    1710:	6863      	ldr	r3, [r4, #4]
    1712:	2b01      	cmp	r3, #1
    1714:	d01d      	beq.n	0x1752
    1716:	2b02      	cmp	r3, #2
    1718:	d02a      	beq.n	0x1770
    171a:	4b3c      	ldr	r3, [pc, #240]	; (0x180c)
    171c:	685b      	ldr	r3, [r3, #4]
    171e:	f013 0f0c 	tst.w	r3, #12
    1722:	d034      	beq.n	0x178e
    1724:	f7ff fd54 	bl	0x11d0
    1728:	1b80      	subs	r0, r0, r6
    172a:	f241 3388 	movw	r3, #5000	; 0x1388
    172e:	4298      	cmp	r0, r3
    1730:	d9f3      	bls.n	0x171a
    1732:	2003      	movs	r0, #3
    1734:	bd70      	pop	{r4, r5, r6, pc}
    1736:	4a35      	ldr	r2, [pc, #212]	; (0x180c)
    1738:	6812      	ldr	r2, [r2, #0]
    173a:	f412 3f00 	tst.w	r2, #131072	; 0x20000
    173e:	d1de      	bne.n	0x16fe
    1740:	2001      	movs	r0, #1
    1742:	bd70      	pop	{r4, r5, r6, pc}
    1744:	4a31      	ldr	r2, [pc, #196]	; (0x180c)
    1746:	6812      	ldr	r2, [r2, #0]
    1748:	f012 7f00 	tst.w	r2, #33554432	; 0x2000000
    174c:	d1d7      	bne.n	0x16fe
    174e:	2001      	movs	r0, #1
    1750:	bd70      	pop	{r4, r5, r6, pc}
    1752:	4b2e      	ldr	r3, [pc, #184]	; (0x180c)
    1754:	685b      	ldr	r3, [r3, #4]
    1756:	f003 030c 	and.w	r3, r3, #12
    175a:	2b04      	cmp	r3, #4
    175c:	d017      	beq.n	0x178e
    175e:	f7ff fd37 	bl	0x11d0
    1762:	1b80      	subs	r0, r0, r6
    1764:	f241 3388 	movw	r3, #5000	; 0x1388
    1768:	4298      	cmp	r0, r3
    176a:	d9f2      	bls.n	0x1752
    176c:	2003      	movs	r0, #3
    176e:	bd70      	pop	{r4, r5, r6, pc}
    1770:	4b26      	ldr	r3, [pc, #152]	; (0x180c)
    1772:	685b      	ldr	r3, [r3, #4]
    1774:	f003 030c 	and.w	r3, r3, #12
    1778:	2b08      	cmp	r3, #8
    177a:	d008      	beq.n	0x178e
    177c:	f7ff fd28 	bl	0x11d0
    1780:	1b80      	subs	r0, r0, r6
    1782:	f241 3388 	movw	r3, #5000	; 0x1388
    1786:	4298      	cmp	r0, r3
    1788:	d9f2      	bls.n	0x1770
    178a:	2003      	movs	r0, #3
    178c:	bd70      	pop	{r4, r5, r6, pc}
    178e:	4b1e      	ldr	r3, [pc, #120]	; (0x1808)
    1790:	681b      	ldr	r3, [r3, #0]
    1792:	f003 0307 	and.w	r3, r3, #7
    1796:	429d      	cmp	r5, r3
    1798:	d20c      	bcs.n	0x17b4
    179a:	4a1b      	ldr	r2, [pc, #108]	; (0x1808)
    179c:	6813      	ldr	r3, [r2, #0]
    179e:	f023 0307 	bic.w	r3, r3, #7
    17a2:	432b      	orrs	r3, r5
    17a4:	6013      	str	r3, [r2, #0]
    17a6:	6813      	ldr	r3, [r2, #0]
    17a8:	f003 0307 	and.w	r3, r3, #7
    17ac:	429d      	cmp	r5, r3
    17ae:	d001      	beq.n	0x17b4
    17b0:	2001      	movs	r0, #1
    17b2:	bd70      	pop	{r4, r5, r6, pc}
    17b4:	6823      	ldr	r3, [r4, #0]
    17b6:	f013 0f04 	tst.w	r3, #4
    17ba:	d006      	beq.n	0x17ca
    17bc:	4a13      	ldr	r2, [pc, #76]	; (0x180c)
    17be:	6853      	ldr	r3, [r2, #4]
    17c0:	f423 63e0 	bic.w	r3, r3, #1792	; 0x700
    17c4:	68e1      	ldr	r1, [r4, #12]
    17c6:	430b      	orrs	r3, r1
    17c8:	6053      	str	r3, [r2, #4]
    17ca:	6823      	ldr	r3, [r4, #0]
    17cc:	f013 0f08 	tst.w	r3, #8
    17d0:	d007      	beq.n	0x17e2
    17d2:	4a0e      	ldr	r2, [pc, #56]	; (0x180c)
    17d4:	6853      	ldr	r3, [r2, #4]
    17d6:	f423 5360 	bic.w	r3, r3, #14336	; 0x3800
    17da:	6921      	ldr	r1, [r4, #16]
    17dc:	ea43 03c1 	orr.w	r3, r3, r1, lsl #3
    17e0:	6053      	str	r3, [r2, #4]
    17e2:	f7ff ff15 	bl	0x1610
    17e6:	4b09      	ldr	r3, [pc, #36]	; (0x180c)
    17e8:	685b      	ldr	r3, [r3, #4]
    17ea:	f3c3 1303 	ubfx	r3, r3, #4, #4
    17ee:	4a08      	ldr	r2, [pc, #32]	; (0x1810)
    17f0:	5cd3      	ldrb	r3, [r2, r3]
    17f2:	40d8      	lsrs	r0, r3
    17f4:	4b07      	ldr	r3, [pc, #28]	; (0x1814)
    17f6:	6018      	str	r0, [r3, #0]
    17f8:	2000      	movs	r0, #0
    17fa:	f7ff f96d 	bl	0xad8
    17fe:	2000      	movs	r0, #0
    1800:	bd70      	pop	{r4, r5, r6, pc}
    1802:	2001      	movs	r0, #1
    1804:	bd70      	pop	{r4, r5, r6, pc}
    1806:	bf00      	nop
    1808:	2000      	movs	r0, #0
    180a:	4002      	ands	r2, r0
    180c:	1000      	asrs	r0, r0, #32
    180e:	4002      	ands	r2, r0
    1810:	970c      	str	r7, [sp, #48]	; 0x30
    1812:	0800      	lsrs	r0, r0, #32
    1814:	0038      	movs	r0, r7
    1816:	2000      	movs	r0, #0
    1818:	4b01      	ldr	r3, [pc, #4]	; (0x1820)
    181a:	6818      	ldr	r0, [r3, #0]
    181c:	4770      	bx	lr
    181e:	bf00      	nop
    1820:	0038      	movs	r0, r7
    1822:	2000      	movs	r0, #0
    1824:	b508      	push	{r3, lr}
    1826:	f7ff fff7 	bl	0x1818
    182a:	4b04      	ldr	r3, [pc, #16]	; (0x183c)
    182c:	685b      	ldr	r3, [r3, #4]
    182e:	f3c3 2302 	ubfx	r3, r3, #8, #3
    1832:	4a03      	ldr	r2, [pc, #12]	; (0x1840)
    1834:	5cd3      	ldrb	r3, [r2, r3]
    1836:	40d8      	lsrs	r0, r3
    1838:	bd08      	pop	{r3, pc}
    183a:	bf00      	nop
    183c:	1000      	asrs	r0, r0, #32
    183e:	4002      	ands	r2, r0
    1840:	971c      	str	r7, [sp, #112]	; 0x70
    1842:	0800      	lsrs	r0, r0, #32
    1844:	b508      	push	{r3, lr}
    1846:	f7ff ffe7 	bl	0x1818
    184a:	4b04      	ldr	r3, [pc, #16]	; (0x185c)
    184c:	685b      	ldr	r3, [r3, #4]
    184e:	f3c3 23c2 	ubfx	r3, r3, #11, #3
    1852:	4a03      	ldr	r2, [pc, #12]	; (0x1860)
    1854:	5cd3      	ldrb	r3, [r2, r3]
    1856:	40d8      	lsrs	r0, r3
    1858:	bd08      	pop	{r3, pc}
    185a:	bf00      	nop
    185c:	1000      	asrs	r0, r0, #32
    185e:	4002      	ands	r2, r0
    1860:	971c      	str	r7, [sp, #112]	; 0x70
    1862:	0800      	lsrs	r0, r0, #32
    1864:	230f      	movs	r3, #15
    1866:	6003      	str	r3, [r0, #0]
    1868:	4b0b      	ldr	r3, [pc, #44]	; (0x1898)
    186a:	685a      	ldr	r2, [r3, #4]
    186c:	f002 0203 	and.w	r2, r2, #3
    1870:	6042      	str	r2, [r0, #4]
    1872:	685a      	ldr	r2, [r3, #4]
    1874:	f002 02f0 	and.w	r2, r2, #240	; 0xf0
    1878:	6082      	str	r2, [r0, #8]
    187a:	685a      	ldr	r2, [r3, #4]
    187c:	f402 62e0 	and.w	r2, r2, #1792	; 0x700
    1880:	60c2      	str	r2, [r0, #12]
    1882:	685b      	ldr	r3, [r3, #4]
    1884:	08db      	lsrs	r3, r3, #3
    1886:	f403 63e0 	and.w	r3, r3, #1792	; 0x700
    188a:	6103      	str	r3, [r0, #16]
    188c:	4b03      	ldr	r3, [pc, #12]	; (0x189c)
    188e:	681b      	ldr	r3, [r3, #0]
    1890:	f003 0307 	and.w	r3, r3, #7
    1894:	600b      	str	r3, [r1, #0]
    1896:	4770      	bx	lr
    1898:	1000      	asrs	r0, r0, #32
    189a:	4002      	ands	r2, r0
    189c:	2000      	movs	r0, #0
    189e:	4002      	ands	r2, r0
    18a0:	b5f0      	push	{r4, r5, r6, r7, lr}
    18a2:	b083      	sub	sp, #12
    18a4:	2600      	movs	r6, #0
    18a6:	4634      	mov	r4, r6
    18a8:	e079      	b.n	0x199e
    18aa:	2d00      	cmp	r5, #0
    18ac:	f000 80a9 	beq.w	0x1a02
    18b0:	2d01      	cmp	r5, #1
    18b2:	d100      	bne.n	0x18b6
    18b4:	68ce      	ldr	r6, [r1, #12]
    18b6:	2bff      	cmp	r3, #255	; 0xff
    18b8:	f200 80b7 	bhi.w	0x1a2a
    18bc:	4686      	mov	lr, r0
    18be:	2bff      	cmp	r3, #255	; 0xff
    18c0:	f200 80b6 	bhi.w	0x1a30
    18c4:	00a5      	lsls	r5, r4, #2
    18c6:	f8de 2000 	ldr.w	r2, [lr]
    18ca:	270f      	movs	r7, #15
    18cc:	40af      	lsls	r7, r5
    18ce:	ea22 0207 	bic.w	r2, r2, r7
    18d2:	fa06 f505 	lsl.w	r5, r6, r5
    18d6:	432a      	orrs	r2, r5
    18d8:	f8ce 2000 	str.w	r2, [lr]
    18dc:	684a      	ldr	r2, [r1, #4]
    18de:	f012 5f80 	tst.w	r2, #268435456	; 0x10000000
    18e2:	d05b      	beq.n	0x199c
    18e4:	4a67      	ldr	r2, [pc, #412]	; (0x1a84)
    18e6:	6995      	ldr	r5, [r2, #24]
    18e8:	f045 0501 	orr.w	r5, r5, #1
    18ec:	6195      	str	r5, [r2, #24]
    18ee:	6992      	ldr	r2, [r2, #24]
    18f0:	f002 0201 	and.w	r2, r2, #1
    18f4:	9201      	str	r2, [sp, #4]
    18f6:	9a01      	ldr	r2, [sp, #4]
    18f8:	08a2      	lsrs	r2, r4, #2
    18fa:	1c97      	adds	r7, r2, #2
    18fc:	4d62      	ldr	r5, [pc, #392]	; (0x1a88)
    18fe:	f855 5027 	ldr.w	r5, [r5, r7, lsl #2]
    1902:	f004 0703 	and.w	r7, r4, #3
    1906:	ea4f 0e87 	mov.w	lr, r7, lsl #2
    190a:	270f      	movs	r7, #15
    190c:	fa07 f70e 	lsl.w	r7, r7, lr
    1910:	ea25 0507 	bic.w	r5, r5, r7
    1914:	4f5d      	ldr	r7, [pc, #372]	; (0x1a8c)
    1916:	42b8      	cmp	r0, r7
    1918:	f000 8090 	beq.w	0x1a3c
    191c:	f507 6780 	add.w	r7, r7, #1024	; 0x400
    1920:	42b8      	cmp	r0, r7
    1922:	f000 808d 	beq.w	0x1a40
    1926:	f507 6780 	add.w	r7, r7, #1024	; 0x400
    192a:	42b8      	cmp	r0, r7
    192c:	f000 808a 	beq.w	0x1a44
    1930:	f507 6780 	add.w	r7, r7, #1024	; 0x400
    1934:	42b8      	cmp	r0, r7
    1936:	f000 8087 	beq.w	0x1a48
    193a:	f507 6780 	add.w	r7, r7, #1024	; 0x400
    193e:	42b8      	cmp	r0, r7
    1940:	f000 8084 	beq.w	0x1a4c
    1944:	f507 6780 	add.w	r7, r7, #1024	; 0x400
    1948:	42b8      	cmp	r0, r7
    194a:	d075      	beq.n	0x1a38
    194c:	2706      	movs	r7, #6
    194e:	fa07 f70e 	lsl.w	r7, r7, lr
    1952:	433d      	orrs	r5, r7
    1954:	3202      	adds	r2, #2
    1956:	4f4c      	ldr	r7, [pc, #304]	; (0x1a88)
    1958:	f847 5022 	str.w	r5, [r7, r2, lsl #2]
    195c:	684a      	ldr	r2, [r1, #4]
    195e:	f412 3f80 	tst.w	r2, #65536	; 0x10000
    1962:	d075      	beq.n	0x1a50
    1964:	4d4a      	ldr	r5, [pc, #296]	; (0x1a90)
    1966:	682a      	ldr	r2, [r5, #0]
    1968:	431a      	orrs	r2, r3
    196a:	602a      	str	r2, [r5, #0]
    196c:	684a      	ldr	r2, [r1, #4]
    196e:	f412 3f00 	tst.w	r2, #131072	; 0x20000
    1972:	d073      	beq.n	0x1a5c
    1974:	4d46      	ldr	r5, [pc, #280]	; (0x1a90)
    1976:	686a      	ldr	r2, [r5, #4]
    1978:	431a      	orrs	r2, r3
    197a:	606a      	str	r2, [r5, #4]
    197c:	684a      	ldr	r2, [r1, #4]
    197e:	f412 1f80 	tst.w	r2, #1048576	; 0x100000
    1982:	d071      	beq.n	0x1a68
    1984:	4d42      	ldr	r5, [pc, #264]	; (0x1a90)
    1986:	68aa      	ldr	r2, [r5, #8]
    1988:	431a      	orrs	r2, r3
    198a:	60aa      	str	r2, [r5, #8]
    198c:	684a      	ldr	r2, [r1, #4]
    198e:	f412 1f00 	tst.w	r2, #2097152	; 0x200000
    1992:	d06f      	beq.n	0x1a74
    1994:	4d3e      	ldr	r5, [pc, #248]	; (0x1a90)
    1996:	68ea      	ldr	r2, [r5, #12]
    1998:	4313      	orrs	r3, r2
    199a:	60eb      	str	r3, [r5, #12]
    199c:	3401      	adds	r4, #1
    199e:	2c0f      	cmp	r4, #15
    19a0:	d86e      	bhi.n	0x1a80
    19a2:	2201      	movs	r2, #1
    19a4:	40a2      	lsls	r2, r4
    19a6:	680b      	ldr	r3, [r1, #0]
    19a8:	4013      	ands	r3, r2
    19aa:	429a      	cmp	r2, r3
    19ac:	d1f6      	bne.n	0x199c
    19ae:	684d      	ldr	r5, [r1, #4]
    19b0:	2d12      	cmp	r5, #18
    19b2:	d030      	beq.n	0x1a16
    19b4:	d80b      	bhi.n	0x19ce
    19b6:	2d02      	cmp	r5, #2
    19b8:	d02a      	beq.n	0x1a10
    19ba:	f67f af76 	bls.w	0x18aa
    19be:	2d03      	cmp	r5, #3
    19c0:	d02f      	beq.n	0x1a22
    19c2:	2d11      	cmp	r5, #17
    19c4:	f47f af77 	bne.w	0x18b6
    19c8:	68ce      	ldr	r6, [r1, #12]
    19ca:	3604      	adds	r6, #4
    19cc:	e773      	b.n	0x18b6
    19ce:	4f31      	ldr	r7, [pc, #196]	; (0x1a94)
    19d0:	42bd      	cmp	r5, r7
    19d2:	d016      	beq.n	0x1a02
    19d4:	d90c      	bls.n	0x19f0
    19d6:	4f30      	ldr	r7, [pc, #192]	; (0x1a98)
    19d8:	42bd      	cmp	r5, r7
    19da:	d012      	beq.n	0x1a02
    19dc:	f507 3780 	add.w	r7, r7, #65536	; 0x10000
    19e0:	42bd      	cmp	r5, r7
    19e2:	d00e      	beq.n	0x1a02
    19e4:	f5a7 1780 	sub.w	r7, r7, #1048576	; 0x100000
    19e8:	42bd      	cmp	r5, r7
    19ea:	f47f af64 	bne.w	0x18b6
    19ee:	e008      	b.n	0x1a02
    19f0:	f5a7 1780 	sub.w	r7, r7, #1048576	; 0x100000
    19f4:	42bd      	cmp	r5, r7
    19f6:	d004      	beq.n	0x1a02
    19f8:	f507 3780 	add.w	r7, r7, #65536	; 0x10000
    19fc:	42bd      	cmp	r5, r7
    19fe:	f47f af5a 	bne.w	0x18b6
    1a02:	688d      	ldr	r5, [r1, #8]
    1a04:	b17d      	cbz	r5, 0x1a26
    1a06:	2d01      	cmp	r5, #1
    1a08:	d008      	beq.n	0x1a1c
    1a0a:	6142      	str	r2, [r0, #20]
    1a0c:	2608      	movs	r6, #8
    1a0e:	e752      	b.n	0x18b6
    1a10:	68ce      	ldr	r6, [r1, #12]
    1a12:	3608      	adds	r6, #8
    1a14:	e74f      	b.n	0x18b6
    1a16:	68ce      	ldr	r6, [r1, #12]
    1a18:	360c      	adds	r6, #12
    1a1a:	e74c      	b.n	0x18b6
    1a1c:	6102      	str	r2, [r0, #16]
    1a1e:	2608      	movs	r6, #8
    1a20:	e749      	b.n	0x18b6
    1a22:	2600      	movs	r6, #0
    1a24:	e747      	b.n	0x18b6
    1a26:	2604      	movs	r6, #4
    1a28:	e745      	b.n	0x18b6
    1a2a:	f100 0e04 	add.w	lr, r0, #4
    1a2e:	e746      	b.n	0x18be
    1a30:	f1a4 0508 	sub.w	r5, r4, #8
    1a34:	00ad      	lsls	r5, r5, #2
    1a36:	e746      	b.n	0x18c6
    1a38:	2705      	movs	r7, #5
    1a3a:	e788      	b.n	0x194e
    1a3c:	2700      	movs	r7, #0
    1a3e:	e786      	b.n	0x194e
    1a40:	2701      	movs	r7, #1
    1a42:	e784      	b.n	0x194e
    1a44:	2702      	movs	r7, #2
    1a46:	e782      	b.n	0x194e
    1a48:	2703      	movs	r7, #3
    1a4a:	e780      	b.n	0x194e
    1a4c:	2704      	movs	r7, #4
    1a4e:	e77e      	b.n	0x194e
    1a50:	4d0f      	ldr	r5, [pc, #60]	; (0x1a90)
    1a52:	682a      	ldr	r2, [r5, #0]
    1a54:	ea22 0203 	bic.w	r2, r2, r3
    1a58:	602a      	str	r2, [r5, #0]
    1a5a:	e787      	b.n	0x196c
    1a5c:	4d0c      	ldr	r5, [pc, #48]	; (0x1a90)
    1a5e:	686a      	ldr	r2, [r5, #4]
    1a60:	ea22 0203 	bic.w	r2, r2, r3
    1a64:	606a      	str	r2, [r5, #4]
    1a66:	e789      	b.n	0x197c
    1a68:	4d09      	ldr	r5, [pc, #36]	; (0x1a90)
    1a6a:	68aa      	ldr	r2, [r5, #8]
    1a6c:	ea22 0203 	bic.w	r2, r2, r3
    1a70:	60aa      	str	r2, [r5, #8]
    1a72:	e78b      	b.n	0x198c
    1a74:	4d06      	ldr	r5, [pc, #24]	; (0x1a90)
    1a76:	68ea      	ldr	r2, [r5, #12]
    1a78:	ea22 0303 	bic.w	r3, r2, r3
    1a7c:	60eb      	str	r3, [r5, #12]
    1a7e:	e78d      	b.n	0x199c
    1a80:	b003      	add	sp, #12
    1a82:	bdf0      	pop	{r4, r5, r6, r7, pc}
    1a84:	1000      	asrs	r0, r0, #32
    1a86:	4002      	ands	r2, r0
    1a88:	0000      	movs	r0, r0
    1a8a:	4001      	ands	r1, r0
    1a8c:	0800      	lsrs	r0, r0, #32
    1a8e:	4001      	ands	r1, r0
    1a90:	0400      	lsls	r0, r0, #16
    1a92:	4001      	ands	r1, r0
    1a94:	0000      	movs	r0, r0
    1a96:	1021      	asrs	r1, r4, #32
    1a98:	0000      	movs	r0, r0
    1a9a:	1031      	asrs	r1, r6, #32
    1a9c:	b912      	cbnz	r2, 0x1aa4
    1a9e:	0409      	lsls	r1, r1, #16
    1aa0:	6101      	str	r1, [r0, #16]
    1aa2:	4770      	bx	lr
    1aa4:	6101      	str	r1, [r0, #16]
    1aa6:	4770      	bx	lr
    1aa8:	68c3      	ldr	r3, [r0, #12]
    1aaa:	4059      	eors	r1, r3
    1aac:	60c1      	str	r1, [r0, #12]
    1aae:	4770      	bx	lr
    1ab0:	4a07      	ldr	r2, [pc, #28]	; (0x1ad0)
    1ab2:	68d3      	ldr	r3, [r2, #12]
    1ab4:	f423 63e0 	bic.w	r3, r3, #1792	; 0x700
    1ab8:	041b      	lsls	r3, r3, #16
    1aba:	0c1b      	lsrs	r3, r3, #16
    1abc:	0200      	lsls	r0, r0, #8
    1abe:	f400 60e0 	and.w	r0, r0, #1792	; 0x700
    1ac2:	4318      	orrs	r0, r3
    1ac4:	f040 60bf 	orr.w	r0, r0, #100139008	; 0x5f80000
    1ac8:	f440 3000 	orr.w	r0, r0, #131072	; 0x20000
    1acc:	60d0      	str	r0, [r2, #12]
    1ace:	4770      	bx	lr
    1ad0:	ed00 e000 	stc	0, cr14, [r0, #-0]
    1ad4:	b430      	push	{r4, r5}
    1ad6:	4b16      	ldr	r3, [pc, #88]	; (0x1b30)
    1ad8:	68db      	ldr	r3, [r3, #12]
    1ada:	f3c3 2302 	ubfx	r3, r3, #8, #3
    1ade:	f1c3 0407 	rsb	r4, r3, #7
    1ae2:	2c04      	cmp	r4, #4
    1ae4:	bf28      	it	cs
    1ae6:	2404      	movcs	r4, #4
    1ae8:	1d1d      	adds	r5, r3, #4
    1aea:	2d06      	cmp	r5, #6
    1aec:	d917      	bls.n	0x1b1e
    1aee:	3b03      	subs	r3, #3
    1af0:	2501      	movs	r5, #1
    1af2:	fa05 f404 	lsl.w	r4, r5, r4
    1af6:	3c01      	subs	r4, #1
    1af8:	4021      	ands	r1, r4
    1afa:	4099      	lsls	r1, r3
    1afc:	fa05 f303 	lsl.w	r3, r5, r3
    1b00:	3b01      	subs	r3, #1
    1b02:	4013      	ands	r3, r2
    1b04:	4319      	orrs	r1, r3
    1b06:	2800      	cmp	r0, #0
    1b08:	db0b      	blt.n	0x1b22
    1b0a:	0109      	lsls	r1, r1, #4
    1b0c:	b2c9      	uxtb	r1, r1
    1b0e:	f100 4060 	add.w	r0, r0, #3758096384	; 0xe0000000
    1b12:	f500 4061 	add.w	r0, r0, #57600	; 0xe100
    1b16:	f880 1300 	strb.w	r1, [r0, #768]	; 0x300
    1b1a:	bc30      	pop	{r4, r5}
    1b1c:	4770      	bx	lr
    1b1e:	2300      	movs	r3, #0
    1b20:	e7e6      	b.n	0x1af0
    1b22:	f000 000f 	and.w	r0, r0, #15
    1b26:	0109      	lsls	r1, r1, #4
    1b28:	b2c9      	uxtb	r1, r1
    1b2a:	4b02      	ldr	r3, [pc, #8]	; (0x1b34)
    1b2c:	5419      	strb	r1, [r3, r0]
    1b2e:	e7f4      	b.n	0x1b1a
    1b30:	ed00 e000 	stc	0, cr14, [r0, #-0]
    1b34:	ed14 e000 	ldc	0, cr14, [r4, #-0]
    1b38:	0942      	lsrs	r2, r0, #5
    1b3a:	f000 001f 	and.w	r0, r0, #31
    1b3e:	2301      	movs	r3, #1
    1b40:	fa03 f000 	lsl.w	r0, r3, r0
    1b44:	4b01      	ldr	r3, [pc, #4]	; (0x1b4c)
    1b46:	f843 0022 	str.w	r0, [r3, r2, lsl #2]
    1b4a:	4770      	bx	lr
    1b4c:	e100      	b.n	0x1d50
    1b4e:	e000      	b.n	0x1b52
    1b50:	f100 0308 	add.w	r3, r0, #8
    1b54:	6043      	str	r3, [r0, #4]
    1b56:	f04f 32ff 	mov.w	r2, #4294967295	; 0xffffffff
    1b5a:	6082      	str	r2, [r0, #8]
    1b5c:	60c3      	str	r3, [r0, #12]
    1b5e:	6103      	str	r3, [r0, #16]
    1b60:	2300      	movs	r3, #0
    1b62:	6003      	str	r3, [r0, #0]
    1b64:	4770      	bx	lr
    1b66:	2300      	movs	r3, #0
    1b68:	6103      	str	r3, [r0, #16]
    1b6a:	4770      	bx	lr
    1b6c:	6843      	ldr	r3, [r0, #4]
    1b6e:	604b      	str	r3, [r1, #4]
    1b70:	689a      	ldr	r2, [r3, #8]
    1b72:	608a      	str	r2, [r1, #8]
    1b74:	689a      	ldr	r2, [r3, #8]
    1b76:	6051      	str	r1, [r2, #4]
    1b78:	6099      	str	r1, [r3, #8]
    1b7a:	6108      	str	r0, [r1, #16]
    1b7c:	6803      	ldr	r3, [r0, #0]
    1b7e:	3301      	adds	r3, #1
    1b80:	6003      	str	r3, [r0, #0]
    1b82:	4770      	bx	lr
    1b84:	b430      	push	{r4, r5}
    1b86:	680d      	ldr	r5, [r1, #0]
    1b88:	f1b5 3fff 	cmp.w	r5, #4294967295	; 0xffffffff
    1b8c:	d002      	beq.n	0x1b94
    1b8e:	f100 0208 	add.w	r2, r0, #8
    1b92:	e002      	b.n	0x1b9a
    1b94:	6902      	ldr	r2, [r0, #16]
    1b96:	e004      	b.n	0x1ba2
    1b98:	461a      	mov	r2, r3
    1b9a:	6853      	ldr	r3, [r2, #4]
    1b9c:	681c      	ldr	r4, [r3, #0]
    1b9e:	42a5      	cmp	r5, r4
    1ba0:	d2fa      	bcs.n	0x1b98
    1ba2:	6853      	ldr	r3, [r2, #4]
    1ba4:	604b      	str	r3, [r1, #4]
    1ba6:	6099      	str	r1, [r3, #8]
    1ba8:	608a      	str	r2, [r1, #8]
    1baa:	6051      	str	r1, [r2, #4]
    1bac:	6108      	str	r0, [r1, #16]
    1bae:	6803      	ldr	r3, [r0, #0]
    1bb0:	3301      	adds	r3, #1
    1bb2:	6003      	str	r3, [r0, #0]
    1bb4:	bc30      	pop	{r4, r5}
    1bb6:	4770      	bx	lr
    1bb8:	6903      	ldr	r3, [r0, #16]
    1bba:	6842      	ldr	r2, [r0, #4]
    1bbc:	6881      	ldr	r1, [r0, #8]
    1bbe:	6091      	str	r1, [r2, #8]
    1bc0:	6882      	ldr	r2, [r0, #8]
    1bc2:	6841      	ldr	r1, [r0, #4]
    1bc4:	6051      	str	r1, [r2, #4]
    1bc6:	685a      	ldr	r2, [r3, #4]
    1bc8:	4290      	cmp	r0, r2
    1bca:	d005      	beq.n	0x1bd8
    1bcc:	2200      	movs	r2, #0
    1bce:	6102      	str	r2, [r0, #16]
    1bd0:	6818      	ldr	r0, [r3, #0]
    1bd2:	3801      	subs	r0, #1
    1bd4:	6018      	str	r0, [r3, #0]
    1bd6:	4770      	bx	lr
    1bd8:	6882      	ldr	r2, [r0, #8]
    1bda:	605a      	str	r2, [r3, #4]
    1bdc:	e7f6      	b.n	0x1bcc
    1bde:	b510      	push	{r4, lr}
    1be0:	4604      	mov	r4, r0
    1be2:	f001 fd77 	bl	0x36d4
    1be6:	6ba2      	ldr	r2, [r4, #56]	; 0x38
    1be8:	6be3      	ldr	r3, [r4, #60]	; 0x3c
    1bea:	429a      	cmp	r2, r3
    1bec:	d004      	beq.n	0x1bf8
    1bee:	2400      	movs	r4, #0
    1bf0:	f001 fd92 	bl	0x3718
    1bf4:	4620      	mov	r0, r4
    1bf6:	bd10      	pop	{r4, pc}
    1bf8:	2401      	movs	r4, #1
    1bfa:	e7f9      	b.n	0x1bf0
    1bfc:	b510      	push	{r4, lr}
    1bfe:	4604      	mov	r4, r0
    1c00:	f001 fd68 	bl	0x36d4
    1c04:	6ba3      	ldr	r3, [r4, #56]	; 0x38
    1c06:	b123      	cbz	r3, 0x1c12
    1c08:	2400      	movs	r4, #0
    1c0a:	f001 fd85 	bl	0x3718
    1c0e:	4620      	mov	r0, r4
    1c10:	bd10      	pop	{r4, pc}
    1c12:	2401      	movs	r4, #1
    1c14:	e7f9      	b.n	0x1c0a
    1c16:	b570      	push	{r4, r5, r6, lr}
    1c18:	4604      	mov	r4, r0
    1c1a:	4616      	mov	r6, r2
    1c1c:	6b85      	ldr	r5, [r0, #56]	; 0x38
    1c1e:	6c02      	ldr	r2, [r0, #64]	; 0x40
    1c20:	b94a      	cbnz	r2, 0x1c36
    1c22:	6803      	ldr	r3, [r0, #0]
    1c24:	bb53      	cbnz	r3, 0x1c7c
    1c26:	6840      	ldr	r0, [r0, #4]
    1c28:	f001 f84c 	bl	0x2cc4
    1c2c:	2300      	movs	r3, #0
    1c2e:	6063      	str	r3, [r4, #4]
    1c30:	3501      	adds	r5, #1
    1c32:	63a5      	str	r5, [r4, #56]	; 0x38
    1c34:	bd70      	pop	{r4, r5, r6, pc}
    1c36:	b96e      	cbnz	r6, 0x1c54
    1c38:	6880      	ldr	r0, [r0, #8]
    1c3a:	f001 fe9b 	bl	0x3974
    1c3e:	6c22      	ldr	r2, [r4, #64]	; 0x40
    1c40:	68a3      	ldr	r3, [r4, #8]
    1c42:	4413      	add	r3, r2
    1c44:	60a3      	str	r3, [r4, #8]
    1c46:	6862      	ldr	r2, [r4, #4]
    1c48:	4293      	cmp	r3, r2
    1c4a:	d319      	bcc.n	0x1c80
    1c4c:	6823      	ldr	r3, [r4, #0]
    1c4e:	60a3      	str	r3, [r4, #8]
    1c50:	2000      	movs	r0, #0
    1c52:	e7ed      	b.n	0x1c30
    1c54:	68c0      	ldr	r0, [r0, #12]
    1c56:	f001 fe8d 	bl	0x3974
    1c5a:	6c23      	ldr	r3, [r4, #64]	; 0x40
    1c5c:	425b      	negs	r3, r3
    1c5e:	68e2      	ldr	r2, [r4, #12]
    1c60:	441a      	add	r2, r3
    1c62:	60e2      	str	r2, [r4, #12]
    1c64:	6821      	ldr	r1, [r4, #0]
    1c66:	428a      	cmp	r2, r1
    1c68:	d202      	bcs.n	0x1c70
    1c6a:	6862      	ldr	r2, [r4, #4]
    1c6c:	4413      	add	r3, r2
    1c6e:	60e3      	str	r3, [r4, #12]
    1c70:	2e02      	cmp	r6, #2
    1c72:	d107      	bne.n	0x1c84
    1c74:	b145      	cbz	r5, 0x1c88
    1c76:	3d01      	subs	r5, #1
    1c78:	2000      	movs	r0, #0
    1c7a:	e7d9      	b.n	0x1c30
    1c7c:	2000      	movs	r0, #0
    1c7e:	e7d7      	b.n	0x1c30
    1c80:	2000      	movs	r0, #0
    1c82:	e7d5      	b.n	0x1c30
    1c84:	2000      	movs	r0, #0
    1c86:	e7d3      	b.n	0x1c30
    1c88:	2000      	movs	r0, #0
    1c8a:	e7d1      	b.n	0x1c30
    1c8c:	6c02      	ldr	r2, [r0, #64]	; 0x40
    1c8e:	b172      	cbz	r2, 0x1cae
    1c90:	b510      	push	{r4, lr}
    1c92:	4603      	mov	r3, r0
    1c94:	68c4      	ldr	r4, [r0, #12]
    1c96:	4414      	add	r4, r2
    1c98:	60c4      	str	r4, [r0, #12]
    1c9a:	6840      	ldr	r0, [r0, #4]
    1c9c:	4284      	cmp	r4, r0
    1c9e:	d301      	bcc.n	0x1ca4
    1ca0:	6818      	ldr	r0, [r3, #0]
    1ca2:	60d8      	str	r0, [r3, #12]
    1ca4:	4608      	mov	r0, r1
    1ca6:	68d9      	ldr	r1, [r3, #12]
    1ca8:	f001 fe64 	bl	0x3974
    1cac:	bd10      	pop	{r4, pc}
    1cae:	4770      	bx	lr
    1cb0:	b538      	push	{r3, r4, r5, lr}
    1cb2:	4605      	mov	r5, r0
    1cb4:	f001 fd0e 	bl	0x36d4
    1cb8:	f895 4045 	ldrb.w	r4, [r5, #69]	; 0x45
    1cbc:	b264      	sxtb	r4, r4
    1cbe:	e001      	b.n	0x1cc4
    1cc0:	3c01      	subs	r4, #1
    1cc2:	b264      	sxtb	r4, r4
    1cc4:	2c00      	cmp	r4, #0
    1cc6:	dd0a      	ble.n	0x1cde
    1cc8:	6a6b      	ldr	r3, [r5, #36]	; 0x24
    1cca:	b143      	cbz	r3, 0x1cde
    1ccc:	f105 0024 	add.w	r0, r5, #36	; 0x24
    1cd0:	f000 fef4 	bl	0x2abc
    1cd4:	2800      	cmp	r0, #0
    1cd6:	d0f3      	beq.n	0x1cc0
    1cd8:	f000 ff8c 	bl	0x2bf4
    1cdc:	e7f0      	b.n	0x1cc0
    1cde:	23ff      	movs	r3, #255	; 0xff
    1ce0:	f885 3045 	strb.w	r3, [r5, #69]	; 0x45
    1ce4:	f001 fd18 	bl	0x3718
    1ce8:	f001 fcf4 	bl	0x36d4
    1cec:	f895 4044 	ldrb.w	r4, [r5, #68]	; 0x44
    1cf0:	b264      	sxtb	r4, r4
    1cf2:	e001      	b.n	0x1cf8
    1cf4:	3c01      	subs	r4, #1
    1cf6:	b264      	sxtb	r4, r4
    1cf8:	2c00      	cmp	r4, #0
    1cfa:	dd0a      	ble.n	0x1d12
    1cfc:	692b      	ldr	r3, [r5, #16]
    1cfe:	b143      	cbz	r3, 0x1d12
    1d00:	f105 0010 	add.w	r0, r5, #16
    1d04:	f000 feda 	bl	0x2abc
    1d08:	2800      	cmp	r0, #0
    1d0a:	d0f3      	beq.n	0x1cf4
    1d0c:	f000 ff72 	bl	0x2bf4
    1d10:	e7f0      	b.n	0x1cf4
    1d12:	23ff      	movs	r3, #255	; 0xff
    1d14:	f885 3044 	strb.w	r3, [r5, #68]	; 0x44
    1d18:	f001 fcfe 	bl	0x3718
    1d1c:	bd38      	pop	{r3, r4, r5, pc}
    1d1e:	0000      	movs	r0, r0
    1d20:	b538      	push	{r3, r4, r5, lr}
    1d22:	b330      	cbz	r0, 0x1d72
    1d24:	4604      	mov	r4, r0
    1d26:	460d      	mov	r5, r1
    1d28:	f001 fcd4 	bl	0x36d4
    1d2c:	6821      	ldr	r1, [r4, #0]
    1d2e:	6be2      	ldr	r2, [r4, #60]	; 0x3c
    1d30:	6c23      	ldr	r3, [r4, #64]	; 0x40
    1d32:	fb03 1002 	mla	r0, r3, r2, r1
    1d36:	6060      	str	r0, [r4, #4]
    1d38:	2000      	movs	r0, #0
    1d3a:	63a0      	str	r0, [r4, #56]	; 0x38
    1d3c:	60a1      	str	r1, [r4, #8]
    1d3e:	3a01      	subs	r2, #1
    1d40:	fb02 1303 	mla	r3, r2, r3, r1
    1d44:	60e3      	str	r3, [r4, #12]
    1d46:	23ff      	movs	r3, #255	; 0xff
    1d48:	f884 3044 	strb.w	r3, [r4, #68]	; 0x44
    1d4c:	f884 3045 	strb.w	r3, [r4, #69]	; 0x45
    1d50:	b9c5      	cbnz	r5, 0x1d84
    1d52:	6923      	ldr	r3, [r4, #16]
    1d54:	b1f3      	cbz	r3, 0x1d94
    1d56:	f104 0010 	add.w	r0, r4, #16
    1d5a:	f000 feaf 	bl	0x2abc
    1d5e:	b1c8      	cbz	r0, 0x1d94
    1d60:	f04f 5280 	mov.w	r2, #268435456	; 0x10000000
    1d64:	4b0d      	ldr	r3, [pc, #52]	; (0x1d9c)
    1d66:	601a      	str	r2, [r3, #0]
    1d68:	f3bf 8f4f 	dsb	sy
    1d6c:	f3bf 8f6f 	isb	sy
    1d70:	e010      	b.n	0x1d94
    1d72:	f04f 0350 	mov.w	r3, #80	; 0x50
    1d76:	f383 8811 	msr	BASEPRI, r3
    1d7a:	f3bf 8f6f 	isb	sy
    1d7e:	f3bf 8f4f 	dsb	sy
    1d82:	e7fe      	b.n	0x1d82
    1d84:	f104 0010 	add.w	r0, r4, #16
    1d88:	f7ff fee2 	bl	0x1b50
    1d8c:	f104 0024 	add.w	r0, r4, #36	; 0x24
    1d90:	f7ff fede 	bl	0x1b50
    1d94:	f001 fcc0 	bl	0x3718
    1d98:	2001      	movs	r0, #1
    1d9a:	bd38      	pop	{r3, r4, r5, pc}
    1d9c:	ed04 e000 	stc	0, cr14, [r4, #-0]
    1da0:	b510      	push	{r4, lr}
    1da2:	9b02      	ldr	r3, [sp, #8]
    1da4:	460c      	mov	r4, r1
    1da6:	b139      	cbz	r1, 0x1db8
    1da8:	601a      	str	r2, [r3, #0]
    1daa:	63d8      	str	r0, [r3, #60]	; 0x3c
    1dac:	641c      	str	r4, [r3, #64]	; 0x40
    1dae:	2101      	movs	r1, #1
    1db0:	4618      	mov	r0, r3
    1db2:	f7ff ffb5 	bl	0x1d20
    1db6:	bd10      	pop	{r4, pc}
    1db8:	601b      	str	r3, [r3, #0]
    1dba:	e7f6      	b.n	0x1daa
    1dbc:	b940      	cbnz	r0, 0x1dd0
    1dbe:	f04f 0350 	mov.w	r3, #80	; 0x50
    1dc2:	f383 8811 	msr	BASEPRI, r3
    1dc6:	f3bf 8f6f 	isb	sy
    1dca:	f3bf 8f4f 	dsb	sy
    1dce:	e7fe      	b.n	0x1dce
    1dd0:	b5f0      	push	{r4, r5, r6, r7, lr}
    1dd2:	b083      	sub	sp, #12
    1dd4:	4605      	mov	r5, r0
    1dd6:	b111      	cbz	r1, 0x1dde
    1dd8:	fb01 f000 	mul.w	r0, r1, r0
    1ddc:	e000      	b.n	0x1de0
    1dde:	2000      	movs	r0, #0
    1de0:	4617      	mov	r7, r2
    1de2:	460c      	mov	r4, r1
    1de4:	3048      	adds	r0, #72	; 0x48
    1de6:	f001 fb6b 	bl	0x34c0
    1dea:	4606      	mov	r6, r0
    1dec:	b138      	cbz	r0, 0x1dfe
    1dee:	9000      	str	r0, [sp, #0]
    1df0:	463b      	mov	r3, r7
    1df2:	f100 0248 	add.w	r2, r0, #72	; 0x48
    1df6:	4621      	mov	r1, r4
    1df8:	4628      	mov	r0, r5
    1dfa:	f7ff ffd1 	bl	0x1da0
    1dfe:	4630      	mov	r0, r6
    1e00:	b003      	add	sp, #12
    1e02:	bdf0      	pop	{r4, r5, r6, r7, pc}
    1e04:	b5f0      	push	{r4, r5, r6, r7, lr}
    1e06:	b085      	sub	sp, #20
    1e08:	9201      	str	r2, [sp, #4]
    1e0a:	b160      	cbz	r0, 0x1e26
    1e0c:	4604      	mov	r4, r0
    1e0e:	b199      	cbz	r1, 0x1e38
    1e10:	2501      	movs	r5, #1
    1e12:	b9bd      	cbnz	r5, 0x1e44
    1e14:	f04f 0350 	mov.w	r3, #80	; 0x50
    1e18:	f383 8811 	msr	BASEPRI, r3
    1e1c:	f3bf 8f6f 	isb	sy
    1e20:	f3bf 8f4f 	dsb	sy
    1e24:	e7fe      	b.n	0x1e24
    1e26:	f04f 0350 	mov.w	r3, #80	; 0x50
    1e2a:	f383 8811 	msr	BASEPRI, r3
    1e2e:	f3bf 8f6f 	isb	sy
    1e32:	f3bf 8f4f 	dsb	sy
    1e36:	e7fe      	b.n	0x1e36
    1e38:	6c02      	ldr	r2, [r0, #64]	; 0x40
    1e3a:	b90a      	cbnz	r2, 0x1e40
    1e3c:	2501      	movs	r5, #1
    1e3e:	e7e8      	b.n	0x1e12
    1e40:	2500      	movs	r5, #0
    1e42:	e7e6      	b.n	0x1e12
    1e44:	2b02      	cmp	r3, #2
    1e46:	d009      	beq.n	0x1e5c
    1e48:	b96d      	cbnz	r5, 0x1e66
    1e4a:	f04f 0350 	mov.w	r3, #80	; 0x50
    1e4e:	f383 8811 	msr	BASEPRI, r3
    1e52:	f3bf 8f6f 	isb	sy
    1e56:	f3bf 8f4f 	dsb	sy
    1e5a:	e7fe      	b.n	0x1e5a
    1e5c:	6be2      	ldr	r2, [r4, #60]	; 0x3c
    1e5e:	2a01      	cmp	r2, #1
    1e60:	d0f2      	beq.n	0x1e48
    1e62:	2500      	movs	r5, #0
    1e64:	e7f0      	b.n	0x1e48
    1e66:	461e      	mov	r6, r3
    1e68:	460f      	mov	r7, r1
    1e6a:	f000 fec9 	bl	0x2c00
    1e6e:	b910      	cbnz	r0, 0x1e76
    1e70:	9b01      	ldr	r3, [sp, #4]
    1e72:	b103      	cbz	r3, 0x1e76
    1e74:	2500      	movs	r5, #0
    1e76:	b945      	cbnz	r5, 0x1e8a
    1e78:	f04f 0350 	mov.w	r3, #80	; 0x50
    1e7c:	f383 8811 	msr	BASEPRI, r3
    1e80:	f3bf 8f6f 	isb	sy
    1e84:	f3bf 8f4f 	dsb	sy
    1e88:	e7fe      	b.n	0x1e88
    1e8a:	2500      	movs	r5, #0
    1e8c:	e02c      	b.n	0x1ee8
    1e8e:	4632      	mov	r2, r6
    1e90:	4639      	mov	r1, r7
    1e92:	4620      	mov	r0, r4
    1e94:	f7ff febf 	bl	0x1c16
    1e98:	6a63      	ldr	r3, [r4, #36]	; 0x24
    1e9a:	b18b      	cbz	r3, 0x1ec0
    1e9c:	f104 0024 	add.w	r0, r4, #36	; 0x24
    1ea0:	f000 fe0c 	bl	0x2abc
    1ea4:	b138      	cbz	r0, 0x1eb6
    1ea6:	f04f 5280 	mov.w	r2, #268435456	; 0x10000000
    1eaa:	4b37      	ldr	r3, [pc, #220]	; (0x1f88)
    1eac:	601a      	str	r2, [r3, #0]
    1eae:	f3bf 8f4f 	dsb	sy
    1eb2:	f3bf 8f6f 	isb	sy
    1eb6:	f001 fc2f 	bl	0x3718
    1eba:	2001      	movs	r0, #1
    1ebc:	b005      	add	sp, #20
    1ebe:	bdf0      	pop	{r4, r5, r6, r7, pc}
    1ec0:	2800      	cmp	r0, #0
    1ec2:	d0f8      	beq.n	0x1eb6
    1ec4:	f04f 5280 	mov.w	r2, #268435456	; 0x10000000
    1ec8:	4b2f      	ldr	r3, [pc, #188]	; (0x1f88)
    1eca:	601a      	str	r2, [r3, #0]
    1ecc:	f3bf 8f4f 	dsb	sy
    1ed0:	f3bf 8f6f 	isb	sy
    1ed4:	e7ef      	b.n	0x1eb6
    1ed6:	f001 fc1f 	bl	0x3718
    1eda:	2000      	movs	r0, #0
    1edc:	e7ee      	b.n	0x1ebc
    1ede:	4620      	mov	r0, r4
    1ee0:	f7ff fee6 	bl	0x1cb0
    1ee4:	f000 fc96 	bl	0x2814
    1ee8:	f001 fbf4 	bl	0x36d4
    1eec:	6ba2      	ldr	r2, [r4, #56]	; 0x38
    1eee:	6be3      	ldr	r3, [r4, #60]	; 0x3c
    1ef0:	429a      	cmp	r2, r3
    1ef2:	d3cc      	bcc.n	0x1e8e
    1ef4:	2e02      	cmp	r6, #2
    1ef6:	d0ca      	beq.n	0x1e8e
    1ef8:	9b01      	ldr	r3, [sp, #4]
    1efa:	2b00      	cmp	r3, #0
    1efc:	d0eb      	beq.n	0x1ed6
    1efe:	b91d      	cbnz	r5, 0x1f08
    1f00:	a802      	add	r0, sp, #8
    1f02:	f000 fe21 	bl	0x2b48
    1f06:	2501      	movs	r5, #1
    1f08:	f001 fc06 	bl	0x3718
    1f0c:	f000 fbe4 	bl	0x26d8
    1f10:	f001 fbe0 	bl	0x36d4
    1f14:	f894 3044 	ldrb.w	r3, [r4, #68]	; 0x44
    1f18:	b25b      	sxtb	r3, r3
    1f1a:	f1b3 3fff 	cmp.w	r3, #4294967295	; 0xffffffff
    1f1e:	d102      	bne.n	0x1f26
    1f20:	2300      	movs	r3, #0
    1f22:	f884 3044 	strb.w	r3, [r4, #68]	; 0x44
    1f26:	f894 3045 	ldrb.w	r3, [r4, #69]	; 0x45
    1f2a:	b25b      	sxtb	r3, r3
    1f2c:	f1b3 3fff 	cmp.w	r3, #4294967295	; 0xffffffff
    1f30:	d102      	bne.n	0x1f38
    1f32:	2300      	movs	r3, #0
    1f34:	f884 3045 	strb.w	r3, [r4, #69]	; 0x45
    1f38:	f001 fbee 	bl	0x3718
    1f3c:	a901      	add	r1, sp, #4
    1f3e:	a802      	add	r0, sp, #8
    1f40:	f000 fe18 	bl	0x2b74
    1f44:	b9c8      	cbnz	r0, 0x1f7a
    1f46:	4620      	mov	r0, r4
    1f48:	f7ff fe49 	bl	0x1bde
    1f4c:	2800      	cmp	r0, #0
    1f4e:	d0c6      	beq.n	0x1ede
    1f50:	9901      	ldr	r1, [sp, #4]
    1f52:	f104 0010 	add.w	r0, r4, #16
    1f56:	f000 fd7d 	bl	0x2a54
    1f5a:	4620      	mov	r0, r4
    1f5c:	f7ff fea8 	bl	0x1cb0
    1f60:	f000 fc58 	bl	0x2814
    1f64:	2800      	cmp	r0, #0
    1f66:	d1bf      	bne.n	0x1ee8
    1f68:	f04f 5280 	mov.w	r2, #268435456	; 0x10000000
    1f6c:	4b06      	ldr	r3, [pc, #24]	; (0x1f88)
    1f6e:	601a      	str	r2, [r3, #0]
    1f70:	f3bf 8f4f 	dsb	sy
    1f74:	f3bf 8f6f 	isb	sy
    1f78:	e7b6      	b.n	0x1ee8
    1f7a:	4620      	mov	r0, r4
    1f7c:	f7ff fe98 	bl	0x1cb0
    1f80:	f000 fc48 	bl	0x2814
    1f84:	2000      	movs	r0, #0
    1f86:	e799      	b.n	0x1ebc
    1f88:	ed04 e000 	stc	0, cr14, [r4, #-0]
    1f8c:	b148      	cbz	r0, 0x1fa2
    1f8e:	b508      	push	{r3, lr}
    1f90:	2100      	movs	r1, #0
    1f92:	6041      	str	r1, [r0, #4]
    1f94:	6001      	str	r1, [r0, #0]
    1f96:	60c1      	str	r1, [r0, #12]
    1f98:	460b      	mov	r3, r1
    1f9a:	460a      	mov	r2, r1
    1f9c:	f7ff ff32 	bl	0x1e04
    1fa0:	bd08      	pop	{r3, pc}
    1fa2:	4770      	bx	lr
    1fa4:	b510      	push	{r4, lr}
    1fa6:	4602      	mov	r2, r0
    1fa8:	2100      	movs	r1, #0
    1faa:	2001      	movs	r0, #1
    1fac:	f7ff ff06 	bl	0x1dbc
    1fb0:	4604      	mov	r4, r0
    1fb2:	f7ff ffeb 	bl	0x1f8c
    1fb6:	4620      	mov	r0, r4
    1fb8:	bd10      	pop	{r4, pc}
    1fba:	e92d 43f8 	stmdb	sp!, {r3, r4, r5, r6, r7, r8, r9, lr}
    1fbe:	b160      	cbz	r0, 0x1fda
    1fc0:	4604      	mov	r4, r0
    1fc2:	b199      	cbz	r1, 0x1fec
    1fc4:	2001      	movs	r0, #1
    1fc6:	b9b8      	cbnz	r0, 0x1ff8
    1fc8:	f04f 0350 	mov.w	r3, #80	; 0x50
    1fcc:	f383 8811 	msr	BASEPRI, r3
    1fd0:	f3bf 8f6f 	isb	sy
    1fd4:	f3bf 8f4f 	dsb	sy
    1fd8:	e7fe      	b.n	0x1fd8
    1fda:	f04f 0350 	mov.w	r3, #80	; 0x50
    1fde:	f383 8811 	msr	BASEPRI, r3
    1fe2:	f3bf 8f6f 	isb	sy
    1fe6:	f3bf 8f4f 	dsb	sy
    1fea:	e7fe      	b.n	0x1fea
    1fec:	6c00      	ldr	r0, [r0, #64]	; 0x40
    1fee:	b908      	cbnz	r0, 0x1ff4
    1ff0:	2001      	movs	r0, #1
    1ff2:	e7e8      	b.n	0x1fc6
    1ff4:	2000      	movs	r0, #0
    1ff6:	e7e6      	b.n	0x1fc6
    1ff8:	2b02      	cmp	r3, #2
    1ffa:	d009      	beq.n	0x2010
    1ffc:	b968      	cbnz	r0, 0x201a
    1ffe:	f04f 0350 	mov.w	r3, #80	; 0x50
    2002:	f383 8811 	msr	BASEPRI, r3
    2006:	f3bf 8f6f 	isb	sy
    200a:	f3bf 8f4f 	dsb	sy
    200e:	e7fe      	b.n	0x200e
    2010:	6be5      	ldr	r5, [r4, #60]	; 0x3c
    2012:	2d01      	cmp	r5, #1
    2014:	d0f2      	beq.n	0x1ffc
    2016:	2000      	movs	r0, #0
    2018:	e7f0      	b.n	0x1ffc
    201a:	461f      	mov	r7, r3
    201c:	4690      	mov	r8, r2
    201e:	4689      	mov	r9, r1
    2020:	f001 fc30 	bl	0x3884
    2024:	f3ef 8611 	mrs	r6, BASEPRI
    2028:	f04f 0350 	mov.w	r3, #80	; 0x50
    202c:	f383 8811 	msr	BASEPRI, r3
    2030:	f3bf 8f6f 	isb	sy
    2034:	f3bf 8f4f 	dsb	sy
    2038:	6ba2      	ldr	r2, [r4, #56]	; 0x38
    203a:	6be3      	ldr	r3, [r4, #60]	; 0x3c
    203c:	429a      	cmp	r2, r3
    203e:	d301      	bcc.n	0x2044
    2040:	2f02      	cmp	r7, #2
    2042:	d121      	bne.n	0x2088
    2044:	f894 5045 	ldrb.w	r5, [r4, #69]	; 0x45
    2048:	b26d      	sxtb	r5, r5
    204a:	463a      	mov	r2, r7
    204c:	4649      	mov	r1, r9
    204e:	4620      	mov	r0, r4
    2050:	f7ff fde1 	bl	0x1c16
    2054:	f1b5 3fff 	cmp.w	r5, #4294967295	; 0xffffffff
    2058:	d110      	bne.n	0x207c
    205a:	6a63      	ldr	r3, [r4, #36]	; 0x24
    205c:	b1b3      	cbz	r3, 0x208c
    205e:	f104 0024 	add.w	r0, r4, #36	; 0x24
    2062:	f000 fd2b 	bl	0x2abc
    2066:	b198      	cbz	r0, 0x2090
    2068:	f1b8 0f00 	cmp.w	r8, #0
    206c:	d012      	beq.n	0x2094
    206e:	2001      	movs	r0, #1
    2070:	f8c8 0000 	str.w	r0, [r8]
    2074:	f386 8811 	msr	BASEPRI, r6
    2078:	e8bd 83f8 	ldmia.w	sp!, {r3, r4, r5, r6, r7, r8, r9, pc}
    207c:	1c6b      	adds	r3, r5, #1
    207e:	b25b      	sxtb	r3, r3
    2080:	f884 3045 	strb.w	r3, [r4, #69]	; 0x45
    2084:	2001      	movs	r0, #1
    2086:	e7f5      	b.n	0x2074
    2088:	2000      	movs	r0, #0
    208a:	e7f3      	b.n	0x2074
    208c:	2001      	movs	r0, #1
    208e:	e7f1      	b.n	0x2074
    2090:	2001      	movs	r0, #1
    2092:	e7ef      	b.n	0x2074
    2094:	2001      	movs	r0, #1
    2096:	e7ed      	b.n	0x2074
    2098:	e92d 41f0 	stmdb	sp!, {r4, r5, r6, r7, r8, lr}
    209c:	b084      	sub	sp, #16
    209e:	9201      	str	r2, [sp, #4]
    20a0:	b160      	cbz	r0, 0x20bc
    20a2:	4604      	mov	r4, r0
    20a4:	b199      	cbz	r1, 0x20ce
    20a6:	2501      	movs	r5, #1
    20a8:	b9bd      	cbnz	r5, 0x20da
    20aa:	f04f 0350 	mov.w	r3, #80	; 0x50
    20ae:	f383 8811 	msr	BASEPRI, r3
    20b2:	f3bf 8f6f 	isb	sy
    20b6:	f3bf 8f4f 	dsb	sy
    20ba:	e7fe      	b.n	0x20ba
    20bc:	f04f 0350 	mov.w	r3, #80	; 0x50
    20c0:	f383 8811 	msr	BASEPRI, r3
    20c4:	f3bf 8f6f 	isb	sy
    20c8:	f3bf 8f4f 	dsb	sy
    20cc:	e7fe      	b.n	0x20cc
    20ce:	6c02      	ldr	r2, [r0, #64]	; 0x40
    20d0:	b90a      	cbnz	r2, 0x20d6
    20d2:	2501      	movs	r5, #1
    20d4:	e7e8      	b.n	0x20a8
    20d6:	2500      	movs	r5, #0
    20d8:	e7e6      	b.n	0x20a8
    20da:	461f      	mov	r7, r3
    20dc:	4688      	mov	r8, r1
    20de:	f000 fd8f 	bl	0x2c00
    20e2:	b910      	cbnz	r0, 0x20ea
    20e4:	9b01      	ldr	r3, [sp, #4]
    20e6:	b103      	cbz	r3, 0x20ea
    20e8:	2500      	movs	r5, #0
    20ea:	b945      	cbnz	r5, 0x20fe
    20ec:	f04f 0350 	mov.w	r3, #80	; 0x50
    20f0:	f383 8811 	msr	BASEPRI, r3
    20f4:	f3bf 8f6f 	isb	sy
    20f8:	f3bf 8f4f 	dsb	sy
    20fc:	e7fe      	b.n	0x20fc
    20fe:	2600      	movs	r6, #0
    2100:	e05d      	b.n	0x21be
    2102:	68e6      	ldr	r6, [r4, #12]
    2104:	4641      	mov	r1, r8
    2106:	4620      	mov	r0, r4
    2108:	f7ff fdc0 	bl	0x1c8c
    210c:	b9df      	cbnz	r7, 0x2146
    210e:	3d01      	subs	r5, #1
    2110:	63a5      	str	r5, [r4, #56]	; 0x38
    2112:	6823      	ldr	r3, [r4, #0]
    2114:	b913      	cbnz	r3, 0x211c
    2116:	f000 fe2f 	bl	0x2d78
    211a:	6060      	str	r0, [r4, #4]
    211c:	6923      	ldr	r3, [r4, #16]
    211e:	b163      	cbz	r3, 0x213a
    2120:	f104 0010 	add.w	r0, r4, #16
    2124:	f000 fcca 	bl	0x2abc
    2128:	b138      	cbz	r0, 0x213a
    212a:	f04f 5280 	mov.w	r2, #268435456	; 0x10000000
    212e:	4b45      	ldr	r3, [pc, #276]	; (0x2244)
    2130:	601a      	str	r2, [r3, #0]
    2132:	f3bf 8f4f 	dsb	sy
    2136:	f3bf 8f6f 	isb	sy
    213a:	f001 faed 	bl	0x3718
    213e:	2001      	movs	r0, #1
    2140:	b004      	add	sp, #16
    2142:	e8bd 81f0 	ldmia.w	sp!, {r4, r5, r6, r7, r8, pc}
    2146:	60e6      	str	r6, [r4, #12]
    2148:	6a63      	ldr	r3, [r4, #36]	; 0x24
    214a:	2b00      	cmp	r3, #0
    214c:	d0f5      	beq.n	0x213a
    214e:	f104 0024 	add.w	r0, r4, #36	; 0x24
    2152:	f000 fcb3 	bl	0x2abc
    2156:	2800      	cmp	r0, #0
    2158:	d0ef      	beq.n	0x213a
    215a:	f04f 5280 	mov.w	r2, #268435456	; 0x10000000
    215e:	4b39      	ldr	r3, [pc, #228]	; (0x2244)
    2160:	601a      	str	r2, [r3, #0]
    2162:	f3bf 8f4f 	dsb	sy
    2166:	f3bf 8f6f 	isb	sy
    216a:	e7e6      	b.n	0x213a
    216c:	f001 fad4 	bl	0x3718
    2170:	2000      	movs	r0, #0
    2172:	e7e5      	b.n	0x2140
    2174:	a802      	add	r0, sp, #8
    2176:	f000 fce7 	bl	0x2b48
    217a:	2601      	movs	r6, #1
    217c:	e029      	b.n	0x21d2
    217e:	2300      	movs	r3, #0
    2180:	f884 3044 	strb.w	r3, [r4, #68]	; 0x44
    2184:	e031      	b.n	0x21ea
    2186:	2300      	movs	r3, #0
    2188:	f884 3045 	strb.w	r3, [r4, #69]	; 0x45
    218c:	e033      	b.n	0x21f6
    218e:	f001 faa1 	bl	0x36d4
    2192:	6860      	ldr	r0, [r4, #4]
    2194:	f000 fd44 	bl	0x2c20
    2198:	f001 fabe 	bl	0x3718
    219c:	e03b      	b.n	0x2216
    219e:	4620      	mov	r0, r4
    21a0:	f7ff fd86 	bl	0x1cb0
    21a4:	f000 fb36 	bl	0x2814
    21a8:	e009      	b.n	0x21be
    21aa:	4620      	mov	r0, r4
    21ac:	f7ff fd80 	bl	0x1cb0
    21b0:	f000 fb30 	bl	0x2814
    21b4:	4620      	mov	r0, r4
    21b6:	f7ff fd21 	bl	0x1bfc
    21ba:	2800      	cmp	r0, #0
    21bc:	d140      	bne.n	0x2240
    21be:	f001 fa89 	bl	0x36d4
    21c2:	6ba5      	ldr	r5, [r4, #56]	; 0x38
    21c4:	2d00      	cmp	r5, #0
    21c6:	d19c      	bne.n	0x2102
    21c8:	9b01      	ldr	r3, [sp, #4]
    21ca:	2b00      	cmp	r3, #0
    21cc:	d0ce      	beq.n	0x216c
    21ce:	2e00      	cmp	r6, #0
    21d0:	d0d0      	beq.n	0x2174
    21d2:	f001 faa1 	bl	0x3718
    21d6:	f000 fa7f 	bl	0x26d8
    21da:	f001 fa7b 	bl	0x36d4
    21de:	f894 3044 	ldrb.w	r3, [r4, #68]	; 0x44
    21e2:	b25b      	sxtb	r3, r3
    21e4:	f1b3 3fff 	cmp.w	r3, #4294967295	; 0xffffffff
    21e8:	d0c9      	beq.n	0x217e
    21ea:	f894 3045 	ldrb.w	r3, [r4, #69]	; 0x45
    21ee:	b25b      	sxtb	r3, r3
    21f0:	f1b3 3fff 	cmp.w	r3, #4294967295	; 0xffffffff
    21f4:	d0c7      	beq.n	0x2186
    21f6:	f001 fa8f 	bl	0x3718
    21fa:	a901      	add	r1, sp, #4
    21fc:	a802      	add	r0, sp, #8
    21fe:	f000 fcb9 	bl	0x2b74
    2202:	2800      	cmp	r0, #0
    2204:	d1d1      	bne.n	0x21aa
    2206:	4620      	mov	r0, r4
    2208:	f7ff fcf8 	bl	0x1bfc
    220c:	2800      	cmp	r0, #0
    220e:	d0c6      	beq.n	0x219e
    2210:	6823      	ldr	r3, [r4, #0]
    2212:	2b00      	cmp	r3, #0
    2214:	d0bb      	beq.n	0x218e
    2216:	9901      	ldr	r1, [sp, #4]
    2218:	f104 0024 	add.w	r0, r4, #36	; 0x24
    221c:	f000 fc1a 	bl	0x2a54
    2220:	4620      	mov	r0, r4
    2222:	f7ff fd45 	bl	0x1cb0
    2226:	f000 faf5 	bl	0x2814
    222a:	2800      	cmp	r0, #0
    222c:	d1c7      	bne.n	0x21be
    222e:	f04f 5280 	mov.w	r2, #268435456	; 0x10000000
    2232:	4b04      	ldr	r3, [pc, #16]	; (0x2244)
    2234:	601a      	str	r2, [r3, #0]
    2236:	f3bf 8f4f 	dsb	sy
    223a:	f3bf 8f6f 	isb	sy
    223e:	e7be      	b.n	0x21be
    2240:	2000      	movs	r0, #0
    2242:	e77d      	b.n	0x2140
    2244:	ed04 e000 	stc	0, cr14, [r4, #-0]
    2248:	e92d 43f8 	stmdb	sp!, {r3, r4, r5, r6, r7, r8, r9, lr}
    224c:	b160      	cbz	r0, 0x2268
    224e:	4604      	mov	r4, r0
    2250:	b199      	cbz	r1, 0x227a
    2252:	2301      	movs	r3, #1
    2254:	b9bb      	cbnz	r3, 0x2286
    2256:	f04f 0350 	mov.w	r3, #80	; 0x50
    225a:	f383 8811 	msr	BASEPRI, r3
    225e:	f3bf 8f6f 	isb	sy
    2262:	f3bf 8f4f 	dsb	sy
    2266:	e7fe      	b.n	0x2266
    2268:	f04f 0350 	mov.w	r3, #80	; 0x50
    226c:	f383 8811 	msr	BASEPRI, r3
    2270:	f3bf 8f6f 	isb	sy
    2274:	f3bf 8f4f 	dsb	sy
    2278:	e7fe      	b.n	0x2278
    227a:	6c03      	ldr	r3, [r0, #64]	; 0x40
    227c:	b90b      	cbnz	r3, 0x2282
    227e:	2301      	movs	r3, #1
    2280:	e7e8      	b.n	0x2254
    2282:	2300      	movs	r3, #0
    2284:	e7e6      	b.n	0x2254
    2286:	4617      	mov	r7, r2
    2288:	4689      	mov	r9, r1
    228a:	f001 fafb 	bl	0x3884
    228e:	f3ef 8611 	mrs	r6, BASEPRI
    2292:	f04f 0350 	mov.w	r3, #80	; 0x50
    2296:	f383 8811 	msr	BASEPRI, r3
    229a:	f3bf 8f6f 	isb	sy
    229e:	f3bf 8f4f 	dsb	sy
    22a2:	f8d4 8038 	ldr.w	r8, [r4, #56]	; 0x38
    22a6:	f1b8 0f00 	cmp.w	r8, #0
    22aa:	d020      	beq.n	0x22ee
    22ac:	f894 5044 	ldrb.w	r5, [r4, #68]	; 0x44
    22b0:	b26d      	sxtb	r5, r5
    22b2:	4649      	mov	r1, r9
    22b4:	4620      	mov	r0, r4
    22b6:	f7ff fce9 	bl	0x1c8c
    22ba:	f108 33ff 	add.w	r3, r8, #4294967295	; 0xffffffff
    22be:	63a3      	str	r3, [r4, #56]	; 0x38
    22c0:	f1b5 3fff 	cmp.w	r5, #4294967295	; 0xffffffff
    22c4:	d10d      	bne.n	0x22e2
    22c6:	6923      	ldr	r3, [r4, #16]
    22c8:	b19b      	cbz	r3, 0x22f2
    22ca:	f104 0010 	add.w	r0, r4, #16
    22ce:	f000 fbf5 	bl	0x2abc
    22d2:	b180      	cbz	r0, 0x22f6
    22d4:	b18f      	cbz	r7, 0x22fa
    22d6:	2001      	movs	r0, #1
    22d8:	6038      	str	r0, [r7, #0]
    22da:	f386 8811 	msr	BASEPRI, r6
    22de:	e8bd 83f8 	ldmia.w	sp!, {r3, r4, r5, r6, r7, r8, r9, pc}
    22e2:	1c6b      	adds	r3, r5, #1
    22e4:	b25b      	sxtb	r3, r3
    22e6:	f884 3044 	strb.w	r3, [r4, #68]	; 0x44
    22ea:	2001      	movs	r0, #1
    22ec:	e7f5      	b.n	0x22da
    22ee:	2000      	movs	r0, #0
    22f0:	e7f3      	b.n	0x22da
    22f2:	2001      	movs	r0, #1
    22f4:	e7f1      	b.n	0x22da
    22f6:	2001      	movs	r0, #1
    22f8:	e7ef      	b.n	0x22da
    22fa:	2001      	movs	r0, #1
    22fc:	e7ed      	b.n	0x22da
    22fe:	0000      	movs	r0, r0
    2300:	2300      	movs	r3, #0
    2302:	2b07      	cmp	r3, #7
    2304:	d80c      	bhi.n	0x2320
    2306:	4a07      	ldr	r2, [pc, #28]	; (0x2324)
    2308:	f852 2033 	ldr.w	r2, [r2, r3, lsl #3]
    230c:	b10a      	cbz	r2, 0x2312
    230e:	3301      	adds	r3, #1
    2310:	e7f7      	b.n	0x2302
    2312:	4a04      	ldr	r2, [pc, #16]	; (0x2324)
    2314:	f842 1033 	str.w	r1, [r2, r3, lsl #3]
    2318:	eb02 03c3 	add.w	r3, r2, r3, lsl #3
    231c:	6058      	str	r0, [r3, #4]
    231e:	4770      	bx	lr
    2320:	4770      	bx	lr
    2322:	bf00      	nop
    2324:	2a50      	cmp	r2, #80	; 0x50
    2326:	2000      	movs	r0, #0
    2328:	b570      	push	{r4, r5, r6, lr}
    232a:	4604      	mov	r4, r0
    232c:	460d      	mov	r5, r1
    232e:	4616      	mov	r6, r2
    2330:	f001 f9d0 	bl	0x36d4
    2334:	f894 3044 	ldrb.w	r3, [r4, #68]	; 0x44
    2338:	b25b      	sxtb	r3, r3
    233a:	f1b3 3fff 	cmp.w	r3, #4294967295	; 0xffffffff
    233e:	d00d      	beq.n	0x235c
    2340:	f894 3045 	ldrb.w	r3, [r4, #69]	; 0x45
    2344:	b25b      	sxtb	r3, r3
    2346:	f1b3 3fff 	cmp.w	r3, #4294967295	; 0xffffffff
    234a:	d00b      	beq.n	0x2364
    234c:	f001 f9e4 	bl	0x3718
    2350:	6ba3      	ldr	r3, [r4, #56]	; 0x38
    2352:	b15b      	cbz	r3, 0x236c
    2354:	4620      	mov	r0, r4
    2356:	f7ff fcab 	bl	0x1cb0
    235a:	bd70      	pop	{r4, r5, r6, pc}
    235c:	2300      	movs	r3, #0
    235e:	f884 3044 	strb.w	r3, [r4, #68]	; 0x44
    2362:	e7ed      	b.n	0x2340
    2364:	2300      	movs	r3, #0
    2366:	f884 3045 	strb.w	r3, [r4, #69]	; 0x45
    236a:	e7ef      	b.n	0x234c
    236c:	4632      	mov	r2, r6
    236e:	4629      	mov	r1, r5
    2370:	f104 0024 	add.w	r0, r4, #36	; 0x24
    2374:	f000 fb86 	bl	0x2a84
    2378:	e7ec      	b.n	0x2354
    237a:	0000      	movs	r0, r0
    237c:	4b0a      	ldr	r3, [pc, #40]	; (0x23a8)
    237e:	681b      	ldr	r3, [r3, #0]
    2380:	681b      	ldr	r3, [r3, #0]
    2382:	b94b      	cbnz	r3, 0x2398
    2384:	2301      	movs	r3, #1
    2386:	b94b      	cbnz	r3, 0x239c
    2388:	4b07      	ldr	r3, [pc, #28]	; (0x23a8)
    238a:	681b      	ldr	r3, [r3, #0]
    238c:	68db      	ldr	r3, [r3, #12]
    238e:	68db      	ldr	r3, [r3, #12]
    2390:	685a      	ldr	r2, [r3, #4]
    2392:	4b06      	ldr	r3, [pc, #24]	; (0x23ac)
    2394:	601a      	str	r2, [r3, #0]
    2396:	4770      	bx	lr
    2398:	2300      	movs	r3, #0
    239a:	e7f4      	b.n	0x2386
    239c:	f04f 32ff 	mov.w	r2, #4294967295	; 0xffffffff
    23a0:	4b02      	ldr	r3, [pc, #8]	; (0x23ac)
    23a2:	601a      	str	r2, [r3, #0]
    23a4:	4770      	bx	lr
    23a6:	bf00      	nop
    23a8:	00d8      	lsls	r0, r3, #3
    23aa:	2000      	movs	r0, #0
    23ac:	01b0      	lsls	r0, r6, #6
    23ae:	2000      	movs	r0, #0
    23b0:	b510      	push	{r4, lr}
    23b2:	4604      	mov	r4, r0
    23b4:	6b00      	ldr	r0, [r0, #48]	; 0x30
    23b6:	f001 f907 	bl	0x35c8
    23ba:	4620      	mov	r0, r4
    23bc:	f001 f904 	bl	0x35c8
    23c0:	bd10      	pop	{r4, pc}
    23c2:	e92d 47f0 	stmdb	sp!, {r4, r5, r6, r7, r8, r9, sl, lr}
    23c6:	4680      	mov	r8, r0
    23c8:	4699      	mov	r9, r3
    23ca:	9d08      	ldr	r5, [sp, #32]
    23cc:	9f09      	ldr	r7, [sp, #36]	; 0x24
    23ce:	9c0a      	ldr	r4, [sp, #40]	; 0x28
    23d0:	6b26      	ldr	r6, [r4, #48]	; 0x30
    23d2:	f102 4280 	add.w	r2, r2, #1073741824	; 0x40000000
    23d6:	3a01      	subs	r2, #1
    23d8:	eb06 0682 	add.w	r6, r6, r2, lsl #2
    23dc:	f026 0607 	bic.w	r6, r6, #7
    23e0:	2300      	movs	r3, #0
    23e2:	2b0f      	cmp	r3, #15
    23e4:	d807      	bhi.n	0x23f6
    23e6:	5cc8      	ldrb	r0, [r1, r3]
    23e8:	18e2      	adds	r2, r4, r3
    23ea:	f882 0034 	strb.w	r0, [r2, #52]	; 0x34
    23ee:	5cca      	ldrb	r2, [r1, r3]
    23f0:	b10a      	cbz	r2, 0x23f6
    23f2:	3301      	adds	r3, #1
    23f4:	e7f5      	b.n	0x23e2
    23f6:	2300      	movs	r3, #0
    23f8:	f884 3043 	strb.w	r3, [r4, #67]	; 0x43
    23fc:	2d06      	cmp	r5, #6
    23fe:	d900      	bls.n	0x2402
    2400:	2506      	movs	r5, #6
    2402:	62e5      	str	r5, [r4, #44]	; 0x2c
    2404:	6465      	str	r5, [r4, #68]	; 0x44
    2406:	f04f 0a00 	mov.w	sl, #0
    240a:	f8c4 a048 	str.w	sl, [r4, #72]	; 0x48
    240e:	1d20      	adds	r0, r4, #4
    2410:	f7ff fba9 	bl	0x1b66
    2414:	f104 0018 	add.w	r0, r4, #24
    2418:	f7ff fba5 	bl	0x1b66
    241c:	6124      	str	r4, [r4, #16]
    241e:	f1c5 0507 	rsb	r5, r5, #7
    2422:	61a5      	str	r5, [r4, #24]
    2424:	6264      	str	r4, [r4, #36]	; 0x24
    2426:	f8c4 a04c 	str.w	sl, [r4, #76]	; 0x4c
    242a:	f8c4 a050 	str.w	sl, [r4, #80]	; 0x50
    242e:	f884 a054 	strb.w	sl, [r4, #84]	; 0x54
    2432:	464a      	mov	r2, r9
    2434:	4641      	mov	r1, r8
    2436:	4630      	mov	r0, r6
    2438:	f001 f928 	bl	0x368c
    243c:	6020      	str	r0, [r4, #0]
    243e:	b107      	cbz	r7, 0x2442
    2440:	603c      	str	r4, [r7, #0]
    2442:	e8bd 87f0 	ldmia.w	sp!, {r4, r5, r6, r7, r8, r9, sl, pc}
    2446:	0000      	movs	r0, r0
    2448:	b538      	push	{r3, r4, r5, lr}
    244a:	2400      	movs	r4, #0
    244c:	e007      	b.n	0x245e
    244e:	eb04 0284 	add.w	r2, r4, r4, lsl #2
    2452:	0093      	lsls	r3, r2, #2
    2454:	480e      	ldr	r0, [pc, #56]	; (0x2490)
    2456:	4418      	add	r0, r3
    2458:	f7ff fb7a 	bl	0x1b50
    245c:	3401      	adds	r4, #1
    245e:	2c06      	cmp	r4, #6
    2460:	d9f5      	bls.n	0x244e
    2462:	4d0c      	ldr	r5, [pc, #48]	; (0x2494)
    2464:	4628      	mov	r0, r5
    2466:	f7ff fb73 	bl	0x1b50
    246a:	4c0b      	ldr	r4, [pc, #44]	; (0x2498)
    246c:	4620      	mov	r0, r4
    246e:	f7ff fb6f 	bl	0x1b50
    2472:	480a      	ldr	r0, [pc, #40]	; (0x249c)
    2474:	f7ff fb6c 	bl	0x1b50
    2478:	4809      	ldr	r0, [pc, #36]	; (0x24a0)
    247a:	f7ff fb69 	bl	0x1b50
    247e:	4809      	ldr	r0, [pc, #36]	; (0x24a4)
    2480:	f7ff fb66 	bl	0x1b50
    2484:	4b08      	ldr	r3, [pc, #32]	; (0x24a8)
    2486:	601d      	str	r5, [r3, #0]
    2488:	4b08      	ldr	r3, [pc, #32]	; (0x24ac)
    248a:	601c      	str	r4, [r3, #0]
    248c:	bd38      	pop	{r3, r4, r5, pc}
    248e:	bf00      	nop
    2490:	00e0      	lsls	r0, r4, #3
    2492:	2000      	movs	r0, #0
    2494:	0184      	lsls	r4, r0, #6
    2496:	2000      	movs	r0, #0
    2498:	0198      	lsls	r0, r3, #6
    249a:	2000      	movs	r0, #0
    249c:	01b8      	lsls	r0, r7, #6
    249e:	2000      	movs	r0, #0
    24a0:	01e4      	lsls	r4, r4, #7
    24a2:	2000      	movs	r0, #0
    24a4:	01d0      	lsls	r0, r2, #7
    24a6:	2000      	movs	r0, #0
    24a8:	00d8      	lsls	r0, r3, #3
    24aa:	2000      	movs	r0, #0
    24ac:	00dc      	lsls	r4, r3, #3
    24ae:	2000      	movs	r0, #0
    24b0:	b510      	push	{r4, lr}
    24b2:	4604      	mov	r4, r0
    24b4:	f001 f90e 	bl	0x36d4
    24b8:	4a20      	ldr	r2, [pc, #128]	; (0x253c)
    24ba:	6813      	ldr	r3, [r2, #0]
    24bc:	3301      	adds	r3, #1
    24be:	6013      	str	r3, [r2, #0]
    24c0:	4b1f      	ldr	r3, [pc, #124]	; (0x2540)
    24c2:	681b      	ldr	r3, [r3, #0]
    24c4:	2b00      	cmp	r3, #0
    24c6:	d031      	beq.n	0x252c
    24c8:	4b1e      	ldr	r3, [pc, #120]	; (0x2544)
    24ca:	681b      	ldr	r3, [r3, #0]
    24cc:	b93b      	cbnz	r3, 0x24de
    24ce:	4b1c      	ldr	r3, [pc, #112]	; (0x2540)
    24d0:	681b      	ldr	r3, [r3, #0]
    24d2:	6ada      	ldr	r2, [r3, #44]	; 0x2c
    24d4:	6ae3      	ldr	r3, [r4, #44]	; 0x2c
    24d6:	429a      	cmp	r2, r3
    24d8:	d801      	bhi.n	0x24de
    24da:	4b19      	ldr	r3, [pc, #100]	; (0x2540)
    24dc:	601c      	str	r4, [r3, #0]
    24de:	4a1a      	ldr	r2, [pc, #104]	; (0x2548)
    24e0:	6813      	ldr	r3, [r2, #0]
    24e2:	3301      	adds	r3, #1
    24e4:	6013      	str	r3, [r2, #0]
    24e6:	6ae3      	ldr	r3, [r4, #44]	; 0x2c
    24e8:	2201      	movs	r2, #1
    24ea:	409a      	lsls	r2, r3
    24ec:	4917      	ldr	r1, [pc, #92]	; (0x254c)
    24ee:	6808      	ldr	r0, [r1, #0]
    24f0:	4302      	orrs	r2, r0
    24f2:	600a      	str	r2, [r1, #0]
    24f4:	eb03 0383 	add.w	r3, r3, r3, lsl #2
    24f8:	009a      	lsls	r2, r3, #2
    24fa:	1d21      	adds	r1, r4, #4
    24fc:	4814      	ldr	r0, [pc, #80]	; (0x2550)
    24fe:	4410      	add	r0, r2
    2500:	f7ff fb34 	bl	0x1b6c
    2504:	f001 f908 	bl	0x3718
    2508:	4b0e      	ldr	r3, [pc, #56]	; (0x2544)
    250a:	681b      	ldr	r3, [r3, #0]
    250c:	b16b      	cbz	r3, 0x252a
    250e:	4b0c      	ldr	r3, [pc, #48]	; (0x2540)
    2510:	681b      	ldr	r3, [r3, #0]
    2512:	6ada      	ldr	r2, [r3, #44]	; 0x2c
    2514:	6ae3      	ldr	r3, [r4, #44]	; 0x2c
    2516:	429a      	cmp	r2, r3
    2518:	d207      	bcs.n	0x252a
    251a:	f04f 5280 	mov.w	r2, #268435456	; 0x10000000
    251e:	4b0d      	ldr	r3, [pc, #52]	; (0x2554)
    2520:	601a      	str	r2, [r3, #0]
    2522:	f3bf 8f4f 	dsb	sy
    2526:	f3bf 8f6f 	isb	sy
    252a:	bd10      	pop	{r4, pc}
    252c:	4b04      	ldr	r3, [pc, #16]	; (0x2540)
    252e:	601c      	str	r4, [r3, #0]
    2530:	6813      	ldr	r3, [r2, #0]
    2532:	2b01      	cmp	r3, #1
    2534:	d1d3      	bne.n	0x24de
    2536:	f7ff ff87 	bl	0x2448
    253a:	e7d0      	b.n	0x24de
    253c:	016c      	lsls	r4, r5, #5
    253e:	2000      	movs	r0, #0
    2540:	00d4      	lsls	r4, r2, #3
    2542:	2000      	movs	r0, #0
    2544:	01cc      	lsls	r4, r1, #7
    2546:	2000      	movs	r0, #0
    2548:	017c      	lsls	r4, r7, #5
    254a:	2000      	movs	r0, #0
    254c:	0180      	lsls	r0, r0, #6
    254e:	2000      	movs	r0, #0
    2550:	00e0      	lsls	r0, r4, #3
    2552:	2000      	movs	r0, #0
    2554:	ed04 e000 	stc	0, cr14, [r4, #-0]
    2558:	b570      	push	{r4, r5, r6, lr}
    255a:	4604      	mov	r4, r0
    255c:	460e      	mov	r6, r1
    255e:	4b1d      	ldr	r3, [pc, #116]	; (0x25d4)
    2560:	681d      	ldr	r5, [r3, #0]
    2562:	4b1d      	ldr	r3, [pc, #116]	; (0x25d8)
    2564:	6818      	ldr	r0, [r3, #0]
    2566:	3004      	adds	r0, #4
    2568:	f7ff fb26 	bl	0x1bb8
    256c:	b950      	cbnz	r0, 0x2584
    256e:	4b1a      	ldr	r3, [pc, #104]	; (0x25d8)
    2570:	681b      	ldr	r3, [r3, #0]
    2572:	6ada      	ldr	r2, [r3, #44]	; 0x2c
    2574:	2301      	movs	r3, #1
    2576:	fa03 f202 	lsl.w	r2, r3, r2
    257a:	4918      	ldr	r1, [pc, #96]	; (0x25dc)
    257c:	680b      	ldr	r3, [r1, #0]
    257e:	ea23 0302 	bic.w	r3, r3, r2
    2582:	600b      	str	r3, [r1, #0]
    2584:	f1b4 3fff 	cmp.w	r4, #4294967295	; 0xffffffff
    2588:	d013      	beq.n	0x25b2
    258a:	442c      	add	r4, r5
    258c:	4b12      	ldr	r3, [pc, #72]	; (0x25d8)
    258e:	681b      	ldr	r3, [r3, #0]
    2590:	605c      	str	r4, [r3, #4]
    2592:	42a5      	cmp	r5, r4
    2594:	d816      	bhi.n	0x25c4
    2596:	4b12      	ldr	r3, [pc, #72]	; (0x25e0)
    2598:	6818      	ldr	r0, [r3, #0]
    259a:	4b0f      	ldr	r3, [pc, #60]	; (0x25d8)
    259c:	6819      	ldr	r1, [r3, #0]
    259e:	3104      	adds	r1, #4
    25a0:	f7ff faf0 	bl	0x1b84
    25a4:	4b0f      	ldr	r3, [pc, #60]	; (0x25e4)
    25a6:	681b      	ldr	r3, [r3, #0]
    25a8:	429c      	cmp	r4, r3
    25aa:	d201      	bcs.n	0x25b0
    25ac:	4b0d      	ldr	r3, [pc, #52]	; (0x25e4)
    25ae:	601c      	str	r4, [r3, #0]
    25b0:	bd70      	pop	{r4, r5, r6, pc}
    25b2:	2e00      	cmp	r6, #0
    25b4:	d0e9      	beq.n	0x258a
    25b6:	4b08      	ldr	r3, [pc, #32]	; (0x25d8)
    25b8:	6819      	ldr	r1, [r3, #0]
    25ba:	3104      	adds	r1, #4
    25bc:	480a      	ldr	r0, [pc, #40]	; (0x25e8)
    25be:	f7ff fad5 	bl	0x1b6c
    25c2:	bd70      	pop	{r4, r5, r6, pc}
    25c4:	4b09      	ldr	r3, [pc, #36]	; (0x25ec)
    25c6:	6818      	ldr	r0, [r3, #0]
    25c8:	4b03      	ldr	r3, [pc, #12]	; (0x25d8)
    25ca:	6819      	ldr	r1, [r3, #0]
    25cc:	3104      	adds	r1, #4
    25ce:	f7ff fad9 	bl	0x1b84
    25d2:	bd70      	pop	{r4, r5, r6, pc}
    25d4:	01f8      	lsls	r0, r7, #7
    25d6:	2000      	movs	r0, #0
    25d8:	00d4      	lsls	r4, r2, #3
    25da:	2000      	movs	r0, #0
    25dc:	0180      	lsls	r0, r0, #6
    25de:	2000      	movs	r0, #0
    25e0:	00d8      	lsls	r0, r3, #3
    25e2:	2000      	movs	r0, #0
    25e4:	01b0      	lsls	r0, r6, #6
    25e6:	2000      	movs	r0, #0
    25e8:	01d0      	lsls	r0, r2, #7
    25ea:	2000      	movs	r0, #0
    25ec:	00dc      	lsls	r4, r3, #3
    25ee:	2000      	movs	r0, #0
    25f0:	e92d 43f0 	stmdb	sp!, {r4, r5, r6, r7, r8, r9, lr}
    25f4:	b085      	sub	sp, #20
    25f6:	4606      	mov	r6, r0
    25f8:	460f      	mov	r7, r1
    25fa:	4615      	mov	r5, r2
    25fc:	4698      	mov	r8, r3
    25fe:	0090      	lsls	r0, r2, #2
    2600:	f000 ff5e 	bl	0x34c0
    2604:	b300      	cbz	r0, 0x2648
    2606:	4681      	mov	r9, r0
    2608:	2058      	movs	r0, #88	; 0x58
    260a:	f000 ff59 	bl	0x34c0
    260e:	4604      	mov	r4, r0
    2610:	b1b0      	cbz	r0, 0x2640
    2612:	f8c0 9030 	str.w	r9, [r0, #48]	; 0x30
    2616:	b1cc      	cbz	r4, 0x264c
    2618:	2300      	movs	r3, #0
    261a:	9303      	str	r3, [sp, #12]
    261c:	9402      	str	r4, [sp, #8]
    261e:	9b0d      	ldr	r3, [sp, #52]	; 0x34
    2620:	9301      	str	r3, [sp, #4]
    2622:	9b0c      	ldr	r3, [sp, #48]	; 0x30
    2624:	9300      	str	r3, [sp, #0]
    2626:	4643      	mov	r3, r8
    2628:	462a      	mov	r2, r5
    262a:	4639      	mov	r1, r7
    262c:	4630      	mov	r0, r6
    262e:	f7ff fec8 	bl	0x23c2
    2632:	4620      	mov	r0, r4
    2634:	f7ff ff3c 	bl	0x24b0
    2638:	2001      	movs	r0, #1
    263a:	b005      	add	sp, #20
    263c:	e8bd 83f0 	ldmia.w	sp!, {r4, r5, r6, r7, r8, r9, pc}
    2640:	4648      	mov	r0, r9
    2642:	f000 ffc1 	bl	0x35c8
    2646:	e7e6      	b.n	0x2616
    2648:	2400      	movs	r4, #0
    264a:	e7e4      	b.n	0x2616
    264c:	f04f 30ff 	mov.w	r0, #4294967295	; 0xffffffff
    2650:	e7f3      	b.n	0x263a
    2652:	0000      	movs	r0, r0
    2654:	b500      	push	{lr}
    2656:	b083      	sub	sp, #12
    2658:	4b19      	ldr	r3, [pc, #100]	; (0x26c0)
    265a:	9301      	str	r3, [sp, #4]
    265c:	2300      	movs	r3, #0
    265e:	9300      	str	r3, [sp, #0]
    2660:	2280      	movs	r2, #128	; 0x80
    2662:	4918      	ldr	r1, [pc, #96]	; (0x26c4)
    2664:	4818      	ldr	r0, [pc, #96]	; (0x26c8)
    2666:	f7ff ffc3 	bl	0x25f0
    266a:	2801      	cmp	r0, #1
    266c:	d007      	beq.n	0x267e
    266e:	2801      	cmp	r0, #1
    2670:	d008      	beq.n	0x2684
    2672:	f1b0 3fff 	cmp.w	r0, #4294967295	; 0xffffffff
    2676:	d01a      	beq.n	0x26ae
    2678:	b003      	add	sp, #12
    267a:	f85d fb04 	ldr.w	pc, [sp], #4
    267e:	f000 fc0b 	bl	0x2e98
    2682:	e7f4      	b.n	0x266e
    2684:	f04f 0350 	mov.w	r3, #80	; 0x50
    2688:	f383 8811 	msr	BASEPRI, r3
    268c:	f3bf 8f6f 	isb	sy
    2690:	f3bf 8f4f 	dsb	sy
    2694:	f04f 32ff 	mov.w	r2, #4294967295	; 0xffffffff
    2698:	4b0c      	ldr	r3, [pc, #48]	; (0x26cc)
    269a:	601a      	str	r2, [r3, #0]
    269c:	2201      	movs	r2, #1
    269e:	4b0c      	ldr	r3, [pc, #48]	; (0x26d0)
    26a0:	601a      	str	r2, [r3, #0]
    26a2:	2200      	movs	r2, #0
    26a4:	4b0b      	ldr	r3, [pc, #44]	; (0x26d4)
    26a6:	601a      	str	r2, [r3, #0]
    26a8:	f001 f8a0 	bl	0x37ec
    26ac:	e7e4      	b.n	0x2678
    26ae:	f04f 0350 	mov.w	r3, #80	; 0x50
    26b2:	f383 8811 	msr	BASEPRI, r3
    26b6:	f3bf 8f6f 	isb	sy
    26ba:	f3bf 8f4f 	dsb	sy
    26be:	e7fe      	b.n	0x26be
    26c0:	01ac      	lsls	r4, r5, #6
    26c2:	2000      	movs	r0, #0
    26c4:	9724      	str	r7, [sp, #144]	; 0x90
    26c6:	0800      	lsrs	r0, r0, #32
    26c8:	796d      	ldrb	r5, [r5, #5]
    26ca:	0800      	lsrs	r0, r0, #32
    26cc:	01b0      	lsls	r0, r6, #6
    26ce:	2000      	movs	r0, #0
    26d0:	01cc      	lsls	r4, r1, #7
    26d2:	2000      	movs	r0, #0
    26d4:	01f8      	lsls	r0, r7, #7
    26d6:	2000      	movs	r0, #0
    26d8:	4a02      	ldr	r2, [pc, #8]	; (0x26e4)
    26da:	6813      	ldr	r3, [r2, #0]
    26dc:	3301      	adds	r3, #1
    26de:	6013      	str	r3, [r2, #0]
    26e0:	4770      	bx	lr
    26e2:	bf00      	nop
    26e4:	0178      	lsls	r0, r7, #5
    26e6:	2000      	movs	r0, #0
    26e8:	4b01      	ldr	r3, [pc, #4]	; (0x26f0)
    26ea:	6818      	ldr	r0, [r3, #0]
    26ec:	4770      	bx	lr
    26ee:	bf00      	nop
    26f0:	01f8      	lsls	r0, r7, #7
    26f2:	2000      	movs	r0, #0
    26f4:	b5f8      	push	{r3, r4, r5, r6, r7, lr}
    26f6:	4b3c      	ldr	r3, [pc, #240]	; (0x27e8)
    26f8:	681b      	ldr	r3, [r3, #0]
    26fa:	2b00      	cmp	r3, #0
    26fc:	d168      	bne.n	0x27d0
    26fe:	4b3b      	ldr	r3, [pc, #236]	; (0x27ec)
    2700:	681d      	ldr	r5, [r3, #0]
    2702:	3501      	adds	r5, #1
    2704:	601d      	str	r5, [r3, #0]
    2706:	b9c5      	cbnz	r5, 0x273a
    2708:	4b39      	ldr	r3, [pc, #228]	; (0x27f0)
    270a:	681b      	ldr	r3, [r3, #0]
    270c:	681b      	ldr	r3, [r3, #0]
    270e:	b143      	cbz	r3, 0x2722
    2710:	f04f 0350 	mov.w	r3, #80	; 0x50
    2714:	f383 8811 	msr	BASEPRI, r3
    2718:	f3bf 8f6f 	isb	sy
    271c:	f3bf 8f4f 	dsb	sy
    2720:	e7fe      	b.n	0x2720
    2722:	4a33      	ldr	r2, [pc, #204]	; (0x27f0)
    2724:	6811      	ldr	r1, [r2, #0]
    2726:	4b33      	ldr	r3, [pc, #204]	; (0x27f4)
    2728:	6818      	ldr	r0, [r3, #0]
    272a:	6010      	str	r0, [r2, #0]
    272c:	6019      	str	r1, [r3, #0]
    272e:	4a32      	ldr	r2, [pc, #200]	; (0x27f8)
    2730:	6813      	ldr	r3, [r2, #0]
    2732:	3301      	adds	r3, #1
    2734:	6013      	str	r3, [r2, #0]
    2736:	f7ff fe21 	bl	0x237c
    273a:	4b30      	ldr	r3, [pc, #192]	; (0x27fc)
    273c:	681b      	ldr	r3, [r3, #0]
    273e:	429d      	cmp	r5, r3
    2740:	d23a      	bcs.n	0x27b8
    2742:	2400      	movs	r4, #0
    2744:	4b2e      	ldr	r3, [pc, #184]	; (0x2800)
    2746:	681b      	ldr	r3, [r3, #0]
    2748:	6adb      	ldr	r3, [r3, #44]	; 0x2c
    274a:	eb03 0383 	add.w	r3, r3, r3, lsl #2
    274e:	009a      	lsls	r2, r3, #2
    2750:	4b2c      	ldr	r3, [pc, #176]	; (0x2804)
    2752:	589b      	ldr	r3, [r3, r2]
    2754:	2b01      	cmp	r3, #1
    2756:	d940      	bls.n	0x27da
    2758:	2401      	movs	r4, #1
    275a:	e03e      	b.n	0x27da
    275c:	2401      	movs	r4, #1
    275e:	4b24      	ldr	r3, [pc, #144]	; (0x27f0)
    2760:	681b      	ldr	r3, [r3, #0]
    2762:	681b      	ldr	r3, [r3, #0]
    2764:	b353      	cbz	r3, 0x27bc
    2766:	2300      	movs	r3, #0
    2768:	bb53      	cbnz	r3, 0x27c0
    276a:	4b21      	ldr	r3, [pc, #132]	; (0x27f0)
    276c:	681b      	ldr	r3, [r3, #0]
    276e:	68db      	ldr	r3, [r3, #12]
    2770:	68de      	ldr	r6, [r3, #12]
    2772:	6873      	ldr	r3, [r6, #4]
    2774:	429d      	cmp	r5, r3
    2776:	d328      	bcc.n	0x27ca
    2778:	1d37      	adds	r7, r6, #4
    277a:	4638      	mov	r0, r7
    277c:	f7ff fa1c 	bl	0x1bb8
    2780:	6ab3      	ldr	r3, [r6, #40]	; 0x28
    2782:	b11b      	cbz	r3, 0x278c
    2784:	f106 0018 	add.w	r0, r6, #24
    2788:	f7ff fa16 	bl	0x1bb8
    278c:	6af3      	ldr	r3, [r6, #44]	; 0x2c
    278e:	2201      	movs	r2, #1
    2790:	409a      	lsls	r2, r3
    2792:	491d      	ldr	r1, [pc, #116]	; (0x2808)
    2794:	6808      	ldr	r0, [r1, #0]
    2796:	4302      	orrs	r2, r0
    2798:	600a      	str	r2, [r1, #0]
    279a:	eb03 0383 	add.w	r3, r3, r3, lsl #2
    279e:	009a      	lsls	r2, r3, #2
    27a0:	4639      	mov	r1, r7
    27a2:	4818      	ldr	r0, [pc, #96]	; (0x2804)
    27a4:	4410      	add	r0, r2
    27a6:	f7ff f9e1 	bl	0x1b6c
    27aa:	6af2      	ldr	r2, [r6, #44]	; 0x2c
    27ac:	4b14      	ldr	r3, [pc, #80]	; (0x2800)
    27ae:	681b      	ldr	r3, [r3, #0]
    27b0:	6adb      	ldr	r3, [r3, #44]	; 0x2c
    27b2:	429a      	cmp	r2, r3
    27b4:	d2d2      	bcs.n	0x275c
    27b6:	e7d2      	b.n	0x275e
    27b8:	2400      	movs	r4, #0
    27ba:	e7d0      	b.n	0x275e
    27bc:	2301      	movs	r3, #1
    27be:	e7d3      	b.n	0x2768
    27c0:	f04f 32ff 	mov.w	r2, #4294967295	; 0xffffffff
    27c4:	4b0d      	ldr	r3, [pc, #52]	; (0x27fc)
    27c6:	601a      	str	r2, [r3, #0]
    27c8:	e7bc      	b.n	0x2744
    27ca:	4a0c      	ldr	r2, [pc, #48]	; (0x27fc)
    27cc:	6013      	str	r3, [r2, #0]
    27ce:	e7b9      	b.n	0x2744
    27d0:	4a0e      	ldr	r2, [pc, #56]	; (0x280c)
    27d2:	6813      	ldr	r3, [r2, #0]
    27d4:	3301      	adds	r3, #1
    27d6:	6013      	str	r3, [r2, #0]
    27d8:	2400      	movs	r4, #0
    27da:	4b0d      	ldr	r3, [pc, #52]	; (0x2810)
    27dc:	681b      	ldr	r3, [r3, #0]
    27de:	b103      	cbz	r3, 0x27e2
    27e0:	2401      	movs	r4, #1
    27e2:	4620      	mov	r0, r4
    27e4:	bdf8      	pop	{r3, r4, r5, r6, r7, pc}
    27e6:	bf00      	nop
    27e8:	0178      	lsls	r0, r7, #5
    27ea:	2000      	movs	r0, #0
    27ec:	01f8      	lsls	r0, r7, #7
    27ee:	2000      	movs	r0, #0
    27f0:	00d8      	lsls	r0, r3, #3
    27f2:	2000      	movs	r0, #0
    27f4:	00dc      	lsls	r4, r3, #3
    27f6:	2000      	movs	r0, #0
    27f8:	01b4      	lsls	r4, r6, #6
    27fa:	2000      	movs	r0, #0
    27fc:	01b0      	lsls	r0, r6, #6
    27fe:	2000      	movs	r0, #0
    2800:	00d4      	lsls	r4, r2, #3
    2802:	2000      	movs	r0, #0
    2804:	00e0      	lsls	r0, r4, #3
    2806:	2000      	movs	r0, #0
    2808:	0180      	lsls	r0, r0, #6
    280a:	2000      	movs	r0, #0
    280c:	0174      	lsls	r4, r6, #5
    280e:	2000      	movs	r0, #0
    2810:	01fc      	lsls	r4, r7, #7
    2812:	2000      	movs	r0, #0
    2814:	b538      	push	{r3, r4, r5, lr}
    2816:	4b35      	ldr	r3, [pc, #212]	; (0x28ec)
    2818:	681b      	ldr	r3, [r3, #0]
    281a:	b943      	cbnz	r3, 0x282e
    281c:	f04f 0350 	mov.w	r3, #80	; 0x50
    2820:	f383 8811 	msr	BASEPRI, r3
    2824:	f3bf 8f6f 	isb	sy
    2828:	f3bf 8f4f 	dsb	sy
    282c:	e7fe      	b.n	0x282c
    282e:	f000 ff51 	bl	0x36d4
    2832:	4b2e      	ldr	r3, [pc, #184]	; (0x28ec)
    2834:	681a      	ldr	r2, [r3, #0]
    2836:	3a01      	subs	r2, #1
    2838:	601a      	str	r2, [r3, #0]
    283a:	681b      	ldr	r3, [r3, #0]
    283c:	2b00      	cmp	r3, #0
    283e:	d150      	bne.n	0x28e2
    2840:	4b2b      	ldr	r3, [pc, #172]	; (0x28f0)
    2842:	681b      	ldr	r3, [r3, #0]
    2844:	b923      	cbnz	r3, 0x2850
    2846:	2400      	movs	r4, #0
    2848:	f000 ff66 	bl	0x3718
    284c:	4620      	mov	r0, r4
    284e:	bd38      	pop	{r3, r4, r5, pc}
    2850:	2400      	movs	r4, #0
    2852:	4b28      	ldr	r3, [pc, #160]	; (0x28f4)
    2854:	681b      	ldr	r3, [r3, #0]
    2856:	b31b      	cbz	r3, 0x28a0
    2858:	4b26      	ldr	r3, [pc, #152]	; (0x28f4)
    285a:	68db      	ldr	r3, [r3, #12]
    285c:	68dc      	ldr	r4, [r3, #12]
    285e:	f104 0018 	add.w	r0, r4, #24
    2862:	f7ff f9a9 	bl	0x1bb8
    2866:	1d25      	adds	r5, r4, #4
    2868:	4628      	mov	r0, r5
    286a:	f7ff f9a5 	bl	0x1bb8
    286e:	6ae3      	ldr	r3, [r4, #44]	; 0x2c
    2870:	2201      	movs	r2, #1
    2872:	409a      	lsls	r2, r3
    2874:	4920      	ldr	r1, [pc, #128]	; (0x28f8)
    2876:	6808      	ldr	r0, [r1, #0]
    2878:	4302      	orrs	r2, r0
    287a:	600a      	str	r2, [r1, #0]
    287c:	eb03 0383 	add.w	r3, r3, r3, lsl #2
    2880:	009a      	lsls	r2, r3, #2
    2882:	4629      	mov	r1, r5
    2884:	481d      	ldr	r0, [pc, #116]	; (0x28fc)
    2886:	4410      	add	r0, r2
    2888:	f7ff f970 	bl	0x1b6c
    288c:	6ae2      	ldr	r2, [r4, #44]	; 0x2c
    288e:	4b1c      	ldr	r3, [pc, #112]	; (0x2900)
    2890:	681b      	ldr	r3, [r3, #0]
    2892:	6adb      	ldr	r3, [r3, #44]	; 0x2c
    2894:	429a      	cmp	r2, r3
    2896:	d3dc      	bcc.n	0x2852
    2898:	2201      	movs	r2, #1
    289a:	4b1a      	ldr	r3, [pc, #104]	; (0x2904)
    289c:	601a      	str	r2, [r3, #0]
    289e:	e7d8      	b.n	0x2852
    28a0:	b10c      	cbz	r4, 0x28a6
    28a2:	f7ff fd6b 	bl	0x237c
    28a6:	4b18      	ldr	r3, [pc, #96]	; (0x2908)
    28a8:	681c      	ldr	r4, [r3, #0]
    28aa:	b974      	cbnz	r4, 0x28ca
    28ac:	4b15      	ldr	r3, [pc, #84]	; (0x2904)
    28ae:	681b      	ldr	r3, [r3, #0]
    28b0:	b1cb      	cbz	r3, 0x28e6
    28b2:	f04f 5280 	mov.w	r2, #268435456	; 0x10000000
    28b6:	4b15      	ldr	r3, [pc, #84]	; (0x290c)
    28b8:	601a      	str	r2, [r3, #0]
    28ba:	f3bf 8f4f 	dsb	sy
    28be:	f3bf 8f6f 	isb	sy
    28c2:	2401      	movs	r4, #1
    28c4:	e7c0      	b.n	0x2848
    28c6:	3c01      	subs	r4, #1
    28c8:	d007      	beq.n	0x28da
    28ca:	f7ff ff13 	bl	0x26f4
    28ce:	2800      	cmp	r0, #0
    28d0:	d0f9      	beq.n	0x28c6
    28d2:	2201      	movs	r2, #1
    28d4:	4b0b      	ldr	r3, [pc, #44]	; (0x2904)
    28d6:	601a      	str	r2, [r3, #0]
    28d8:	e7f5      	b.n	0x28c6
    28da:	2200      	movs	r2, #0
    28dc:	4b0a      	ldr	r3, [pc, #40]	; (0x2908)
    28de:	601a      	str	r2, [r3, #0]
    28e0:	e7e4      	b.n	0x28ac
    28e2:	2400      	movs	r4, #0
    28e4:	e7b0      	b.n	0x2848
    28e6:	2400      	movs	r4, #0
    28e8:	e7ae      	b.n	0x2848
    28ea:	bf00      	nop
    28ec:	0178      	lsls	r0, r7, #5
    28ee:	2000      	movs	r0, #0
    28f0:	016c      	lsls	r4, r5, #5
    28f2:	2000      	movs	r0, #0
    28f4:	01b8      	lsls	r0, r7, #6
    28f6:	2000      	movs	r0, #0
    28f8:	0180      	lsls	r0, r0, #6
    28fa:	2000      	movs	r0, #0
    28fc:	00e0      	lsls	r0, r4, #3
    28fe:	2000      	movs	r0, #0
    2900:	00d4      	lsls	r4, r2, #3
    2902:	2000      	movs	r0, #0
    2904:	01fc      	lsls	r4, r7, #7
    2906:	2000      	movs	r0, #0
    2908:	0174      	lsls	r4, r6, #5
    290a:	2000      	movs	r0, #0
    290c:	ed04 e000 	stc	0, cr14, [r4, #-0]
    2910:	4b13      	ldr	r3, [pc, #76]	; (0x2960)
    2912:	681b      	ldr	r3, [r3, #0]
    2914:	b313      	cbz	r3, 0x295c
    2916:	b510      	push	{r4, lr}
    2918:	f7ff fede 	bl	0x26d8
    291c:	4b11      	ldr	r3, [pc, #68]	; (0x2964)
    291e:	681c      	ldr	r4, [r3, #0]
    2920:	f7ff ff78 	bl	0x2814
    2924:	b924      	cbnz	r4, 0x2930
    2926:	4b0e      	ldr	r3, [pc, #56]	; (0x2960)
    2928:	681b      	ldr	r3, [r3, #0]
    292a:	2b00      	cmp	r3, #0
    292c:	d1f4      	bne.n	0x2918
    292e:	bd10      	pop	{r4, pc}
    2930:	f000 fed0 	bl	0x36d4
    2934:	4b0b      	ldr	r3, [pc, #44]	; (0x2964)
    2936:	68db      	ldr	r3, [r3, #12]
    2938:	68dc      	ldr	r4, [r3, #12]
    293a:	1d20      	adds	r0, r4, #4
    293c:	f7ff f93c 	bl	0x1bb8
    2940:	4a09      	ldr	r2, [pc, #36]	; (0x2968)
    2942:	6813      	ldr	r3, [r2, #0]
    2944:	3b01      	subs	r3, #1
    2946:	6013      	str	r3, [r2, #0]
    2948:	4a05      	ldr	r2, [pc, #20]	; (0x2960)
    294a:	6813      	ldr	r3, [r2, #0]
    294c:	3b01      	subs	r3, #1
    294e:	6013      	str	r3, [r2, #0]
    2950:	f000 fee2 	bl	0x3718
    2954:	4620      	mov	r0, r4
    2956:	f7ff fd2b 	bl	0x23b0
    295a:	e7e4      	b.n	0x2926
    295c:	4770      	bx	lr
    295e:	bf00      	nop
    2960:	0170      	lsls	r0, r6, #5
    2962:	2000      	movs	r0, #0
    2964:	01e4      	lsls	r4, r4, #7
    2966:	2000      	movs	r0, #0
    2968:	016c      	lsls	r4, r5, #5
    296a:	2000      	movs	r0, #0
    296c:	b508      	push	{r3, lr}
    296e:	f7ff ffcf 	bl	0x2910
    2972:	4b06      	ldr	r3, [pc, #24]	; (0x298c)
    2974:	681b      	ldr	r3, [r3, #0]
    2976:	2b01      	cmp	r3, #1
    2978:	d9f9      	bls.n	0x296e
    297a:	f04f 5280 	mov.w	r2, #268435456	; 0x10000000
    297e:	4b04      	ldr	r3, [pc, #16]	; (0x2990)
    2980:	601a      	str	r2, [r3, #0]
    2982:	f3bf 8f4f 	dsb	sy
    2986:	f3bf 8f6f 	isb	sy
    298a:	e7f0      	b.n	0x296e
    298c:	00e0      	lsls	r0, r4, #3
    298e:	2000      	movs	r0, #0
    2990:	ed04 e000 	stc	0, cr14, [r4, #-0]
    2994:	b538      	push	{r3, r4, r5, lr}
    2996:	460d      	mov	r5, r1
    2998:	4604      	mov	r4, r0
    299a:	b128      	cbz	r0, 0x29a8
    299c:	f000 fe9a 	bl	0x36d4
    29a0:	64e5      	str	r5, [r4, #76]	; 0x4c
    29a2:	f000 feb9 	bl	0x3718
    29a6:	bd38      	pop	{r3, r4, r5, pc}
    29a8:	4b01      	ldr	r3, [pc, #4]	; (0x29b0)
    29aa:	681c      	ldr	r4, [r3, #0]
    29ac:	e7f6      	b.n	0x299c
    29ae:	bf00      	nop
    29b0:	00d4      	lsls	r4, r2, #3
    29b2:	2000      	movs	r0, #0
    29b4:	4b22      	ldr	r3, [pc, #136]	; (0x2a40)
    29b6:	681b      	ldr	r3, [r3, #0]
    29b8:	b11b      	cbz	r3, 0x29c2
    29ba:	2201      	movs	r2, #1
    29bc:	4b21      	ldr	r3, [pc, #132]	; (0x2a44)
    29be:	601a      	str	r2, [r3, #0]
    29c0:	4770      	bx	lr
    29c2:	b510      	push	{r4, lr}
    29c4:	2200      	movs	r2, #0
    29c6:	4b1f      	ldr	r3, [pc, #124]	; (0x2a44)
    29c8:	601a      	str	r2, [r3, #0]
    29ca:	f7fd fd6c 	bl	0x4a6
    29ce:	4b1e      	ldr	r3, [pc, #120]	; (0x2a48)
    29d0:	681b      	ldr	r3, [r3, #0]
    29d2:	fab3 f383 	clz	r3, r3
    29d6:	b2db      	uxtb	r3, r3
    29d8:	f1c3 031f 	rsb	r3, r3, #31
    29dc:	eb03 0183 	add.w	r1, r3, r3, lsl #2
    29e0:	008a      	lsls	r2, r1, #2
    29e2:	491a      	ldr	r1, [pc, #104]	; (0x2a4c)
    29e4:	588a      	ldr	r2, [r1, r2]
    29e6:	b942      	cbnz	r2, 0x29fa
    29e8:	f04f 0350 	mov.w	r3, #80	; 0x50
    29ec:	f383 8811 	msr	BASEPRI, r3
    29f0:	f3bf 8f6f 	isb	sy
    29f4:	f3bf 8f4f 	dsb	sy
    29f8:	e7fe      	b.n	0x29f8
    29fa:	4814      	ldr	r0, [pc, #80]	; (0x2a4c)
    29fc:	009a      	lsls	r2, r3, #2
    29fe:	18d4      	adds	r4, r2, r3
    2a00:	00a1      	lsls	r1, r4, #2
    2a02:	4401      	add	r1, r0
    2a04:	684c      	ldr	r4, [r1, #4]
    2a06:	6864      	ldr	r4, [r4, #4]
    2a08:	604c      	str	r4, [r1, #4]
    2a0a:	441a      	add	r2, r3
    2a0c:	0091      	lsls	r1, r2, #2
    2a0e:	3108      	adds	r1, #8
    2a10:	4408      	add	r0, r1
    2a12:	4284      	cmp	r4, r0
    2a14:	d00b      	beq.n	0x2a2e
    2a16:	eb03 0383 	add.w	r3, r3, r3, lsl #2
    2a1a:	009a      	lsls	r2, r3, #2
    2a1c:	4b0b      	ldr	r3, [pc, #44]	; (0x2a4c)
    2a1e:	4413      	add	r3, r2
    2a20:	685b      	ldr	r3, [r3, #4]
    2a22:	68da      	ldr	r2, [r3, #12]
    2a24:	4b0a      	ldr	r3, [pc, #40]	; (0x2a50)
    2a26:	601a      	str	r2, [r3, #0]
    2a28:	f7fd fd3c 	bl	0x4a4
    2a2c:	bd10      	pop	{r4, pc}
    2a2e:	6860      	ldr	r0, [r4, #4]
    2a30:	eb03 0283 	add.w	r2, r3, r3, lsl #2
    2a34:	0091      	lsls	r1, r2, #2
    2a36:	4a05      	ldr	r2, [pc, #20]	; (0x2a4c)
    2a38:	440a      	add	r2, r1
    2a3a:	6050      	str	r0, [r2, #4]
    2a3c:	e7eb      	b.n	0x2a16
    2a3e:	bf00      	nop
    2a40:	0178      	lsls	r0, r7, #5
    2a42:	2000      	movs	r0, #0
    2a44:	01fc      	lsls	r4, r7, #7
    2a46:	2000      	movs	r0, #0
    2a48:	0180      	lsls	r0, r0, #6
    2a4a:	2000      	movs	r0, #0
    2a4c:	00e0      	lsls	r0, r4, #3
    2a4e:	2000      	movs	r0, #0
    2a50:	00d4      	lsls	r4, r2, #3
    2a52:	2000      	movs	r0, #0
    2a54:	b940      	cbnz	r0, 0x2a68
    2a56:	f04f 0350 	mov.w	r3, #80	; 0x50
    2a5a:	f383 8811 	msr	BASEPRI, r3
    2a5e:	f3bf 8f6f 	isb	sy
    2a62:	f3bf 8f4f 	dsb	sy
    2a66:	e7fe      	b.n	0x2a66
    2a68:	b510      	push	{r4, lr}
    2a6a:	460c      	mov	r4, r1
    2a6c:	4b04      	ldr	r3, [pc, #16]	; (0x2a80)
    2a6e:	6819      	ldr	r1, [r3, #0]
    2a70:	3118      	adds	r1, #24
    2a72:	f7ff f887 	bl	0x1b84
    2a76:	2101      	movs	r1, #1
    2a78:	4620      	mov	r0, r4
    2a7a:	f7ff fd6d 	bl	0x2558
    2a7e:	bd10      	pop	{r4, pc}
    2a80:	00d4      	lsls	r4, r2, #3
    2a82:	2000      	movs	r0, #0
    2a84:	b538      	push	{r3, r4, r5, lr}
    2a86:	b170      	cbz	r0, 0x2aa6
    2a88:	460c      	mov	r4, r1
    2a8a:	4615      	mov	r5, r2
    2a8c:	4a0a      	ldr	r2, [pc, #40]	; (0x2ab8)
    2a8e:	6811      	ldr	r1, [r2, #0]
    2a90:	3118      	adds	r1, #24
    2a92:	f7ff f86b 	bl	0x1b6c
    2a96:	b10d      	cbz	r5, 0x2a9c
    2a98:	f04f 34ff 	mov.w	r4, #4294967295	; 0xffffffff
    2a9c:	4629      	mov	r1, r5
    2a9e:	4620      	mov	r0, r4
    2aa0:	f7ff fd5a 	bl	0x2558
    2aa4:	bd38      	pop	{r3, r4, r5, pc}
    2aa6:	f04f 0350 	mov.w	r3, #80	; 0x50
    2aaa:	f383 8811 	msr	BASEPRI, r3
    2aae:	f3bf 8f6f 	isb	sy
    2ab2:	f3bf 8f4f 	dsb	sy
    2ab6:	e7fe      	b.n	0x2ab6
    2ab8:	00d4      	lsls	r4, r2, #3
    2aba:	2000      	movs	r0, #0
    2abc:	b538      	push	{r3, r4, r5, lr}
    2abe:	68c3      	ldr	r3, [r0, #12]
    2ac0:	68dc      	ldr	r4, [r3, #12]
    2ac2:	b324      	cbz	r4, 0x2b0e
    2ac4:	f104 0518 	add.w	r5, r4, #24
    2ac8:	4628      	mov	r0, r5
    2aca:	f7ff f875 	bl	0x1bb8
    2ace:	4b18      	ldr	r3, [pc, #96]	; (0x2b30)
    2ad0:	681b      	ldr	r3, [r3, #0]
    2ad2:	bb2b      	cbnz	r3, 0x2b20
    2ad4:	1d25      	adds	r5, r4, #4
    2ad6:	4628      	mov	r0, r5
    2ad8:	f7ff f86e 	bl	0x1bb8
    2adc:	6ae3      	ldr	r3, [r4, #44]	; 0x2c
    2ade:	2201      	movs	r2, #1
    2ae0:	409a      	lsls	r2, r3
    2ae2:	4914      	ldr	r1, [pc, #80]	; (0x2b34)
    2ae4:	6808      	ldr	r0, [r1, #0]
    2ae6:	4302      	orrs	r2, r0
    2ae8:	600a      	str	r2, [r1, #0]
    2aea:	eb03 0383 	add.w	r3, r3, r3, lsl #2
    2aee:	009a      	lsls	r2, r3, #2
    2af0:	4629      	mov	r1, r5
    2af2:	4811      	ldr	r0, [pc, #68]	; (0x2b38)
    2af4:	4410      	add	r0, r2
    2af6:	f7ff f839 	bl	0x1b6c
    2afa:	6ae2      	ldr	r2, [r4, #44]	; 0x2c
    2afc:	4b0f      	ldr	r3, [pc, #60]	; (0x2b3c)
    2afe:	681b      	ldr	r3, [r3, #0]
    2b00:	6adb      	ldr	r3, [r3, #44]	; 0x2c
    2b02:	429a      	cmp	r2, r3
    2b04:	d911      	bls.n	0x2b2a
    2b06:	2001      	movs	r0, #1
    2b08:	4b0d      	ldr	r3, [pc, #52]	; (0x2b40)
    2b0a:	6018      	str	r0, [r3, #0]
    2b0c:	bd38      	pop	{r3, r4, r5, pc}
    2b0e:	f04f 0350 	mov.w	r3, #80	; 0x50
    2b12:	f383 8811 	msr	BASEPRI, r3
    2b16:	f3bf 8f6f 	isb	sy
    2b1a:	f3bf 8f4f 	dsb	sy
    2b1e:	e7fe      	b.n	0x2b1e
    2b20:	4629      	mov	r1, r5
    2b22:	4808      	ldr	r0, [pc, #32]	; (0x2b44)
    2b24:	f7ff f822 	bl	0x1b6c
    2b28:	e7e7      	b.n	0x2afa
    2b2a:	2000      	movs	r0, #0
    2b2c:	bd38      	pop	{r3, r4, r5, pc}
    2b2e:	bf00      	nop
    2b30:	0178      	lsls	r0, r7, #5
    2b32:	2000      	movs	r0, #0
    2b34:	0180      	lsls	r0, r0, #6
    2b36:	2000      	movs	r0, #0
    2b38:	00e0      	lsls	r0, r4, #3
    2b3a:	2000      	movs	r0, #0
    2b3c:	00d4      	lsls	r4, r2, #3
    2b3e:	2000      	movs	r0, #0
    2b40:	01fc      	lsls	r4, r7, #7
    2b42:	2000      	movs	r0, #0
    2b44:	01b8      	lsls	r0, r7, #6
    2b46:	2000      	movs	r0, #0
    2b48:	b130      	cbz	r0, 0x2b58
    2b4a:	4a08      	ldr	r2, [pc, #32]	; (0x2b6c)
    2b4c:	6812      	ldr	r2, [r2, #0]
    2b4e:	6002      	str	r2, [r0, #0]
    2b50:	4a07      	ldr	r2, [pc, #28]	; (0x2b70)
    2b52:	6812      	ldr	r2, [r2, #0]
    2b54:	6042      	str	r2, [r0, #4]
    2b56:	4770      	bx	lr
    2b58:	f04f 0350 	mov.w	r3, #80	; 0x50
    2b5c:	f383 8811 	msr	BASEPRI, r3
    2b60:	f3bf 8f6f 	isb	sy
    2b64:	f3bf 8f4f 	dsb	sy
    2b68:	e7fe      	b.n	0x2b68
    2b6a:	bf00      	nop
    2b6c:	01b4      	lsls	r4, r6, #6
    2b6e:	2000      	movs	r0, #0
    2b70:	01f8      	lsls	r0, r7, #7
    2b72:	2000      	movs	r0, #0
    2b74:	b538      	push	{r3, r4, r5, lr}
    2b76:	b1c0      	cbz	r0, 0x2baa
    2b78:	4604      	mov	r4, r0
    2b7a:	b1f9      	cbz	r1, 0x2bbc
    2b7c:	460d      	mov	r5, r1
    2b7e:	f000 fda9 	bl	0x36d4
    2b82:	4b1a      	ldr	r3, [pc, #104]	; (0x2bec)
    2b84:	6819      	ldr	r1, [r3, #0]
    2b86:	682b      	ldr	r3, [r5, #0]
    2b88:	f1b3 3fff 	cmp.w	r3, #4294967295	; 0xffffffff
    2b8c:	d02a      	beq.n	0x2be4
    2b8e:	6820      	ldr	r0, [r4, #0]
    2b90:	4a17      	ldr	r2, [pc, #92]	; (0x2bf0)
    2b92:	6812      	ldr	r2, [r2, #0]
    2b94:	4290      	cmp	r0, r2
    2b96:	d002      	beq.n	0x2b9e
    2b98:	6862      	ldr	r2, [r4, #4]
    2b9a:	4291      	cmp	r1, r2
    2b9c:	d224      	bcs.n	0x2be8
    2b9e:	6862      	ldr	r2, [r4, #4]
    2ba0:	1a88      	subs	r0, r1, r2
    2ba2:	4283      	cmp	r3, r0
    2ba4:	d813      	bhi.n	0x2bce
    2ba6:	2401      	movs	r4, #1
    2ba8:	e018      	b.n	0x2bdc
    2baa:	f04f 0350 	mov.w	r3, #80	; 0x50
    2bae:	f383 8811 	msr	BASEPRI, r3
    2bb2:	f3bf 8f6f 	isb	sy
    2bb6:	f3bf 8f4f 	dsb	sy
    2bba:	e7fe      	b.n	0x2bba
    2bbc:	f04f 0350 	mov.w	r3, #80	; 0x50
    2bc0:	f383 8811 	msr	BASEPRI, r3
    2bc4:	f3bf 8f6f 	isb	sy
    2bc8:	f3bf 8f4f 	dsb	sy
    2bcc:	e7fe      	b.n	0x2bcc
    2bce:	1a52      	subs	r2, r2, r1
    2bd0:	4413      	add	r3, r2
    2bd2:	602b      	str	r3, [r5, #0]
    2bd4:	4620      	mov	r0, r4
    2bd6:	f7ff ffb7 	bl	0x2b48
    2bda:	2400      	movs	r4, #0
    2bdc:	f000 fd9c 	bl	0x3718
    2be0:	4620      	mov	r0, r4
    2be2:	bd38      	pop	{r3, r4, r5, pc}
    2be4:	2400      	movs	r4, #0
    2be6:	e7f9      	b.n	0x2bdc
    2be8:	2401      	movs	r4, #1
    2bea:	e7f7      	b.n	0x2bdc
    2bec:	01f8      	lsls	r0, r7, #7
    2bee:	2000      	movs	r0, #0
    2bf0:	01b4      	lsls	r4, r6, #6
    2bf2:	2000      	movs	r0, #0
    2bf4:	2201      	movs	r2, #1
    2bf6:	4b01      	ldr	r3, [pc, #4]	; (0x2bfc)
    2bf8:	601a      	str	r2, [r3, #0]
    2bfa:	4770      	bx	lr
    2bfc:	01fc      	lsls	r4, r7, #7
    2bfe:	2000      	movs	r0, #0
    2c00:	4b05      	ldr	r3, [pc, #20]	; (0x2c18)
    2c02:	681b      	ldr	r3, [r3, #0]
    2c04:	b123      	cbz	r3, 0x2c10
    2c06:	4b05      	ldr	r3, [pc, #20]	; (0x2c1c)
    2c08:	681b      	ldr	r3, [r3, #0]
    2c0a:	b91b      	cbnz	r3, 0x2c14
    2c0c:	2002      	movs	r0, #2
    2c0e:	4770      	bx	lr
    2c10:	2001      	movs	r0, #1
    2c12:	4770      	bx	lr
    2c14:	2000      	movs	r0, #0
    2c16:	4770      	bx	lr
    2c18:	01cc      	lsls	r4, r1, #7
    2c1a:	2000      	movs	r0, #0
    2c1c:	0178      	lsls	r0, r7, #5
    2c1e:	2000      	movs	r0, #0
    2c20:	2800      	cmp	r0, #0
    2c22:	d047      	beq.n	0x2cb4
    2c24:	b538      	push	{r3, r4, r5, lr}
    2c26:	4604      	mov	r4, r0
    2c28:	6ac3      	ldr	r3, [r0, #44]	; 0x2c
    2c2a:	4923      	ldr	r1, [pc, #140]	; (0x2cb8)
    2c2c:	6809      	ldr	r1, [r1, #0]
    2c2e:	6ac9      	ldr	r1, [r1, #44]	; 0x2c
    2c30:	428b      	cmp	r3, r1
    2c32:	d216      	bcs.n	0x2c62
    2c34:	6981      	ldr	r1, [r0, #24]
    2c36:	2900      	cmp	r1, #0
    2c38:	db05      	blt.n	0x2c46
    2c3a:	491f      	ldr	r1, [pc, #124]	; (0x2cb8)
    2c3c:	6809      	ldr	r1, [r1, #0]
    2c3e:	6ac9      	ldr	r1, [r1, #44]	; 0x2c
    2c40:	f1c1 0107 	rsb	r1, r1, #7
    2c44:	6181      	str	r1, [r0, #24]
    2c46:	6960      	ldr	r0, [r4, #20]
    2c48:	eb03 0383 	add.w	r3, r3, r3, lsl #2
    2c4c:	0099      	lsls	r1, r3, #2
    2c4e:	4b1b      	ldr	r3, [pc, #108]	; (0x2cbc)
    2c50:	440b      	add	r3, r1
    2c52:	4298      	cmp	r0, r3
    2c54:	d006      	beq.n	0x2c64
    2c56:	2300      	movs	r3, #0
    2c58:	b933      	cbnz	r3, 0x2c68
    2c5a:	4b17      	ldr	r3, [pc, #92]	; (0x2cb8)
    2c5c:	681b      	ldr	r3, [r3, #0]
    2c5e:	6adb      	ldr	r3, [r3, #44]	; 0x2c
    2c60:	62e3      	str	r3, [r4, #44]	; 0x2c
    2c62:	bd38      	pop	{r3, r4, r5, pc}
    2c64:	2301      	movs	r3, #1
    2c66:	e7f7      	b.n	0x2c58
    2c68:	1d25      	adds	r5, r4, #4
    2c6a:	4628      	mov	r0, r5
    2c6c:	f7fe ffa4 	bl	0x1bb8
    2c70:	b968      	cbnz	r0, 0x2c8e
    2c72:	6ae3      	ldr	r3, [r4, #44]	; 0x2c
    2c74:	eb03 0183 	add.w	r1, r3, r3, lsl #2
    2c78:	008a      	lsls	r2, r1, #2
    2c7a:	4910      	ldr	r1, [pc, #64]	; (0x2cbc)
    2c7c:	588a      	ldr	r2, [r1, r2]
    2c7e:	b932      	cbnz	r2, 0x2c8e
    2c80:	2201      	movs	r2, #1
    2c82:	409a      	lsls	r2, r3
    2c84:	490e      	ldr	r1, [pc, #56]	; (0x2cc0)
    2c86:	680b      	ldr	r3, [r1, #0]
    2c88:	ea23 0302 	bic.w	r3, r3, r2
    2c8c:	600b      	str	r3, [r1, #0]
    2c8e:	4b0a      	ldr	r3, [pc, #40]	; (0x2cb8)
    2c90:	681b      	ldr	r3, [r3, #0]
    2c92:	6adb      	ldr	r3, [r3, #44]	; 0x2c
    2c94:	62e3      	str	r3, [r4, #44]	; 0x2c
    2c96:	2201      	movs	r2, #1
    2c98:	409a      	lsls	r2, r3
    2c9a:	4909      	ldr	r1, [pc, #36]	; (0x2cc0)
    2c9c:	6808      	ldr	r0, [r1, #0]
    2c9e:	4302      	orrs	r2, r0
    2ca0:	600a      	str	r2, [r1, #0]
    2ca2:	eb03 0383 	add.w	r3, r3, r3, lsl #2
    2ca6:	009a      	lsls	r2, r3, #2
    2ca8:	4629      	mov	r1, r5
    2caa:	4804      	ldr	r0, [pc, #16]	; (0x2cbc)
    2cac:	4410      	add	r0, r2
    2cae:	f7fe ff5d 	bl	0x1b6c
    2cb2:	bd38      	pop	{r3, r4, r5, pc}
    2cb4:	4770      	bx	lr
    2cb6:	bf00      	nop
    2cb8:	00d4      	lsls	r4, r2, #3
    2cba:	2000      	movs	r0, #0
    2cbc:	00e0      	lsls	r0, r4, #3
    2cbe:	2000      	movs	r0, #0
    2cc0:	0180      	lsls	r0, r0, #6
    2cc2:	2000      	movs	r0, #0
    2cc4:	2800      	cmp	r0, #0
    2cc6:	d04a      	beq.n	0x2d5e
    2cc8:	b538      	push	{r3, r4, r5, lr}
    2cca:	4604      	mov	r4, r0
    2ccc:	4a27      	ldr	r2, [pc, #156]	; (0x2d6c)
    2cce:	6812      	ldr	r2, [r2, #0]
    2cd0:	4290      	cmp	r0, r2
    2cd2:	d008      	beq.n	0x2ce6
    2cd4:	f04f 0350 	mov.w	r3, #80	; 0x50
    2cd8:	f383 8811 	msr	BASEPRI, r3
    2cdc:	f3bf 8f6f 	isb	sy
    2ce0:	f3bf 8f4f 	dsb	sy
    2ce4:	e7fe      	b.n	0x2ce4
    2ce6:	6c82      	ldr	r2, [r0, #72]	; 0x48
    2ce8:	b942      	cbnz	r2, 0x2cfc
    2cea:	f04f 0350 	mov.w	r3, #80	; 0x50
    2cee:	f383 8811 	msr	BASEPRI, r3
    2cf2:	f3bf 8f6f 	isb	sy
    2cf6:	f3bf 8f4f 	dsb	sy
    2cfa:	e7fe      	b.n	0x2cfa
    2cfc:	3a01      	subs	r2, #1
    2cfe:	6482      	str	r2, [r0, #72]	; 0x48
    2d00:	6ac0      	ldr	r0, [r0, #44]	; 0x2c
    2d02:	6c61      	ldr	r1, [r4, #68]	; 0x44
    2d04:	4288      	cmp	r0, r1
    2d06:	d02c      	beq.n	0x2d62
    2d08:	bb6a      	cbnz	r2, 0x2d66
    2d0a:	1d25      	adds	r5, r4, #4
    2d0c:	4628      	mov	r0, r5
    2d0e:	f7fe ff53 	bl	0x1bb8
    2d12:	b970      	cbnz	r0, 0x2d32
    2d14:	6ae2      	ldr	r2, [r4, #44]	; 0x2c
    2d16:	eb02 0182 	add.w	r1, r2, r2, lsl #2
    2d1a:	008b      	lsls	r3, r1, #2
    2d1c:	4914      	ldr	r1, [pc, #80]	; (0x2d70)
    2d1e:	58cb      	ldr	r3, [r1, r3]
    2d20:	b93b      	cbnz	r3, 0x2d32
    2d22:	2301      	movs	r3, #1
    2d24:	fa03 f202 	lsl.w	r2, r3, r2
    2d28:	4912      	ldr	r1, [pc, #72]	; (0x2d74)
    2d2a:	680b      	ldr	r3, [r1, #0]
    2d2c:	ea23 0302 	bic.w	r3, r3, r2
    2d30:	600b      	str	r3, [r1, #0]
    2d32:	6c63      	ldr	r3, [r4, #68]	; 0x44
    2d34:	62e3      	str	r3, [r4, #44]	; 0x2c
    2d36:	f1c3 0207 	rsb	r2, r3, #7
    2d3a:	61a2      	str	r2, [r4, #24]
    2d3c:	2401      	movs	r4, #1
    2d3e:	fa04 f203 	lsl.w	r2, r4, r3
    2d42:	490c      	ldr	r1, [pc, #48]	; (0x2d74)
    2d44:	6808      	ldr	r0, [r1, #0]
    2d46:	4302      	orrs	r2, r0
    2d48:	600a      	str	r2, [r1, #0]
    2d4a:	eb03 0383 	add.w	r3, r3, r3, lsl #2
    2d4e:	009a      	lsls	r2, r3, #2
    2d50:	4629      	mov	r1, r5
    2d52:	4807      	ldr	r0, [pc, #28]	; (0x2d70)
    2d54:	4410      	add	r0, r2
    2d56:	f7fe ff09 	bl	0x1b6c
    2d5a:	4620      	mov	r0, r4
    2d5c:	bd38      	pop	{r3, r4, r5, pc}
    2d5e:	2000      	movs	r0, #0
    2d60:	4770      	bx	lr
    2d62:	2000      	movs	r0, #0
    2d64:	bd38      	pop	{r3, r4, r5, pc}
    2d66:	2000      	movs	r0, #0
    2d68:	bd38      	pop	{r3, r4, r5, pc}
    2d6a:	bf00      	nop
    2d6c:	00d4      	lsls	r4, r2, #3
    2d6e:	2000      	movs	r0, #0
    2d70:	00e0      	lsls	r0, r4, #3
    2d72:	2000      	movs	r0, #0
    2d74:	0180      	lsls	r0, r0, #6
    2d76:	2000      	movs	r0, #0
    2d78:	4b05      	ldr	r3, [pc, #20]	; (0x2d90)
    2d7a:	681b      	ldr	r3, [r3, #0]
    2d7c:	b123      	cbz	r3, 0x2d88
    2d7e:	4b04      	ldr	r3, [pc, #16]	; (0x2d90)
    2d80:	681a      	ldr	r2, [r3, #0]
    2d82:	6c93      	ldr	r3, [r2, #72]	; 0x48
    2d84:	3301      	adds	r3, #1
    2d86:	6493      	str	r3, [r2, #72]	; 0x48
    2d88:	4b01      	ldr	r3, [pc, #4]	; (0x2d90)
    2d8a:	6818      	ldr	r0, [r3, #0]
    2d8c:	4770      	bx	lr
    2d8e:	bf00      	nop
    2d90:	00d4      	lsls	r4, r2, #3
    2d92:	2000      	movs	r0, #0
    2d94:	4b06      	ldr	r3, [pc, #24]	; (0x2db0)
    2d96:	681a      	ldr	r2, [r3, #0]
    2d98:	6813      	ldr	r3, [r2, #0]
    2d9a:	fab3 f383 	clz	r3, r3
    2d9e:	095b      	lsrs	r3, r3, #5
    2da0:	6003      	str	r3, [r0, #0]
    2da2:	b913      	cbnz	r3, 0x2daa
    2da4:	68d3      	ldr	r3, [r2, #12]
    2da6:	6818      	ldr	r0, [r3, #0]
    2da8:	4770      	bx	lr
    2daa:	2000      	movs	r0, #0
    2dac:	4770      	bx	lr
    2dae:	bf00      	nop
    2db0:	0200      	lsls	r0, r0, #8
    2db2:	2000      	movs	r0, #0
    2db4:	b508      	push	{r3, lr}
    2db6:	6041      	str	r1, [r0, #4]
    2db8:	6100      	str	r0, [r0, #16]
    2dba:	4291      	cmp	r1, r2
    2dbc:	d80c      	bhi.n	0x2dd8
    2dbe:	1ad2      	subs	r2, r2, r3
    2dc0:	6983      	ldr	r3, [r0, #24]
    2dc2:	429a      	cmp	r2, r3
    2dc4:	d301      	bcc.n	0x2dca
    2dc6:	2001      	movs	r0, #1
    2dc8:	bd08      	pop	{r3, pc}
    2dca:	1d01      	adds	r1, r0, #4
    2dcc:	4b09      	ldr	r3, [pc, #36]	; (0x2df4)
    2dce:	6818      	ldr	r0, [r3, #0]
    2dd0:	f7fe fed8 	bl	0x1b84
    2dd4:	2000      	movs	r0, #0
    2dd6:	bd08      	pop	{r3, pc}
    2dd8:	429a      	cmp	r2, r3
    2dda:	d201      	bcs.n	0x2de0
    2ddc:	4299      	cmp	r1, r3
    2dde:	d206      	bcs.n	0x2dee
    2de0:	1d01      	adds	r1, r0, #4
    2de2:	4b05      	ldr	r3, [pc, #20]	; (0x2df8)
    2de4:	6818      	ldr	r0, [r3, #0]
    2de6:	f7fe fecd 	bl	0x1b84
    2dea:	2000      	movs	r0, #0
    2dec:	bd08      	pop	{r3, pc}
    2dee:	2001      	movs	r0, #1
    2df0:	bd08      	pop	{r3, pc}
    2df2:	bf00      	nop
    2df4:	0204      	lsls	r4, r0, #8
    2df6:	2000      	movs	r0, #0
    2df8:	0200      	lsls	r0, r0, #8
    2dfa:	2000      	movs	r0, #0
    2dfc:	b538      	push	{r3, r4, r5, lr}
    2dfe:	f000 fc69 	bl	0x36d4
    2e02:	4b0f      	ldr	r3, [pc, #60]	; (0x2e40)
    2e04:	681b      	ldr	r3, [r3, #0]
    2e06:	b113      	cbz	r3, 0x2e0e
    2e08:	f000 fc86 	bl	0x3718
    2e0c:	bd38      	pop	{r3, r4, r5, pc}
    2e0e:	4d0d      	ldr	r5, [pc, #52]	; (0x2e44)
    2e10:	4628      	mov	r0, r5
    2e12:	f7fe fe9d 	bl	0x1b50
    2e16:	4c0c      	ldr	r4, [pc, #48]	; (0x2e48)
    2e18:	4620      	mov	r0, r4
    2e1a:	f7fe fe99 	bl	0x1b50
    2e1e:	4b0b      	ldr	r3, [pc, #44]	; (0x2e4c)
    2e20:	601d      	str	r5, [r3, #0]
    2e22:	4b0b      	ldr	r3, [pc, #44]	; (0x2e50)
    2e24:	601c      	str	r4, [r3, #0]
    2e26:	2200      	movs	r2, #0
    2e28:	210c      	movs	r1, #12
    2e2a:	200a      	movs	r0, #10
    2e2c:	f7fe ffc6 	bl	0x1dbc
    2e30:	4b03      	ldr	r3, [pc, #12]	; (0x2e40)
    2e32:	6018      	str	r0, [r3, #0]
    2e34:	2800      	cmp	r0, #0
    2e36:	d0e7      	beq.n	0x2e08
    2e38:	4906      	ldr	r1, [pc, #24]	; (0x2e54)
    2e3a:	f7ff fa61 	bl	0x2300
    2e3e:	e7e3      	b.n	0x2e08
    2e40:	0234      	lsls	r4, r6, #8
    2e42:	2000      	movs	r0, #0
    2e44:	0208      	lsls	r0, r1, #8
    2e46:	2000      	movs	r0, #0
    2e48:	021c      	lsls	r4, r3, #8
    2e4a:	2000      	movs	r0, #0
    2e4c:	0200      	lsls	r0, r0, #8
    2e4e:	2000      	movs	r0, #0
    2e50:	0204      	lsls	r4, r0, #8
    2e52:	2000      	movs	r0, #0
    2e54:	972c      	str	r7, [sp, #176]	; 0xb0
    2e56:	0800      	lsrs	r0, r0, #32
    2e58:	e92d 41f0 	stmdb	sp!, {r4, r5, r6, r7, r8, lr}
    2e5c:	9c07      	ldr	r4, [sp, #28]
    2e5e:	b941      	cbnz	r1, 0x2e72
    2e60:	f04f 0350 	mov.w	r3, #80	; 0x50
    2e64:	f383 8811 	msr	BASEPRI, r3
    2e68:	f3bf 8f6f 	isb	sy
    2e6c:	f3bf 8f4f 	dsb	sy
    2e70:	e7fe      	b.n	0x2e70
    2e72:	460f      	mov	r7, r1
    2e74:	b174      	cbz	r4, 0x2e94
    2e76:	461d      	mov	r5, r3
    2e78:	4616      	mov	r6, r2
    2e7a:	4680      	mov	r8, r0
    2e7c:	f7ff ffbe 	bl	0x2dfc
    2e80:	f8c4 8000 	str.w	r8, [r4]
    2e84:	61a7      	str	r7, [r4, #24]
    2e86:	61e6      	str	r6, [r4, #28]
    2e88:	6225      	str	r5, [r4, #32]
    2e8a:	9b06      	ldr	r3, [sp, #24]
    2e8c:	6263      	str	r3, [r4, #36]	; 0x24
    2e8e:	1d20      	adds	r0, r4, #4
    2e90:	f7fe fe69 	bl	0x1b66
    2e94:	e8bd 81f0 	ldmia.w	sp!, {r4, r5, r6, r7, r8, pc}
    2e98:	b500      	push	{lr}
    2e9a:	b083      	sub	sp, #12
    2e9c:	f7ff ffae 	bl	0x2dfc
    2ea0:	4b0d      	ldr	r3, [pc, #52]	; (0x2ed8)
    2ea2:	681b      	ldr	r3, [r3, #0]
    2ea4:	b19b      	cbz	r3, 0x2ece
    2ea6:	4b0d      	ldr	r3, [pc, #52]	; (0x2edc)
    2ea8:	9301      	str	r3, [sp, #4]
    2eaa:	2303      	movs	r3, #3
    2eac:	9300      	str	r3, [sp, #0]
    2eae:	2300      	movs	r3, #0
    2eb0:	2280      	movs	r2, #128	; 0x80
    2eb2:	490b      	ldr	r1, [pc, #44]	; (0x2ee0)
    2eb4:	480b      	ldr	r0, [pc, #44]	; (0x2ee4)
    2eb6:	f7ff fb9b 	bl	0x25f0
    2eba:	b950      	cbnz	r0, 0x2ed2
    2ebc:	f04f 0350 	mov.w	r3, #80	; 0x50
    2ec0:	f383 8811 	msr	BASEPRI, r3
    2ec4:	f3bf 8f6f 	isb	sy
    2ec8:	f3bf 8f4f 	dsb	sy
    2ecc:	e7fe      	b.n	0x2ecc
    2ece:	2000      	movs	r0, #0
    2ed0:	e7f3      	b.n	0x2eba
    2ed2:	b003      	add	sp, #12
    2ed4:	f85d fb04 	ldr.w	pc, [sp], #4
    2ed8:	0234      	lsls	r4, r6, #8
    2eda:	2000      	movs	r0, #0
    2edc:	0238      	lsls	r0, r7, #8
    2ede:	2000      	movs	r0, #0
    2ee0:	9734      	str	r7, [sp, #208]	; 0xd0
    2ee2:	0800      	lsrs	r0, r0, #32
    2ee4:	81e5      	strh	r5, [r4, #14]
    2ee6:	0800      	lsrs	r0, r0, #32
    2ee8:	e92d 41f0 	stmdb	sp!, {r4, r5, r6, r7, r8, lr}
    2eec:	b082      	sub	sp, #8
    2eee:	4605      	mov	r5, r0
    2ef0:	460e      	mov	r6, r1
    2ef2:	4617      	mov	r7, r2
    2ef4:	4698      	mov	r8, r3
    2ef6:	2028      	movs	r0, #40	; 0x28
    2ef8:	f000 fae2 	bl	0x34c0
    2efc:	4604      	mov	r4, r0
    2efe:	b140      	cbz	r0, 0x2f12
    2f00:	9001      	str	r0, [sp, #4]
    2f02:	9b08      	ldr	r3, [sp, #32]
    2f04:	9300      	str	r3, [sp, #0]
    2f06:	4643      	mov	r3, r8
    2f08:	463a      	mov	r2, r7
    2f0a:	4631      	mov	r1, r6
    2f0c:	4628      	mov	r0, r5
    2f0e:	f7ff ffa3 	bl	0x2e58
    2f12:	4620      	mov	r0, r4
    2f14:	b002      	add	sp, #8
    2f16:	e8bd 81f0 	ldmia.w	sp!, {r4, r5, r6, r7, r8, pc}
    2f1a:	0000      	movs	r0, r0
    2f1c:	b1c0      	cbz	r0, 0x2f50
    2f1e:	b530      	push	{r4, r5, lr}
    2f20:	b085      	sub	sp, #20
    2f22:	4615      	mov	r5, r2
    2f24:	4604      	mov	r4, r0
    2f26:	4a17      	ldr	r2, [pc, #92]	; (0x2f84)
    2f28:	6810      	ldr	r0, [r2, #0]
    2f2a:	b340      	cbz	r0, 0x2f7e
    2f2c:	461a      	mov	r2, r3
    2f2e:	9101      	str	r1, [sp, #4]
    2f30:	9502      	str	r5, [sp, #8]
    2f32:	9403      	str	r4, [sp, #12]
    2f34:	2905      	cmp	r1, #5
    2f36:	dc1c      	bgt.n	0x2f72
    2f38:	f7ff fe62 	bl	0x2c00
    2f3c:	2802      	cmp	r0, #2
    2f3e:	d010      	beq.n	0x2f62
    2f40:	2300      	movs	r3, #0
    2f42:	461a      	mov	r2, r3
    2f44:	a901      	add	r1, sp, #4
    2f46:	480f      	ldr	r0, [pc, #60]	; (0x2f84)
    2f48:	6800      	ldr	r0, [r0, #0]
    2f4a:	f7fe ff5b 	bl	0x1e04
    2f4e:	e014      	b.n	0x2f7a
    2f50:	f04f 0350 	mov.w	r3, #80	; 0x50
    2f54:	f383 8811 	msr	BASEPRI, r3
    2f58:	f3bf 8f6f 	isb	sy
    2f5c:	f3bf 8f4f 	dsb	sy
    2f60:	e7fe      	b.n	0x2f60
    2f62:	2300      	movs	r3, #0
    2f64:	9a08      	ldr	r2, [sp, #32]
    2f66:	a901      	add	r1, sp, #4
    2f68:	4806      	ldr	r0, [pc, #24]	; (0x2f84)
    2f6a:	6800      	ldr	r0, [r0, #0]
    2f6c:	f7fe ff4a 	bl	0x1e04
    2f70:	e003      	b.n	0x2f7a
    2f72:	2300      	movs	r3, #0
    2f74:	a901      	add	r1, sp, #4
    2f76:	f7ff f820 	bl	0x1fba
    2f7a:	b005      	add	sp, #20
    2f7c:	bd30      	pop	{r4, r5, pc}
    2f7e:	2000      	movs	r0, #0
    2f80:	e7fb      	b.n	0x2f7a
    2f82:	bf00      	nop
    2f84:	0234      	lsls	r4, r6, #8
    2f86:	2000      	movs	r0, #0
    2f88:	b570      	push	{r4, r5, r6, lr}
    2f8a:	b082      	sub	sp, #8
    2f8c:	4b1a      	ldr	r3, [pc, #104]	; (0x2ff8)
    2f8e:	681b      	ldr	r3, [r3, #0]
    2f90:	681a      	ldr	r2, [r3, #0]
    2f92:	b352      	cbz	r2, 0x2fea
    2f94:	68db      	ldr	r3, [r3, #12]
    2f96:	681e      	ldr	r6, [r3, #0]
    2f98:	68dc      	ldr	r4, [r3, #12]
    2f9a:	1d25      	adds	r5, r4, #4
    2f9c:	4628      	mov	r0, r5
    2f9e:	f7fe fe0b 	bl	0x1bb8
    2fa2:	6a63      	ldr	r3, [r4, #36]	; 0x24
    2fa4:	4620      	mov	r0, r4
    2fa6:	4798      	blx	r3
    2fa8:	69e3      	ldr	r3, [r4, #28]
    2faa:	2b01      	cmp	r3, #1
    2fac:	d1ee      	bne.n	0x2f8c
    2fae:	69a3      	ldr	r3, [r4, #24]
    2fb0:	4433      	add	r3, r6
    2fb2:	429e      	cmp	r6, r3
    2fb4:	d207      	bcs.n	0x2fc6
    2fb6:	6063      	str	r3, [r4, #4]
    2fb8:	6124      	str	r4, [r4, #16]
    2fba:	4629      	mov	r1, r5
    2fbc:	4b0e      	ldr	r3, [pc, #56]	; (0x2ff8)
    2fbe:	6818      	ldr	r0, [r3, #0]
    2fc0:	f7fe fde0 	bl	0x1b84
    2fc4:	e7e2      	b.n	0x2f8c
    2fc6:	2100      	movs	r1, #0
    2fc8:	9100      	str	r1, [sp, #0]
    2fca:	460b      	mov	r3, r1
    2fcc:	4632      	mov	r2, r6
    2fce:	4620      	mov	r0, r4
    2fd0:	f7ff ffa4 	bl	0x2f1c
    2fd4:	2800      	cmp	r0, #0
    2fd6:	d1d9      	bne.n	0x2f8c
    2fd8:	f04f 0350 	mov.w	r3, #80	; 0x50
    2fdc:	f383 8811 	msr	BASEPRI, r3
    2fe0:	f3bf 8f6f 	isb	sy
    2fe4:	f3bf 8f4f 	dsb	sy
    2fe8:	e7fe      	b.n	0x2fe8
    2fea:	4a04      	ldr	r2, [pc, #16]	; (0x2ffc)
    2fec:	6810      	ldr	r0, [r2, #0]
    2fee:	4902      	ldr	r1, [pc, #8]	; (0x2ff8)
    2ff0:	6008      	str	r0, [r1, #0]
    2ff2:	6013      	str	r3, [r2, #0]
    2ff4:	b002      	add	sp, #8
    2ff6:	bd70      	pop	{r4, r5, r6, pc}
    2ff8:	0200      	lsls	r0, r0, #8
    2ffa:	2000      	movs	r0, #0
    2ffc:	0204      	lsls	r4, r0, #8
    2ffe:	2000      	movs	r0, #0
    3000:	b538      	push	{r3, r4, r5, lr}
    3002:	4605      	mov	r5, r0
    3004:	f7ff fb70 	bl	0x26e8
    3008:	4604      	mov	r4, r0
    300a:	4b07      	ldr	r3, [pc, #28]	; (0x3028)
    300c:	681b      	ldr	r3, [r3, #0]
    300e:	4298      	cmp	r0, r3
    3010:	d305      	bcc.n	0x301e
    3012:	2300      	movs	r3, #0
    3014:	602b      	str	r3, [r5, #0]
    3016:	4b04      	ldr	r3, [pc, #16]	; (0x3028)
    3018:	601c      	str	r4, [r3, #0]
    301a:	4620      	mov	r0, r4
    301c:	bd38      	pop	{r3, r4, r5, pc}
    301e:	f7ff ffb3 	bl	0x2f88
    3022:	2301      	movs	r3, #1
    3024:	602b      	str	r3, [r5, #0]
    3026:	e7f6      	b.n	0x3016
    3028:	0230      	lsls	r0, r6, #8
    302a:	2000      	movs	r0, #0
    302c:	b570      	push	{r4, r5, r6, lr}
    302e:	b082      	sub	sp, #8
    3030:	4605      	mov	r5, r0
    3032:	460e      	mov	r6, r1
    3034:	4b14      	ldr	r3, [pc, #80]	; (0x3088)
    3036:	681b      	ldr	r3, [r3, #0]
    3038:	68db      	ldr	r3, [r3, #12]
    303a:	68dc      	ldr	r4, [r3, #12]
    303c:	1d20      	adds	r0, r4, #4
    303e:	f7fe fdbb 	bl	0x1bb8
    3042:	69e3      	ldr	r3, [r4, #28]
    3044:	2b01      	cmp	r3, #1
    3046:	d004      	beq.n	0x3052
    3048:	6a63      	ldr	r3, [r4, #36]	; 0x24
    304a:	4620      	mov	r0, r4
    304c:	4798      	blx	r3
    304e:	b002      	add	sp, #8
    3050:	bd70      	pop	{r4, r5, r6, pc}
    3052:	69a1      	ldr	r1, [r4, #24]
    3054:	462b      	mov	r3, r5
    3056:	4632      	mov	r2, r6
    3058:	4429      	add	r1, r5
    305a:	4620      	mov	r0, r4
    305c:	f7ff feaa 	bl	0x2db4
    3060:	2800      	cmp	r0, #0
    3062:	d0f1      	beq.n	0x3048
    3064:	2100      	movs	r1, #0
    3066:	9100      	str	r1, [sp, #0]
    3068:	460b      	mov	r3, r1
    306a:	462a      	mov	r2, r5
    306c:	4620      	mov	r0, r4
    306e:	f7ff ff55 	bl	0x2f1c
    3072:	2800      	cmp	r0, #0
    3074:	d1e8      	bne.n	0x3048
    3076:	f04f 0350 	mov.w	r3, #80	; 0x50
    307a:	f383 8811 	msr	BASEPRI, r3
    307e:	f3bf 8f6f 	isb	sy
    3082:	f3bf 8f4f 	dsb	sy
    3086:	e7fe      	b.n	0x3086
    3088:	0200      	lsls	r0, r0, #8
    308a:	2000      	movs	r0, #0
    308c:	b570      	push	{r4, r5, r6, lr}
    308e:	b082      	sub	sp, #8
    3090:	4606      	mov	r6, r0
    3092:	460c      	mov	r4, r1
    3094:	f7ff fb20 	bl	0x26d8
    3098:	a801      	add	r0, sp, #4
    309a:	f7ff ffb1 	bl	0x3000
    309e:	9b01      	ldr	r3, [sp, #4]
    30a0:	bb23      	cbnz	r3, 0x30ec
    30a2:	4605      	mov	r5, r0
    30a4:	b90c      	cbnz	r4, 0x30aa
    30a6:	42b0      	cmp	r0, r6
    30a8:	d219      	bcs.n	0x30de
    30aa:	b12c      	cbz	r4, 0x30b8
    30ac:	4b11      	ldr	r3, [pc, #68]	; (0x30f4)
    30ae:	681b      	ldr	r3, [r3, #0]
    30b0:	681c      	ldr	r4, [r3, #0]
    30b2:	fab4 f484 	clz	r4, r4
    30b6:	0964      	lsrs	r4, r4, #5
    30b8:	4622      	mov	r2, r4
    30ba:	1b71      	subs	r1, r6, r5
    30bc:	4b0e      	ldr	r3, [pc, #56]	; (0x30f8)
    30be:	6818      	ldr	r0, [r3, #0]
    30c0:	f7ff f932 	bl	0x2328
    30c4:	f7ff fba6 	bl	0x2814
    30c8:	b938      	cbnz	r0, 0x30da
    30ca:	f04f 5280 	mov.w	r2, #268435456	; 0x10000000
    30ce:	4b0b      	ldr	r3, [pc, #44]	; (0x30fc)
    30d0:	601a      	str	r2, [r3, #0]
    30d2:	f3bf 8f4f 	dsb	sy
    30d6:	f3bf 8f6f 	isb	sy
    30da:	b002      	add	sp, #8
    30dc:	bd70      	pop	{r4, r5, r6, pc}
    30de:	f7ff fb99 	bl	0x2814
    30e2:	4629      	mov	r1, r5
    30e4:	4630      	mov	r0, r6
    30e6:	f7ff ffa1 	bl	0x302c
    30ea:	e7f6      	b.n	0x30da
    30ec:	f7ff fb92 	bl	0x2814
    30f0:	e7f3      	b.n	0x30da
    30f2:	bf00      	nop
    30f4:	0204      	lsls	r4, r0, #8
    30f6:	2000      	movs	r0, #0
    30f8:	0234      	lsls	r4, r6, #8
    30fa:	2000      	movs	r0, #0
    30fc:	ed04 e000 	stc	0, cr14, [r4, #-0]
    3100:	b530      	push	{r4, r5, lr}
    3102:	b087      	sub	sp, #28
    3104:	2300      	movs	r3, #0
    3106:	461a      	mov	r2, r3
    3108:	a903      	add	r1, sp, #12
    310a:	4835      	ldr	r0, [pc, #212]	; (0x31e0)
    310c:	6800      	ldr	r0, [r0, #0]
    310e:	f7fe ffc3 	bl	0x2098
    3112:	2800      	cmp	r0, #0
    3114:	d061      	beq.n	0x31da
    3116:	9b03      	ldr	r3, [sp, #12]
    3118:	2b00      	cmp	r3, #0
    311a:	dbf3      	blt.n	0x3104
    311c:	9c05      	ldr	r4, [sp, #20]
    311e:	6963      	ldr	r3, [r4, #20]
    3120:	b113      	cbz	r3, 0x3128
    3122:	1d20      	adds	r0, r4, #4
    3124:	f7fe fd48 	bl	0x1bb8
    3128:	a802      	add	r0, sp, #8
    312a:	f7ff ff69 	bl	0x3000
    312e:	9b03      	ldr	r3, [sp, #12]
    3130:	2b09      	cmp	r3, #9
    3132:	d8e7      	bhi.n	0x3104
    3134:	a201      	add	r2, pc, #4	; (adr r2, 0x313c)
    3136:	f852 f023 	ldr.w	pc, [r2, r3, lsl #2]
    313a:	bf00      	nop
    313c:	8165      	strh	r5, [r4, #10]
    313e:	0800      	lsrs	r0, r0, #32
    3140:	8165      	strh	r5, [r4, #10]
    3142:	0800      	lsrs	r0, r0, #32
    3144:	8165      	strh	r5, [r4, #10]
    3146:	0800      	lsrs	r0, r0, #32
    3148:	8105      	strh	r5, [r0, #8]
    314a:	0800      	lsrs	r0, r0, #32
    314c:	81ad      	strh	r5, [r5, #12]
    314e:	0800      	lsrs	r0, r0, #32
    3150:	81d3      	strh	r3, [r2, #14]
    3152:	0800      	lsrs	r0, r0, #32
    3154:	8165      	strh	r5, [r4, #10]
    3156:	0800      	lsrs	r0, r0, #32
    3158:	8165      	strh	r5, [r4, #10]
    315a:	0800      	lsrs	r0, r0, #32
    315c:	8105      	strh	r5, [r0, #8]
    315e:	0800      	lsrs	r0, r0, #32
    3160:	81ad      	strh	r5, [r5, #12]
    3162:	0800      	lsrs	r0, r0, #32
    3164:	9904      	ldr	r1, [sp, #16]
    3166:	69a5      	ldr	r5, [r4, #24]
    3168:	460b      	mov	r3, r1
    316a:	4602      	mov	r2, r0
    316c:	4429      	add	r1, r5
    316e:	4620      	mov	r0, r4
    3170:	f7ff fe20 	bl	0x2db4
    3174:	2800      	cmp	r0, #0
    3176:	d0c5      	beq.n	0x3104
    3178:	6a63      	ldr	r3, [r4, #36]	; 0x24
    317a:	4620      	mov	r0, r4
    317c:	4798      	blx	r3
    317e:	69e3      	ldr	r3, [r4, #28]
    3180:	2b01      	cmp	r3, #1
    3182:	d1bf      	bne.n	0x3104
    3184:	69a2      	ldr	r2, [r4, #24]
    3186:	2100      	movs	r1, #0
    3188:	9100      	str	r1, [sp, #0]
    318a:	460b      	mov	r3, r1
    318c:	9804      	ldr	r0, [sp, #16]
    318e:	4402      	add	r2, r0
    3190:	4620      	mov	r0, r4
    3192:	f7ff fec3 	bl	0x2f1c
    3196:	2800      	cmp	r0, #0
    3198:	d1b4      	bne.n	0x3104
    319a:	f04f 0350 	mov.w	r3, #80	; 0x50
    319e:	f383 8811 	msr	BASEPRI, r3
    31a2:	f3bf 8f6f 	isb	sy
    31a6:	f3bf 8f4f 	dsb	sy
    31aa:	e7fe      	b.n	0x31aa
    31ac:	9904      	ldr	r1, [sp, #16]
    31ae:	61a1      	str	r1, [r4, #24]
    31b0:	b131      	cbz	r1, 0x31c0
    31b2:	4603      	mov	r3, r0
    31b4:	4602      	mov	r2, r0
    31b6:	4401      	add	r1, r0
    31b8:	4620      	mov	r0, r4
    31ba:	f7ff fdfb 	bl	0x2db4
    31be:	e7a1      	b.n	0x3104
    31c0:	f04f 0350 	mov.w	r3, #80	; 0x50
    31c4:	f383 8811 	msr	BASEPRI, r3
    31c8:	f3bf 8f6f 	isb	sy
    31cc:	f3bf 8f4f 	dsb	sy
    31d0:	e7fe      	b.n	0x31d0
    31d2:	4620      	mov	r0, r4
    31d4:	f000 f9f8 	bl	0x35c8
    31d8:	e794      	b.n	0x3104
    31da:	b007      	add	sp, #28
    31dc:	bd30      	pop	{r4, r5, pc}
    31de:	bf00      	nop
    31e0:	0234      	lsls	r4, r6, #8
    31e2:	2000      	movs	r0, #0
    31e4:	b500      	push	{lr}
    31e6:	b083      	sub	sp, #12
    31e8:	a801      	add	r0, sp, #4
    31ea:	f7ff fdd3 	bl	0x2d94
    31ee:	9901      	ldr	r1, [sp, #4]
    31f0:	f7ff ff4c 	bl	0x308c
    31f4:	f7ff ff84 	bl	0x3100
    31f8:	e7f6      	b.n	0x31e8
    31fa:	2884      	cmp	r0, #132	; 0x84
    31fc:	d001      	beq.n	0x3202
    31fe:	3003      	adds	r0, #3
    3200:	4770      	bx	lr
    3202:	2000      	movs	r0, #0
    3204:	4770      	bx	lr
    3206:	f3ef 8005 	mrs	r0, IPSR
    320a:	3000      	adds	r0, #0
    320c:	bf18      	it	ne
    320e:	2001      	movne	r0, #1
    3210:	4770      	bx	lr
    3212:	b508      	push	{r3, lr}
    3214:	f7ff fa1e 	bl	0x2654
    3218:	2000      	movs	r0, #0
    321a:	bd08      	pop	{r3, pc}
    321c:	b5f0      	push	{r4, r5, r6, r7, lr}
    321e:	b085      	sub	sp, #20
    3220:	460f      	mov	r7, r1
    3222:	6844      	ldr	r4, [r0, #4]
    3224:	6805      	ldr	r5, [r0, #0]
    3226:	6906      	ldr	r6, [r0, #16]
    3228:	f9b0 0008 	ldrsh.w	r0, [r0, #8]
    322c:	f7ff ffe5 	bl	0x31fa
    3230:	ab03      	add	r3, sp, #12
    3232:	9301      	str	r3, [sp, #4]
    3234:	9000      	str	r0, [sp, #0]
    3236:	463b      	mov	r3, r7
    3238:	b2b2      	uxth	r2, r6
    323a:	4629      	mov	r1, r5
    323c:	4620      	mov	r0, r4
    323e:	f7ff f9d7 	bl	0x25f0
    3242:	2801      	cmp	r0, #1
    3244:	d102      	bne.n	0x324c
    3246:	9803      	ldr	r0, [sp, #12]
    3248:	b005      	add	sp, #20
    324a:	bdf0      	pop	{r4, r5, r6, r7, pc}
    324c:	2000      	movs	r0, #0
    324e:	e7fb      	b.n	0x3248
    3250:	b500      	push	{lr}
    3252:	b083      	sub	sp, #12
    3254:	4613      	mov	r3, r2
    3256:	2901      	cmp	r1, #1
    3258:	d009      	beq.n	0x326e
    325a:	2200      	movs	r2, #0
    325c:	6801      	ldr	r1, [r0, #0]
    325e:	9100      	str	r1, [sp, #0]
    3260:	2101      	movs	r1, #1
    3262:	4804      	ldr	r0, [pc, #16]	; (0x3274)
    3264:	f7ff fe40 	bl	0x2ee8
    3268:	b003      	add	sp, #12
    326a:	f85d fb04 	ldr.w	pc, [sp], #4
    326e:	2201      	movs	r2, #1
    3270:	e7f4      	b.n	0x325c
    3272:	bf00      	nop
    3274:	9728      	str	r7, [sp, #160]	; 0xa0
    3276:	0800      	lsrs	r0, r0, #32
    3278:	b530      	push	{r4, r5, lr}
    327a:	b085      	sub	sp, #20
    327c:	4605      	mov	r5, r0
    327e:	2300      	movs	r3, #0
    3280:	9303      	str	r3, [sp, #12]
    3282:	460c      	mov	r4, r1
    3284:	b901      	cbnz	r1, 0x3288
    3286:	2401      	movs	r4, #1
    3288:	f7ff ffbd 	bl	0x3206
    328c:	b1c0      	cbz	r0, 0x32c0
    328e:	2300      	movs	r3, #0
    3290:	9300      	str	r3, [sp, #0]
    3292:	ab03      	add	r3, sp, #12
    3294:	4622      	mov	r2, r4
    3296:	2109      	movs	r1, #9
    3298:	4628      	mov	r0, r5
    329a:	f7ff fe3f 	bl	0x2f1c
    329e:	2801      	cmp	r0, #1
    32a0:	d002      	beq.n	0x32a8
    32a2:	20ff      	movs	r0, #255	; 0xff
    32a4:	b005      	add	sp, #20
    32a6:	bd30      	pop	{r4, r5, pc}
    32a8:	9b03      	ldr	r3, [sp, #12]
    32aa:	b1b3      	cbz	r3, 0x32da
    32ac:	f04f 5280 	mov.w	r2, #268435456	; 0x10000000
    32b0:	4b0b      	ldr	r3, [pc, #44]	; (0x32e0)
    32b2:	601a      	str	r2, [r3, #0]
    32b4:	f3bf 8f4f 	dsb	sy
    32b8:	f3bf 8f6f 	isb	sy
    32bc:	2000      	movs	r0, #0
    32be:	e7f1      	b.n	0x32a4
    32c0:	2300      	movs	r3, #0
    32c2:	9300      	str	r3, [sp, #0]
    32c4:	4622      	mov	r2, r4
    32c6:	2104      	movs	r1, #4
    32c8:	4628      	mov	r0, r5
    32ca:	f7ff fe27 	bl	0x2f1c
    32ce:	2801      	cmp	r0, #1
    32d0:	d001      	beq.n	0x32d6
    32d2:	20ff      	movs	r0, #255	; 0xff
    32d4:	e7e6      	b.n	0x32a4
    32d6:	2000      	movs	r0, #0
    32d8:	e7e4      	b.n	0x32a4
    32da:	2000      	movs	r0, #0
    32dc:	e7e2      	b.n	0x32a4
    32de:	bf00      	nop
    32e0:	ed04 e000 	stc	0, cr14, [r4, #-0]
    32e4:	b508      	push	{r3, lr}
    32e6:	2001      	movs	r0, #1
    32e8:	f7fe fe5c 	bl	0x1fa4
    32ec:	bd08      	pop	{r3, pc}
    32ee:	b508      	push	{r3, lr}
    32f0:	2200      	movs	r2, #0
    32f2:	6841      	ldr	r1, [r0, #4]
    32f4:	6800      	ldr	r0, [r0, #0]
    32f6:	f7fe fd61 	bl	0x1dbc
    32fa:	bd08      	pop	{r3, pc}
    32fc:	b530      	push	{r4, r5, lr}
    32fe:	b085      	sub	sp, #20
    3300:	4604      	mov	r4, r0
    3302:	9101      	str	r1, [sp, #4]
    3304:	2300      	movs	r3, #0
    3306:	9303      	str	r3, [sp, #12]
    3308:	4615      	mov	r5, r2
    330a:	b902      	cbnz	r2, 0x330e
    330c:	2501      	movs	r5, #1
    330e:	f7ff ff7a 	bl	0x3206
    3312:	b1a8      	cbz	r0, 0x3340
    3314:	2300      	movs	r3, #0
    3316:	aa03      	add	r2, sp, #12
    3318:	a901      	add	r1, sp, #4
    331a:	4620      	mov	r0, r4
    331c:	f7fe fe4d 	bl	0x1fba
    3320:	2801      	cmp	r0, #1
    3322:	d001      	beq.n	0x3328
    3324:	20ff      	movs	r0, #255	; 0xff
    3326:	e014      	b.n	0x3352
    3328:	9b03      	ldr	r3, [sp, #12]
    332a:	b1a3      	cbz	r3, 0x3356
    332c:	f04f 5280 	mov.w	r2, #268435456	; 0x10000000
    3330:	4b0b      	ldr	r3, [pc, #44]	; (0x3360)
    3332:	601a      	str	r2, [r3, #0]
    3334:	f3bf 8f4f 	dsb	sy
    3338:	f3bf 8f6f 	isb	sy
    333c:	2000      	movs	r0, #0
    333e:	e008      	b.n	0x3352
    3340:	2300      	movs	r3, #0
    3342:	462a      	mov	r2, r5
    3344:	a901      	add	r1, sp, #4
    3346:	4620      	mov	r0, r4
    3348:	f7fe fd5c 	bl	0x1e04
    334c:	2801      	cmp	r0, #1
    334e:	d004      	beq.n	0x335a
    3350:	20ff      	movs	r0, #255	; 0xff
    3352:	b005      	add	sp, #20
    3354:	bd30      	pop	{r4, r5, pc}
    3356:	2000      	movs	r0, #0
    3358:	e7fb      	b.n	0x3352
    335a:	2000      	movs	r0, #0
    335c:	e7f9      	b.n	0x3352
    335e:	bf00      	nop
    3360:	ed04 e000 	stc	0, cr14, [r4, #-0]
    3364:	b570      	push	{r4, r5, r6, lr}
    3366:	b084      	sub	sp, #16
    3368:	4604      	mov	r4, r0
    336a:	9102      	str	r1, [sp, #8]
    336c:	2300      	movs	r3, #0
    336e:	9301      	str	r3, [sp, #4]
    3370:	b1f9      	cbz	r1, 0x33b2
    3372:	460d      	mov	r5, r1
    3374:	4616      	mov	r6, r2
    3376:	2300      	movs	r3, #0
    3378:	9303      	str	r3, [sp, #12]
    337a:	f1b2 3fff 	cmp.w	r2, #4294967295	; 0xffffffff
    337e:	d021      	beq.n	0x33c4
    3380:	b902      	cbnz	r2, 0x3384
    3382:	461e      	mov	r6, r3
    3384:	f7ff ff3f 	bl	0x3206
    3388:	b310      	cbz	r0, 0x33d0
    338a:	aa03      	add	r2, sp, #12
    338c:	a901      	add	r1, sp, #4
    338e:	4628      	mov	r0, r5
    3390:	f7fe ff5a 	bl	0x2248
    3394:	2801      	cmp	r0, #1
    3396:	d018      	beq.n	0x33ca
    3398:	2300      	movs	r3, #0
    339a:	9300      	str	r3, [sp, #0]
    339c:	9b03      	ldr	r3, [sp, #12]
    339e:	b313      	cbz	r3, 0x33e6
    33a0:	f04f 5280 	mov.w	r2, #268435456	; 0x10000000
    33a4:	4b16      	ldr	r3, [pc, #88]	; (0x3400)
    33a6:	601a      	str	r2, [r3, #0]
    33a8:	f3bf 8f4f 	dsb	sy
    33ac:	f3bf 8f6f 	isb	sy
    33b0:	e019      	b.n	0x33e6
    33b2:	ab04      	add	r3, sp, #16
    33b4:	2280      	movs	r2, #128	; 0x80
    33b6:	f843 2d10 	str.w	r2, [r3, #-16]!
    33ba:	e893 0007 	ldmia.w	r3, {r0, r1, r2}
    33be:	e884 0007 	stmia.w	r4, {r0, r1, r2}
    33c2:	e014      	b.n	0x33ee
    33c4:	f04f 36ff 	mov.w	r6, #4294967295	; 0xffffffff
    33c8:	e7dc      	b.n	0x3384
    33ca:	2310      	movs	r3, #16
    33cc:	9300      	str	r3, [sp, #0]
    33ce:	e7e5      	b.n	0x339c
    33d0:	2300      	movs	r3, #0
    33d2:	4632      	mov	r2, r6
    33d4:	a901      	add	r1, sp, #4
    33d6:	4628      	mov	r0, r5
    33d8:	f7fe fe5e 	bl	0x2098
    33dc:	2801      	cmp	r0, #1
    33de:	d009      	beq.n	0x33f4
    33e0:	b95e      	cbnz	r6, 0x33fa
    33e2:	2300      	movs	r3, #0
    33e4:	9300      	str	r3, [sp, #0]
    33e6:	e89d 0007 	ldmia.w	sp, {r0, r1, r2}
    33ea:	e884 0007 	stmia.w	r4, {r0, r1, r2}
    33ee:	4620      	mov	r0, r4
    33f0:	b004      	add	sp, #16
    33f2:	bd70      	pop	{r4, r5, r6, pc}
    33f4:	2310      	movs	r3, #16
    33f6:	9300      	str	r3, [sp, #0]
    33f8:	e7f5      	b.n	0x33e6
    33fa:	2340      	movs	r3, #64	; 0x40
    33fc:	e7f2      	b.n	0x33e4
    33fe:	bf00      	nop
    3400:	ed04 e000 	stc	0, cr14, [r4, #-0]
    3404:	4a13      	ldr	r2, [pc, #76]	; (0x3454)
    3406:	f012 0f07 	tst.w	r2, #7
    340a:	d01f      	beq.n	0x344c
    340c:	1dd1      	adds	r1, r2, #7
    340e:	f021 0107 	bic.w	r1, r1, #7
    3412:	f5c1 531c 	rsb	r3, r1, #9984	; 0x2700
    3416:	3310      	adds	r3, #16
    3418:	4413      	add	r3, r2
    341a:	460a      	mov	r2, r1
    341c:	480e      	ldr	r0, [pc, #56]	; (0x3458)
    341e:	6002      	str	r2, [r0, #0]
    3420:	2100      	movs	r1, #0
    3422:	6041      	str	r1, [r0, #4]
    3424:	4413      	add	r3, r2
    3426:	3b08      	subs	r3, #8
    3428:	f023 0307 	bic.w	r3, r3, #7
    342c:	480b      	ldr	r0, [pc, #44]	; (0x345c)
    342e:	6003      	str	r3, [r0, #0]
    3430:	6059      	str	r1, [r3, #4]
    3432:	6019      	str	r1, [r3, #0]
    3434:	1a99      	subs	r1, r3, r2
    3436:	6051      	str	r1, [r2, #4]
    3438:	6013      	str	r3, [r2, #0]
    343a:	4b09      	ldr	r3, [pc, #36]	; (0x3460)
    343c:	6019      	str	r1, [r3, #0]
    343e:	4b09      	ldr	r3, [pc, #36]	; (0x3464)
    3440:	6019      	str	r1, [r3, #0]
    3442:	f04f 4200 	mov.w	r2, #2147483648	; 0x80000000
    3446:	4b08      	ldr	r3, [pc, #32]	; (0x3468)
    3448:	601a      	str	r2, [r3, #0]
    344a:	4770      	bx	lr
    344c:	f242 7310 	movw	r3, #10000	; 0x2710
    3450:	e7e4      	b.n	0x341c
    3452:	bf00      	nop
    3454:	0240      	lsls	r0, r0, #9
    3456:	2000      	movs	r0, #0
    3458:	295c      	cmp	r1, #92	; 0x5c
    345a:	2000      	movs	r0, #0
    345c:	023c      	lsls	r4, r7, #8
    345e:	2000      	movs	r0, #0
    3460:	2958      	cmp	r1, #88	; 0x58
    3462:	2000      	movs	r0, #0
    3464:	2954      	cmp	r1, #84	; 0x54
    3466:	2000      	movs	r0, #0
    3468:	2950      	cmp	r1, #80	; 0x50
    346a:	2000      	movs	r0, #0
    346c:	b410      	push	{r4}
    346e:	4b12      	ldr	r3, [pc, #72]	; (0x34b8)
    3470:	681a      	ldr	r2, [r3, #0]
    3472:	4282      	cmp	r2, r0
    3474:	d31a      	bcc.n	0x34ac
    3476:	6859      	ldr	r1, [r3, #4]
    3478:	185c      	adds	r4, r3, r1
    347a:	42a0      	cmp	r0, r4
    347c:	d103      	bne.n	0x3486
    347e:	6840      	ldr	r0, [r0, #4]
    3480:	4401      	add	r1, r0
    3482:	6059      	str	r1, [r3, #4]
    3484:	4618      	mov	r0, r3
    3486:	6841      	ldr	r1, [r0, #4]
    3488:	1844      	adds	r4, r0, r1
    348a:	42a2      	cmp	r2, r4
    348c:	d112      	bne.n	0x34b4
    348e:	4c0b      	ldr	r4, [pc, #44]	; (0x34bc)
    3490:	6824      	ldr	r4, [r4, #0]
    3492:	42a2      	cmp	r2, r4
    3494:	d00c      	beq.n	0x34b0
    3496:	6852      	ldr	r2, [r2, #4]
    3498:	4411      	add	r1, r2
    349a:	6041      	str	r1, [r0, #4]
    349c:	681a      	ldr	r2, [r3, #0]
    349e:	6812      	ldr	r2, [r2, #0]
    34a0:	6002      	str	r2, [r0, #0]
    34a2:	4298      	cmp	r0, r3
    34a4:	d000      	beq.n	0x34a8
    34a6:	6018      	str	r0, [r3, #0]
    34a8:	bc10      	pop	{r4}
    34aa:	4770      	bx	lr
    34ac:	4613      	mov	r3, r2
    34ae:	e7df      	b.n	0x3470
    34b0:	6004      	str	r4, [r0, #0]
    34b2:	e7f6      	b.n	0x34a2
    34b4:	6002      	str	r2, [r0, #0]
    34b6:	e7f4      	b.n	0x34a2
    34b8:	295c      	cmp	r1, #92	; 0x5c
    34ba:	2000      	movs	r0, #0
    34bc:	023c      	lsls	r4, r7, #8
    34be:	2000      	movs	r0, #0
    34c0:	b570      	push	{r4, r5, r6, lr}
    34c2:	4604      	mov	r4, r0
    34c4:	f7ff f908 	bl	0x26d8
    34c8:	4b3a      	ldr	r3, [pc, #232]	; (0x35b4)
    34ca:	681b      	ldr	r3, [r3, #0]
    34cc:	b1bb      	cbz	r3, 0x34fe
    34ce:	4b3a      	ldr	r3, [pc, #232]	; (0x35b8)
    34d0:	681b      	ldr	r3, [r3, #0]
    34d2:	421c      	tst	r4, r3
    34d4:	d163      	bne.n	0x359e
    34d6:	b1ac      	cbz	r4, 0x3504
    34d8:	3408      	adds	r4, #8
    34da:	f014 0f07 	tst.w	r4, #7
    34de:	d011      	beq.n	0x3504
    34e0:	f024 0407 	bic.w	r4, r4, #7
    34e4:	3408      	adds	r4, #8
    34e6:	f004 0307 	and.w	r3, r4, #7
    34ea:	b15b      	cbz	r3, 0x3504
    34ec:	f04f 0350 	mov.w	r3, #80	; 0x50
    34f0:	f383 8811 	msr	BASEPRI, r3
    34f4:	f3bf 8f6f 	isb	sy
    34f8:	f3bf 8f4f 	dsb	sy
    34fc:	e7fe      	b.n	0x34fc
    34fe:	f7ff ff81 	bl	0x3404
    3502:	e7e4      	b.n	0x34ce
    3504:	2c00      	cmp	r4, #0
    3506:	d04c      	beq.n	0x35a2
    3508:	4b2c      	ldr	r3, [pc, #176]	; (0x35bc)
    350a:	681b      	ldr	r3, [r3, #0]
    350c:	429c      	cmp	r4, r3
    350e:	d84a      	bhi.n	0x35a6
    3510:	4b2b      	ldr	r3, [pc, #172]	; (0x35c0)
    3512:	681d      	ldr	r5, [r3, #0]
    3514:	e001      	b.n	0x351a
    3516:	462b      	mov	r3, r5
    3518:	4615      	mov	r5, r2
    351a:	686a      	ldr	r2, [r5, #4]
    351c:	4294      	cmp	r4, r2
    351e:	d902      	bls.n	0x3526
    3520:	682a      	ldr	r2, [r5, #0]
    3522:	2a00      	cmp	r2, #0
    3524:	d1f7      	bne.n	0x3516
    3526:	4a23      	ldr	r2, [pc, #140]	; (0x35b4)
    3528:	6812      	ldr	r2, [r2, #0]
    352a:	4295      	cmp	r5, r2
    352c:	d03d      	beq.n	0x35aa
    352e:	681e      	ldr	r6, [r3, #0]
    3530:	3608      	adds	r6, #8
    3532:	682a      	ldr	r2, [r5, #0]
    3534:	601a      	str	r2, [r3, #0]
    3536:	686b      	ldr	r3, [r5, #4]
    3538:	1b1b      	subs	r3, r3, r4
    353a:	2b10      	cmp	r3, #16
    353c:	d910      	bls.n	0x3560
    353e:	1928      	adds	r0, r5, r4
    3540:	f010 0f07 	tst.w	r0, #7
    3544:	d008      	beq.n	0x3558
    3546:	f04f 0350 	mov.w	r3, #80	; 0x50
    354a:	f383 8811 	msr	BASEPRI, r3
    354e:	f3bf 8f6f 	isb	sy
    3552:	f3bf 8f4f 	dsb	sy
    3556:	e7fe      	b.n	0x3556
    3558:	6043      	str	r3, [r0, #4]
    355a:	606c      	str	r4, [r5, #4]
    355c:	f7ff ff86 	bl	0x346c
    3560:	686a      	ldr	r2, [r5, #4]
    3562:	4916      	ldr	r1, [pc, #88]	; (0x35bc)
    3564:	680b      	ldr	r3, [r1, #0]
    3566:	1a9b      	subs	r3, r3, r2
    3568:	600b      	str	r3, [r1, #0]
    356a:	4916      	ldr	r1, [pc, #88]	; (0x35c4)
    356c:	6809      	ldr	r1, [r1, #0]
    356e:	428b      	cmp	r3, r1
    3570:	d201      	bcs.n	0x3576
    3572:	4914      	ldr	r1, [pc, #80]	; (0x35c4)
    3574:	600b      	str	r3, [r1, #0]
    3576:	4b10      	ldr	r3, [pc, #64]	; (0x35b8)
    3578:	681b      	ldr	r3, [r3, #0]
    357a:	4313      	orrs	r3, r2
    357c:	606b      	str	r3, [r5, #4]
    357e:	2300      	movs	r3, #0
    3580:	602b      	str	r3, [r5, #0]
    3582:	f7ff f947 	bl	0x2814
    3586:	f016 0f07 	tst.w	r6, #7
    358a:	d010      	beq.n	0x35ae
    358c:	f04f 0350 	mov.w	r3, #80	; 0x50
    3590:	f383 8811 	msr	BASEPRI, r3
    3594:	f3bf 8f6f 	isb	sy
    3598:	f3bf 8f4f 	dsb	sy
    359c:	e7fe      	b.n	0x359c
    359e:	2600      	movs	r6, #0
    35a0:	e7ef      	b.n	0x3582
    35a2:	2600      	movs	r6, #0
    35a4:	e7ed      	b.n	0x3582
    35a6:	2600      	movs	r6, #0
    35a8:	e7eb      	b.n	0x3582
    35aa:	2600      	movs	r6, #0
    35ac:	e7e9      	b.n	0x3582
    35ae:	4630      	mov	r0, r6
    35b0:	bd70      	pop	{r4, r5, r6, pc}
    35b2:	bf00      	nop
    35b4:	023c      	lsls	r4, r7, #8
    35b6:	2000      	movs	r0, #0
    35b8:	2950      	cmp	r1, #80	; 0x50
    35ba:	2000      	movs	r0, #0
    35bc:	2954      	cmp	r1, #84	; 0x54
    35be:	2000      	movs	r0, #0
    35c0:	295c      	cmp	r1, #92	; 0x5c
    35c2:	2000      	movs	r0, #0
    35c4:	2958      	cmp	r1, #88	; 0x58
    35c6:	2000      	movs	r0, #0
    35c8:	b380      	cbz	r0, 0x362c
    35ca:	b538      	push	{r3, r4, r5, lr}
    35cc:	4604      	mov	r4, r0
    35ce:	f1a0 0508 	sub.w	r5, r0, #8
    35d2:	f850 2c04 	ldr.w	r2, [r0, #-4]
    35d6:	4916      	ldr	r1, [pc, #88]	; (0x3630)
    35d8:	6809      	ldr	r1, [r1, #0]
    35da:	420a      	tst	r2, r1
    35dc:	d108      	bne.n	0x35f0
    35de:	f04f 0350 	mov.w	r3, #80	; 0x50
    35e2:	f383 8811 	msr	BASEPRI, r3
    35e6:	f3bf 8f6f 	isb	sy
    35ea:	f3bf 8f4f 	dsb	sy
    35ee:	e7fe      	b.n	0x35ee
    35f0:	f850 0c08 	ldr.w	r0, [r0, #-8]
    35f4:	b140      	cbz	r0, 0x3608
    35f6:	f04f 0350 	mov.w	r3, #80	; 0x50
    35fa:	f383 8811 	msr	BASEPRI, r3
    35fe:	f3bf 8f6f 	isb	sy
    3602:	f3bf 8f4f 	dsb	sy
    3606:	e7fe      	b.n	0x3606
    3608:	ea22 0201 	bic.w	r2, r2, r1
    360c:	f844 2c04 	str.w	r2, [r4, #-4]
    3610:	f7ff f862 	bl	0x26d8
    3614:	f854 1c04 	ldr.w	r1, [r4, #-4]
    3618:	4a06      	ldr	r2, [pc, #24]	; (0x3634)
    361a:	6813      	ldr	r3, [r2, #0]
    361c:	440b      	add	r3, r1
    361e:	6013      	str	r3, [r2, #0]
    3620:	4628      	mov	r0, r5
    3622:	f7ff ff23 	bl	0x346c
    3626:	f7ff f8f5 	bl	0x2814
    362a:	bd38      	pop	{r3, r4, r5, pc}
    362c:	4770      	bx	lr
    362e:	bf00      	nop
    3630:	2950      	cmp	r1, #80	; 0x50
    3632:	2000      	movs	r0, #0
    3634:	2954      	cmp	r1, #84	; 0x54
    3636:	2000      	movs	r0, #0
    3638:	4b0b      	ldr	r3, [pc, #44]	; (0x3668)
    363a:	681b      	ldr	r3, [r3, #0]
    363c:	f1b3 3fff 	cmp.w	r3, #4294967295	; 0xffffffff
    3640:	d008      	beq.n	0x3654
    3642:	f04f 0350 	mov.w	r3, #80	; 0x50
    3646:	f383 8811 	msr	BASEPRI, r3
    364a:	f3bf 8f6f 	isb	sy
    364e:	f3bf 8f4f 	dsb	sy
    3652:	e7fe      	b.n	0x3652
    3654:	f04f 0350 	mov.w	r3, #80	; 0x50
    3658:	f383 8811 	msr	BASEPRI, r3
    365c:	f3bf 8f6f 	isb	sy
    3660:	f3bf 8f4f 	dsb	sy
    3664:	e7fe      	b.n	0x3664
    3666:	bf00      	nop
    3668:	0040      	lsls	r0, r0, #1
    366a:	2000      	movs	r0, #0
    366c:	4806      	ldr	r0, [pc, #24]	; (0x3688)
    366e:	6800      	ldr	r0, [r0, #0]
    3670:	6800      	ldr	r0, [r0, #0]
    3672:	f380 8808 	msr	MSP, r0
    3676:	b662      	cpsie	i
    3678:	b661      	cpsie	f
    367a:	f3bf 8f4f 	dsb	sy
    367e:	f3bf 8f6f 	isb	sy
    3682:	df00      	svc	0
    3684:	bf00      	nop
    3686:	0000      	movs	r0, r0
    3688:	ed08 e000 	stc	0, cr14, [r8, #-0]
    368c:	f04f 7380 	mov.w	r3, #16777216	; 0x1000000
    3690:	f840 3c04 	str.w	r3, [r0, #-4]
    3694:	f021 0101 	bic.w	r1, r1, #1
    3698:	f840 1c08 	str.w	r1, [r0, #-8]
    369c:	4b03      	ldr	r3, [pc, #12]	; (0x36ac)
    369e:	f840 3c0c 	str.w	r3, [r0, #-12]
    36a2:	f840 2c20 	str.w	r2, [r0, #-32]
    36a6:	3840      	subs	r0, #64	; 0x40
    36a8:	4770      	bx	lr
    36aa:	bf00      	nop
    36ac:	8639      	strh	r1, [r7, #48]	; 0x30
    36ae:	0800      	lsrs	r0, r0, #32
    36b0:	4b07      	ldr	r3, [pc, #28]	; (0x36d0)
    36b2:	6819      	ldr	r1, [r3, #0]
    36b4:	6808      	ldr	r0, [r1, #0]
    36b6:	e8b0 0ff0 	ldmia.w	r0!, {r4, r5, r6, r7, r8, r9, sl, fp}
    36ba:	f380 8809 	msr	PSP, r0
    36be:	f3bf 8f6f 	isb	sy
    36c2:	f04f 0000 	mov.w	r0, #0
    36c6:	f380 8811 	msr	BASEPRI, r0
    36ca:	f04e 0e0d 	orr.w	lr, lr, #13
    36ce:	4770      	bx	lr
    36d0:	00d4      	lsls	r4, r2, #3
    36d2:	2000      	movs	r0, #0
    36d4:	f04f 0350 	mov.w	r3, #80	; 0x50
    36d8:	f383 8811 	msr	BASEPRI, r3
    36dc:	f3bf 8f6f 	isb	sy
    36e0:	f3bf 8f4f 	dsb	sy
    36e4:	4a0a      	ldr	r2, [pc, #40]	; (0x3710)
    36e6:	6813      	ldr	r3, [r2, #0]
    36e8:	3301      	adds	r3, #1
    36ea:	6013      	str	r3, [r2, #0]
    36ec:	2b01      	cmp	r3, #1
    36ee:	d10d      	bne.n	0x370c
    36f0:	4b08      	ldr	r3, [pc, #32]	; (0x3714)
    36f2:	681b      	ldr	r3, [r3, #0]
    36f4:	f013 0fff 	tst.w	r3, #255	; 0xff
    36f8:	d008      	beq.n	0x370c
    36fa:	f04f 0350 	mov.w	r3, #80	; 0x50
    36fe:	f383 8811 	msr	BASEPRI, r3
    3702:	f3bf 8f6f 	isb	sy
    3706:	f3bf 8f4f 	dsb	sy
    370a:	e7fe      	b.n	0x370a
    370c:	4770      	bx	lr
    370e:	bf00      	nop
    3710:	0040      	lsls	r0, r0, #1
    3712:	2000      	movs	r0, #0
    3714:	ed04 e000 	stc	0, cr14, [r4, #-0]
    3718:	4b09      	ldr	r3, [pc, #36]	; (0x3740)
    371a:	681b      	ldr	r3, [r3, #0]
    371c:	b943      	cbnz	r3, 0x3730
    371e:	f04f 0350 	mov.w	r3, #80	; 0x50
    3722:	f383 8811 	msr	BASEPRI, r3
    3726:	f3bf 8f6f 	isb	sy
    372a:	f3bf 8f4f 	dsb	sy
    372e:	e7fe      	b.n	0x372e
    3730:	3b01      	subs	r3, #1
    3732:	4a03      	ldr	r2, [pc, #12]	; (0x3740)
    3734:	6013      	str	r3, [r2, #0]
    3736:	b90b      	cbnz	r3, 0x373c
    3738:	f383 8811 	msr	BASEPRI, r3
    373c:	4770      	bx	lr
    373e:	bf00      	nop
    3740:	0040      	lsls	r0, r0, #1
    3742:	2000      	movs	r0, #0
	...
    3750:	f3ef 8009 	mrs	r0, PSP
    3754:	f3bf 8f6f 	isb	sy
    3758:	4b0d      	ldr	r3, [pc, #52]	; (0x3790)
    375a:	681a      	ldr	r2, [r3, #0]
    375c:	e920 0ff0 	stmdb	r0!, {r4, r5, r6, r7, r8, r9, sl, fp}
    3760:	6010      	str	r0, [r2, #0]
    3762:	e92d 4008 	stmdb	sp!, {r3, lr}
    3766:	f04f 0050 	mov.w	r0, #80	; 0x50
    376a:	f380 8811 	msr	BASEPRI, r0
    376e:	f7ff f921 	bl	0x29b4
    3772:	f04f 0000 	mov.w	r0, #0
    3776:	f380 8811 	msr	BASEPRI, r0
    377a:	e8bd 4008 	ldmia.w	sp!, {r3, lr}
    377e:	6819      	ldr	r1, [r3, #0]
    3780:	6808      	ldr	r0, [r1, #0]
    3782:	e8b0 0ff0 	ldmia.w	r0!, {r4, r5, r6, r7, r8, r9, sl, fp}
    3786:	f380 8809 	msr	PSP, r0
    378a:	f3bf 8f6f 	isb	sy
    378e:	4770      	bx	lr
    3790:	00d4      	lsls	r4, r2, #3
    3792:	2000      	movs	r0, #0
    3794:	b508      	push	{r3, lr}
    3796:	f04f 0350 	mov.w	r3, #80	; 0x50
    379a:	f383 8811 	msr	BASEPRI, r3
    379e:	f3bf 8f6f 	isb	sy
    37a2:	f3bf 8f4f 	dsb	sy
    37a6:	f7fe ffa5 	bl	0x26f4
    37aa:	b118      	cbz	r0, 0x37b4
    37ac:	f04f 5280 	mov.w	r2, #268435456	; 0x10000000
    37b0:	4b02      	ldr	r3, [pc, #8]	; (0x37bc)
    37b2:	601a      	str	r2, [r3, #0]
    37b4:	2300      	movs	r3, #0
    37b6:	f383 8811 	msr	BASEPRI, r3
    37ba:	bd08      	pop	{r3, pc}
    37bc:	ed04 e000 	stc	0, cr14, [r4, #-0]
    37c0:	4b06      	ldr	r3, [pc, #24]	; (0x37dc)
    37c2:	681b      	ldr	r3, [r3, #0]
    37c4:	4a06      	ldr	r2, [pc, #24]	; (0x37e0)
    37c6:	fba2 2303 	umull	r2, r3, r2, r3
    37ca:	099b      	lsrs	r3, r3, #6
    37cc:	3b01      	subs	r3, #1
    37ce:	4a05      	ldr	r2, [pc, #20]	; (0x37e4)
    37d0:	6013      	str	r3, [r2, #0]
    37d2:	2207      	movs	r2, #7
    37d4:	4b04      	ldr	r3, [pc, #16]	; (0x37e8)
    37d6:	601a      	str	r2, [r3, #0]
    37d8:	4770      	bx	lr
    37da:	bf00      	nop
    37dc:	0038      	movs	r0, r7
    37de:	2000      	movs	r0, #0
    37e0:	4dd3      	ldr	r5, [pc, #844]	; (0x3b30)
    37e2:	1062      	asrs	r2, r4, #1
    37e4:	e014      	b.n	0x3810
    37e6:	e000      	b.n	0x37ea
    37e8:	e010      	b.n	0x380c
    37ea:	e000      	b.n	0x37ee
    37ec:	b500      	push	{lr}
    37ee:	b083      	sub	sp, #12
    37f0:	4b1f      	ldr	r3, [pc, #124]	; (0x3870)
    37f2:	781a      	ldrb	r2, [r3, #0]
    37f4:	b2d2      	uxtb	r2, r2
    37f6:	9201      	str	r2, [sp, #4]
    37f8:	22ff      	movs	r2, #255	; 0xff
    37fa:	701a      	strb	r2, [r3, #0]
    37fc:	781b      	ldrb	r3, [r3, #0]
    37fe:	b2db      	uxtb	r3, r3
    3800:	f88d 3003 	strb.w	r3, [sp, #3]
    3804:	f89d 3003 	ldrb.w	r3, [sp, #3]
    3808:	f003 0350 	and.w	r3, r3, #80	; 0x50
    380c:	4a19      	ldr	r2, [pc, #100]	; (0x3874)
    380e:	7013      	strb	r3, [r2, #0]
    3810:	2207      	movs	r2, #7
    3812:	4b19      	ldr	r3, [pc, #100]	; (0x3878)
    3814:	601a      	str	r2, [r3, #0]
    3816:	e009      	b.n	0x382c
    3818:	4a17      	ldr	r2, [pc, #92]	; (0x3878)
    381a:	6813      	ldr	r3, [r2, #0]
    381c:	3b01      	subs	r3, #1
    381e:	6013      	str	r3, [r2, #0]
    3820:	f89d 3003 	ldrb.w	r3, [sp, #3]
    3824:	005b      	lsls	r3, r3, #1
    3826:	b2db      	uxtb	r3, r3
    3828:	f88d 3003 	strb.w	r3, [sp, #3]
    382c:	f89d 3003 	ldrb.w	r3, [sp, #3]
    3830:	f013 0f80 	tst.w	r3, #128	; 0x80
    3834:	d1f0      	bne.n	0x3818
    3836:	4a10      	ldr	r2, [pc, #64]	; (0x3878)
    3838:	6813      	ldr	r3, [r2, #0]
    383a:	021b      	lsls	r3, r3, #8
    383c:	f403 63e0 	and.w	r3, r3, #1792	; 0x700
    3840:	6013      	str	r3, [r2, #0]
    3842:	9b01      	ldr	r3, [sp, #4]
    3844:	b2db      	uxtb	r3, r3
    3846:	4a0a      	ldr	r2, [pc, #40]	; (0x3870)
    3848:	7013      	strb	r3, [r2, #0]
    384a:	4b0c      	ldr	r3, [pc, #48]	; (0x387c)
    384c:	681a      	ldr	r2, [r3, #0]
    384e:	f442 0270 	orr.w	r2, r2, #15728640	; 0xf00000
    3852:	601a      	str	r2, [r3, #0]
    3854:	681a      	ldr	r2, [r3, #0]
    3856:	f042 4270 	orr.w	r2, r2, #4026531840	; 0xf0000000
    385a:	601a      	str	r2, [r3, #0]
    385c:	f7ff ffb0 	bl	0x37c0
    3860:	2200      	movs	r2, #0
    3862:	4b07      	ldr	r3, [pc, #28]	; (0x3880)
    3864:	601a      	str	r2, [r3, #0]
    3866:	f7ff ff01 	bl	0x366c
    386a:	f7ff fee5 	bl	0x3638
    386e:	bf00      	nop
    3870:	e400      	b.n	0x3074
    3872:	e000      	b.n	0x3876
    3874:	2964      	cmp	r1, #100	; 0x64
    3876:	2000      	movs	r0, #0
    3878:	2968      	cmp	r1, #104	; 0x68
    387a:	2000      	movs	r0, #0
    387c:	ed20 e000 	stc	0, cr14, [r0, #-0]
    3880:	0040      	lsls	r0, r0, #1
    3882:	2000      	movs	r0, #0
    3884:	f3ef 8305 	mrs	r3, IPSR
    3888:	2b0f      	cmp	r3, #15
    388a:	d90f      	bls.n	0x38ac
    388c:	4a10      	ldr	r2, [pc, #64]	; (0x38d0)
    388e:	5c9b      	ldrb	r3, [r3, r2]
    3890:	b2db      	uxtb	r3, r3
    3892:	4a10      	ldr	r2, [pc, #64]	; (0x38d4)
    3894:	7812      	ldrb	r2, [r2, #0]
    3896:	4293      	cmp	r3, r2
    3898:	d208      	bcs.n	0x38ac
    389a:	f04f 0350 	mov.w	r3, #80	; 0x50
    389e:	f383 8811 	msr	BASEPRI, r3
    38a2:	f3bf 8f6f 	isb	sy
    38a6:	f3bf 8f4f 	dsb	sy
    38aa:	e7fe      	b.n	0x38aa
    38ac:	4b0a      	ldr	r3, [pc, #40]	; (0x38d8)
    38ae:	681b      	ldr	r3, [r3, #0]
    38b0:	f403 63e0 	and.w	r3, r3, #1792	; 0x700
    38b4:	4a09      	ldr	r2, [pc, #36]	; (0x38dc)
    38b6:	6812      	ldr	r2, [r2, #0]
    38b8:	4293      	cmp	r3, r2
    38ba:	d908      	bls.n	0x38ce
    38bc:	f04f 0350 	mov.w	r3, #80	; 0x50
    38c0:	f383 8811 	msr	BASEPRI, r3
    38c4:	f3bf 8f6f 	isb	sy
    38c8:	f3bf 8f4f 	dsb	sy
    38cc:	e7fe      	b.n	0x38cc
    38ce:	4770      	bx	lr
    38d0:	e3f0      	b.n	0x40b4
    38d2:	e000      	b.n	0x38d6
    38d4:	2964      	cmp	r1, #100	; 0x64
    38d6:	2000      	movs	r0, #0
    38d8:	ed0c e000 	stc	0, cr14, [ip, #-0]
    38dc:	2968      	cmp	r1, #104	; 0x68
    38de:	2000      	movs	r0, #0
    38e0:	2100      	movs	r1, #0
    38e2:	e003      	b.n	0x38ec
    38e4:	4b0b      	ldr	r3, [pc, #44]	; (0x3914)
    38e6:	585b      	ldr	r3, [r3, r1]
    38e8:	5043      	str	r3, [r0, r1]
    38ea:	3104      	adds	r1, #4
    38ec:	480a      	ldr	r0, [pc, #40]	; (0x3918)
    38ee:	4b0b      	ldr	r3, [pc, #44]	; (0x391c)
    38f0:	1842      	adds	r2, r0, r1
    38f2:	429a      	cmp	r2, r3
    38f4:	d3f6      	bcc.n	0x38e4
    38f6:	4a0a      	ldr	r2, [pc, #40]	; (0x3920)
    38f8:	e002      	b.n	0x3900
    38fa:	2300      	movs	r3, #0
    38fc:	f842 3b04 	str.w	r3, [r2], #4
    3900:	4b08      	ldr	r3, [pc, #32]	; (0x3924)
    3902:	429a      	cmp	r2, r3
    3904:	d3f9      	bcc.n	0x38fa
    3906:	f7fd f923 	bl	0xb50
    390a:	f000 f80f 	bl	0x392c
    390e:	f7fc fcb9 	bl	0x284
    3912:	4770      	bx	lr
    3914:	9778      	str	r7, [sp, #480]	; 0x1e0
    3916:	0800      	lsrs	r0, r0, #32
    3918:	0000      	movs	r0, r0
    391a:	2000      	movs	r0, #0
    391c:	00a8      	lsls	r0, r5, #2
    391e:	2000      	movs	r0, #0
    3920:	00a8      	lsls	r0, r5, #2
    3922:	2000      	movs	r0, #0
    3924:	2a94      	cmp	r2, #148	; 0x94
    3926:	2000      	movs	r0, #0
    3928:	e7fe      	b.n	0x3928
    392a:	0000      	movs	r0, r0
    392c:	b570      	push	{r4, r5, r6, lr}
    392e:	2500      	movs	r5, #0
    3930:	4e0c      	ldr	r6, [pc, #48]	; (0x3964)
    3932:	4c0d      	ldr	r4, [pc, #52]	; (0x3968)
    3934:	1ba4      	subs	r4, r4, r6
    3936:	10a4      	asrs	r4, r4, #2
    3938:	42a5      	cmp	r5, r4
    393a:	d109      	bne.n	0x3950
    393c:	f000 fc72 	bl	0x4224
    3940:	2500      	movs	r5, #0
    3942:	4e0a      	ldr	r6, [pc, #40]	; (0x396c)
    3944:	4c0a      	ldr	r4, [pc, #40]	; (0x3970)
    3946:	1ba4      	subs	r4, r4, r6
    3948:	10a4      	asrs	r4, r4, #2
    394a:	42a5      	cmp	r5, r4
    394c:	d105      	bne.n	0x395a
    394e:	bd70      	pop	{r4, r5, r6, pc}
    3950:	f856 3025 	ldr.w	r3, [r6, r5, lsl #2]
    3954:	4798      	blx	r3
    3956:	3501      	adds	r5, #1
    3958:	e7ee      	b.n	0x3938
    395a:	f856 3025 	ldr.w	r3, [r6, r5, lsl #2]
    395e:	4798      	blx	r3
    3960:	3501      	adds	r5, #1
    3962:	e7f2      	b.n	0x394a
    3964:	9770      	str	r7, [sp, #448]	; 0x1c0
    3966:	0800      	lsrs	r0, r0, #32
    3968:	9770      	str	r7, [sp, #448]	; 0x1c0
    396a:	0800      	lsrs	r0, r0, #32
    396c:	9770      	str	r7, [sp, #448]	; 0x1c0
    396e:	0800      	lsrs	r0, r0, #32
    3970:	9774      	str	r7, [sp, #464]	; 0x1d0
    3972:	0800      	lsrs	r0, r0, #32
    3974:	b510      	push	{r4, lr}
    3976:	1e43      	subs	r3, r0, #1
    3978:	440a      	add	r2, r1
    397a:	4291      	cmp	r1, r2
    397c:	d100      	bne.n	0x3980
    397e:	bd10      	pop	{r4, pc}
    3980:	f811 4b01 	ldrb.w	r4, [r1], #1
    3984:	f803 4f01 	strb.w	r4, [r3, #1]!
    3988:	e7f7      	b.n	0x397a
    398a:	4603      	mov	r3, r0
    398c:	4402      	add	r2, r0
    398e:	4293      	cmp	r3, r2
    3990:	d100      	bne.n	0x3994
    3992:	4770      	bx	lr
    3994:	f803 1b01 	strb.w	r1, [r3], #1
    3998:	e7f9      	b.n	0x398e
    399a:	b530      	push	{r4, r5, lr}
    399c:	1e14      	subs	r4, r2, #0
    399e:	4605      	mov	r5, r0
    39a0:	b09b      	sub	sp, #108	; 0x6c
    39a2:	4618      	mov	r0, r3
    39a4:	da05      	bge.n	0x39b2
    39a6:	238b      	movs	r3, #139	; 0x8b
    39a8:	f04f 30ff 	mov.w	r0, #4294967295	; 0xffffffff
    39ac:	602b      	str	r3, [r5, #0]
    39ae:	b01b      	add	sp, #108	; 0x6c
    39b0:	bd30      	pop	{r4, r5, pc}
    39b2:	f44f 7302 	mov.w	r3, #520	; 0x208
    39b6:	f8ad 300c 	strh.w	r3, [sp, #12]
    39ba:	bf0c      	ite	eq
    39bc:	4623      	moveq	r3, r4
    39be:	f104 33ff 	addne.w	r3, r4, #4294967295	; 0xffffffff
    39c2:	9302      	str	r3, [sp, #8]
    39c4:	9305      	str	r3, [sp, #20]
    39c6:	f64f 73ff 	movw	r3, #65535	; 0xffff
    39ca:	9100      	str	r1, [sp, #0]
    39cc:	9104      	str	r1, [sp, #16]
    39ce:	f8ad 300e 	strh.w	r3, [sp, #14]
    39d2:	4602      	mov	r2, r0
    39d4:	9b1e      	ldr	r3, [sp, #120]	; 0x78
    39d6:	4669      	mov	r1, sp
    39d8:	4628      	mov	r0, r5
    39da:	f000 f875 	bl	0x3ac8
    39de:	1c43      	adds	r3, r0, #1
    39e0:	bfbc      	itt	lt
    39e2:	238b      	movlt	r3, #139	; 0x8b
    39e4:	602b      	strlt	r3, [r5, #0]
    39e6:	2c00      	cmp	r4, #0
    39e8:	d0e1      	beq.n	0x39ae
    39ea:	2200      	movs	r2, #0
    39ec:	9b00      	ldr	r3, [sp, #0]
    39ee:	701a      	strb	r2, [r3, #0]
    39f0:	e7dd      	b.n	0x39ae
    39f2:	0000      	movs	r0, r0
    39f4:	b507      	push	{r0, r1, r2, lr}
    39f6:	9300      	str	r3, [sp, #0]
    39f8:	4613      	mov	r3, r2
    39fa:	460a      	mov	r2, r1
    39fc:	4601      	mov	r1, r0
    39fe:	4803      	ldr	r0, [pc, #12]	; (0x3a0c)
    3a00:	6800      	ldr	r0, [r0, #0]
    3a02:	f7ff ffca 	bl	0x399a
    3a06:	b003      	add	sp, #12
    3a08:	f85d fb04 	ldr.w	pc, [sp], #4
    3a0c:	0044      	lsls	r4, r0, #1
    3a0e:	2000      	movs	r0, #0
    3a10:	e92d 47f0 	stmdb	sp!, {r4, r5, r6, r7, r8, r9, sl, lr}
    3a14:	688e      	ldr	r6, [r1, #8]
    3a16:	4682      	mov	sl, r0
    3a18:	429e      	cmp	r6, r3
    3a1a:	460c      	mov	r4, r1
    3a1c:	4691      	mov	r9, r2
    3a1e:	4698      	mov	r8, r3
    3a20:	d835      	bhi.n	0x3a8e
    3a22:	898a      	ldrh	r2, [r1, #12]
    3a24:	f412 6f90 	tst.w	r2, #1152	; 0x480
    3a28:	d031      	beq.n	0x3a8e
    3a2a:	2302      	movs	r3, #2
    3a2c:	6825      	ldr	r5, [r4, #0]
    3a2e:	6909      	ldr	r1, [r1, #16]
    3a30:	1a6f      	subs	r7, r5, r1
    3a32:	6965      	ldr	r5, [r4, #20]
    3a34:	eb05 0545 	add.w	r5, r5, r5, lsl #1
    3a38:	fb95 f5f3 	sdiv	r5, r5, r3
    3a3c:	f108 0301 	add.w	r3, r8, #1
    3a40:	443b      	add	r3, r7
    3a42:	429d      	cmp	r5, r3
    3a44:	bf38      	it	cc
    3a46:	461d      	movcc	r5, r3
    3a48:	0553      	lsls	r3, r2, #21
    3a4a:	d531      	bpl.n	0x3ab0
    3a4c:	4629      	mov	r1, r5
    3a4e:	f000 fb3b 	bl	0x40c8
    3a52:	4606      	mov	r6, r0
    3a54:	b950      	cbnz	r0, 0x3a6c
    3a56:	230c      	movs	r3, #12
    3a58:	f8ca 3000 	str.w	r3, [sl]
    3a5c:	89a3      	ldrh	r3, [r4, #12]
    3a5e:	f04f 30ff 	mov.w	r0, #4294967295	; 0xffffffff
    3a62:	f043 0340 	orr.w	r3, r3, #64	; 0x40
    3a66:	81a3      	strh	r3, [r4, #12]
    3a68:	e8bd 87f0 	ldmia.w	sp!, {r4, r5, r6, r7, r8, r9, sl, pc}
    3a6c:	463a      	mov	r2, r7
    3a6e:	6921      	ldr	r1, [r4, #16]
    3a70:	f7ff ff80 	bl	0x3974
    3a74:	89a3      	ldrh	r3, [r4, #12]
    3a76:	f423 6390 	bic.w	r3, r3, #1152	; 0x480
    3a7a:	f043 0380 	orr.w	r3, r3, #128	; 0x80
    3a7e:	81a3      	strh	r3, [r4, #12]
    3a80:	6126      	str	r6, [r4, #16]
    3a82:	443e      	add	r6, r7
    3a84:	6026      	str	r6, [r4, #0]
    3a86:	4646      	mov	r6, r8
    3a88:	6165      	str	r5, [r4, #20]
    3a8a:	1bed      	subs	r5, r5, r7
    3a8c:	60a5      	str	r5, [r4, #8]
    3a8e:	4546      	cmp	r6, r8
    3a90:	bf28      	it	cs
    3a92:	4646      	movcs	r6, r8
    3a94:	4649      	mov	r1, r9
    3a96:	4632      	mov	r2, r6
    3a98:	6820      	ldr	r0, [r4, #0]
    3a9a:	f000 faaf 	bl	0x3ffc
    3a9e:	68a3      	ldr	r3, [r4, #8]
    3aa0:	2000      	movs	r0, #0
    3aa2:	1b9b      	subs	r3, r3, r6
    3aa4:	60a3      	str	r3, [r4, #8]
    3aa6:	6823      	ldr	r3, [r4, #0]
    3aa8:	441e      	add	r6, r3
    3aaa:	6026      	str	r6, [r4, #0]
    3aac:	e8bd 87f0 	ldmia.w	sp!, {r4, r5, r6, r7, r8, r9, sl, pc}
    3ab0:	462a      	mov	r2, r5
    3ab2:	f000 fb67 	bl	0x4184
    3ab6:	4606      	mov	r6, r0
    3ab8:	2800      	cmp	r0, #0
    3aba:	d1e1      	bne.n	0x3a80
    3abc:	6921      	ldr	r1, [r4, #16]
    3abe:	4650      	mov	r0, sl
    3ac0:	f000 fab6 	bl	0x4030
    3ac4:	e7c7      	b.n	0x3a56
    3ac6:	0000      	movs	r0, r0
    3ac8:	e92d 4ff0 	stmdb	sp!, {r4, r5, r6, r7, r8, r9, sl, fp, lr}
    3acc:	b09d      	sub	sp, #116	; 0x74
    3ace:	9303      	str	r3, [sp, #12]
    3ad0:	898b      	ldrh	r3, [r1, #12]
    3ad2:	4680      	mov	r8, r0
    3ad4:	061c      	lsls	r4, r3, #24
    3ad6:	460d      	mov	r5, r1
    3ad8:	4616      	mov	r6, r2
    3ada:	d50f      	bpl.n	0x3afc
    3adc:	690b      	ldr	r3, [r1, #16]
    3ade:	b96b      	cbnz	r3, 0x3afc
    3ae0:	2140      	movs	r1, #64	; 0x40
    3ae2:	f000 faf1 	bl	0x40c8
    3ae6:	6028      	str	r0, [r5, #0]
    3ae8:	6128      	str	r0, [r5, #16]
    3aea:	b928      	cbnz	r0, 0x3af8
    3aec:	230c      	movs	r3, #12
    3aee:	f8c8 3000 	str.w	r3, [r8]
    3af2:	f04f 30ff 	mov.w	r0, #4294967295	; 0xffffffff
    3af6:	e0c4      	b.n	0x3c82
    3af8:	2340      	movs	r3, #64	; 0x40
    3afa:	616b      	str	r3, [r5, #20]
    3afc:	2300      	movs	r3, #0
    3afe:	9309      	str	r3, [sp, #36]	; 0x24
    3b00:	2320      	movs	r3, #32
    3b02:	f88d 3029 	strb.w	r3, [sp, #41]	; 0x29
    3b06:	2330      	movs	r3, #48	; 0x30
    3b08:	f04f 0b01 	mov.w	fp, #1
    3b0c:	f88d 302a 	strb.w	r3, [sp, #42]	; 0x2a
    3b10:	4637      	mov	r7, r6
    3b12:	463c      	mov	r4, r7
    3b14:	f814 3b01 	ldrb.w	r3, [r4], #1
    3b18:	2b00      	cmp	r3, #0
    3b1a:	d13c      	bne.n	0x3b96
    3b1c:	ebb7 0a06 	subs.w	sl, r7, r6
    3b20:	d00b      	beq.n	0x3b3a
    3b22:	4653      	mov	r3, sl
    3b24:	4632      	mov	r2, r6
    3b26:	4629      	mov	r1, r5
    3b28:	4640      	mov	r0, r8
    3b2a:	f7ff ff71 	bl	0x3a10
    3b2e:	3001      	adds	r0, #1
    3b30:	f000 80a2 	beq.w	0x3c78
    3b34:	9b09      	ldr	r3, [sp, #36]	; 0x24
    3b36:	4453      	add	r3, sl
    3b38:	9309      	str	r3, [sp, #36]	; 0x24
    3b3a:	783b      	ldrb	r3, [r7, #0]
    3b3c:	2b00      	cmp	r3, #0
    3b3e:	f000 809b 	beq.w	0x3c78
    3b42:	2300      	movs	r3, #0
    3b44:	f04f 32ff 	mov.w	r2, #4294967295	; 0xffffffff
    3b48:	9304      	str	r3, [sp, #16]
    3b4a:	9307      	str	r3, [sp, #28]
    3b4c:	9205      	str	r2, [sp, #20]
    3b4e:	9306      	str	r3, [sp, #24]
    3b50:	f88d 3053 	strb.w	r3, [sp, #83]	; 0x53
    3b54:	931a      	str	r3, [sp, #104]	; 0x68
    3b56:	2205      	movs	r2, #5
    3b58:	7821      	ldrb	r1, [r4, #0]
    3b5a:	4850      	ldr	r0, [pc, #320]	; (0x3c9c)
    3b5c:	f000 fa40 	bl	0x3fe0
    3b60:	1c67      	adds	r7, r4, #1
    3b62:	9b04      	ldr	r3, [sp, #16]
    3b64:	b9d8      	cbnz	r0, 0x3b9e
    3b66:	06d9      	lsls	r1, r3, #27
    3b68:	bf44      	itt	mi
    3b6a:	2220      	movmi	r2, #32
    3b6c:	f88d 2053 	strbmi.w	r2, [sp, #83]	; 0x53
    3b70:	071a      	lsls	r2, r3, #28
    3b72:	bf44      	itt	mi
    3b74:	222b      	movmi	r2, #43	; 0x2b
    3b76:	f88d 2053 	strbmi.w	r2, [sp, #83]	; 0x53
    3b7a:	7822      	ldrb	r2, [r4, #0]
    3b7c:	2a2a      	cmp	r2, #42	; 0x2a
    3b7e:	d016      	beq.n	0x3bae
    3b80:	2100      	movs	r1, #0
    3b82:	200a      	movs	r0, #10
    3b84:	9a07      	ldr	r2, [sp, #28]
    3b86:	4627      	mov	r7, r4
    3b88:	783b      	ldrb	r3, [r7, #0]
    3b8a:	3401      	adds	r4, #1
    3b8c:	3b30      	subs	r3, #48	; 0x30
    3b8e:	2b09      	cmp	r3, #9
    3b90:	d950      	bls.n	0x3c34
    3b92:	b1c9      	cbz	r1, 0x3bc8
    3b94:	e011      	b.n	0x3bba
    3b96:	2b25      	cmp	r3, #37	; 0x25
    3b98:	d0c0      	beq.n	0x3b1c
    3b9a:	4627      	mov	r7, r4
    3b9c:	e7b9      	b.n	0x3b12
    3b9e:	4a3f      	ldr	r2, [pc, #252]	; (0x3c9c)
    3ba0:	463c      	mov	r4, r7
    3ba2:	1a80      	subs	r0, r0, r2
    3ba4:	fa0b f000 	lsl.w	r0, fp, r0
    3ba8:	4318      	orrs	r0, r3
    3baa:	9004      	str	r0, [sp, #16]
    3bac:	e7d3      	b.n	0x3b56
    3bae:	9a03      	ldr	r2, [sp, #12]
    3bb0:	1d11      	adds	r1, r2, #4
    3bb2:	6812      	ldr	r2, [r2, #0]
    3bb4:	9103      	str	r1, [sp, #12]
    3bb6:	2a00      	cmp	r2, #0
    3bb8:	db01      	blt.n	0x3bbe
    3bba:	9207      	str	r2, [sp, #28]
    3bbc:	e004      	b.n	0x3bc8
    3bbe:	4252      	negs	r2, r2
    3bc0:	f043 0302 	orr.w	r3, r3, #2
    3bc4:	9207      	str	r2, [sp, #28]
    3bc6:	9304      	str	r3, [sp, #16]
    3bc8:	783b      	ldrb	r3, [r7, #0]
    3bca:	2b2e      	cmp	r3, #46	; 0x2e
    3bcc:	d10d      	bne.n	0x3bea
    3bce:	787b      	ldrb	r3, [r7, #1]
    3bd0:	1c79      	adds	r1, r7, #1
    3bd2:	2b2a      	cmp	r3, #42	; 0x2a
    3bd4:	d132      	bne.n	0x3c3c
    3bd6:	9b03      	ldr	r3, [sp, #12]
    3bd8:	3702      	adds	r7, #2
    3bda:	1d1a      	adds	r2, r3, #4
    3bdc:	681b      	ldr	r3, [r3, #0]
    3bde:	9203      	str	r2, [sp, #12]
    3be0:	2b00      	cmp	r3, #0
    3be2:	bfb8      	it	lt
    3be4:	f04f 33ff 	movlt.w	r3, #4294967295	; 0xffffffff
    3be8:	9305      	str	r3, [sp, #20]
    3bea:	4c2d      	ldr	r4, [pc, #180]	; (0x3ca0)
    3bec:	2203      	movs	r2, #3
    3bee:	7839      	ldrb	r1, [r7, #0]
    3bf0:	4620      	mov	r0, r4
    3bf2:	f000 f9f5 	bl	0x3fe0
    3bf6:	b138      	cbz	r0, 0x3c08
    3bf8:	2340      	movs	r3, #64	; 0x40
    3bfa:	1b00      	subs	r0, r0, r4
    3bfc:	fa03 f000 	lsl.w	r0, r3, r0
    3c00:	9b04      	ldr	r3, [sp, #16]
    3c02:	3701      	adds	r7, #1
    3c04:	4303      	orrs	r3, r0
    3c06:	9304      	str	r3, [sp, #16]
    3c08:	7839      	ldrb	r1, [r7, #0]
    3c0a:	2206      	movs	r2, #6
    3c0c:	4825      	ldr	r0, [pc, #148]	; (0x3ca4)
    3c0e:	1c7e      	adds	r6, r7, #1
    3c10:	f88d 1028 	strb.w	r1, [sp, #40]	; 0x28
    3c14:	f000 f9e4 	bl	0x3fe0
    3c18:	2800      	cmp	r0, #0
    3c1a:	d035      	beq.n	0x3c88
    3c1c:	4b22      	ldr	r3, [pc, #136]	; (0x3ca8)
    3c1e:	b9fb      	cbnz	r3, 0x3c60
    3c20:	9b03      	ldr	r3, [sp, #12]
    3c22:	3307      	adds	r3, #7
    3c24:	f023 0307 	bic.w	r3, r3, #7
    3c28:	3308      	adds	r3, #8
    3c2a:	9303      	str	r3, [sp, #12]
    3c2c:	9b09      	ldr	r3, [sp, #36]	; 0x24
    3c2e:	444b      	add	r3, r9
    3c30:	9309      	str	r3, [sp, #36]	; 0x24
    3c32:	e76d      	b.n	0x3b10
    3c34:	fb00 3202 	mla	r2, r0, r2, r3
    3c38:	2101      	movs	r1, #1
    3c3a:	e7a4      	b.n	0x3b86
    3c3c:	2300      	movs	r3, #0
    3c3e:	240a      	movs	r4, #10
    3c40:	4618      	mov	r0, r3
    3c42:	9305      	str	r3, [sp, #20]
    3c44:	460f      	mov	r7, r1
    3c46:	783a      	ldrb	r2, [r7, #0]
    3c48:	3101      	adds	r1, #1
    3c4a:	3a30      	subs	r2, #48	; 0x30
    3c4c:	2a09      	cmp	r2, #9
    3c4e:	d903      	bls.n	0x3c58
    3c50:	2b00      	cmp	r3, #0
    3c52:	d0ca      	beq.n	0x3bea
    3c54:	9005      	str	r0, [sp, #20]
    3c56:	e7c8      	b.n	0x3bea
    3c58:	fb04 2000 	mla	r0, r4, r0, r2
    3c5c:	2301      	movs	r3, #1
    3c5e:	e7f1      	b.n	0x3c44
    3c60:	ab03      	add	r3, sp, #12
    3c62:	9300      	str	r3, [sp, #0]
    3c64:	462a      	mov	r2, r5
    3c66:	4b11      	ldr	r3, [pc, #68]	; (0x3cac)
    3c68:	a904      	add	r1, sp, #16
    3c6a:	4640      	mov	r0, r8
    3c6c:	f3af 8000 	nop.w
    3c70:	f1b0 3fff 	cmp.w	r0, #4294967295	; 0xffffffff
    3c74:	4681      	mov	r9, r0
    3c76:	d1d9      	bne.n	0x3c2c
    3c78:	89ab      	ldrh	r3, [r5, #12]
    3c7a:	065b      	lsls	r3, r3, #25
    3c7c:	f53f af39 	bmi.w	0x3af2
    3c80:	9809      	ldr	r0, [sp, #36]	; 0x24
    3c82:	b01d      	add	sp, #116	; 0x74
    3c84:	e8bd 8ff0 	ldmia.w	sp!, {r4, r5, r6, r7, r8, r9, sl, fp, pc}
    3c88:	ab03      	add	r3, sp, #12
    3c8a:	9300      	str	r3, [sp, #0]
    3c8c:	462a      	mov	r2, r5
    3c8e:	4b07      	ldr	r3, [pc, #28]	; (0x3cac)
    3c90:	a904      	add	r1, sp, #16
    3c92:	4640      	mov	r0, r8
    3c94:	f000 f884 	bl	0x3da0
    3c98:	e7ea      	b.n	0x3c70
    3c9a:	bf00      	nop
    3c9c:	973c      	str	r7, [sp, #240]	; 0xf0
    3c9e:	0800      	lsrs	r0, r0, #32
    3ca0:	9742      	str	r7, [sp, #264]	; 0x108
    3ca2:	0800      	lsrs	r0, r0, #32
    3ca4:	9746      	str	r7, [sp, #280]	; 0x118
    3ca6:	0800      	lsrs	r0, r0, #32
    3ca8:	0000      	movs	r0, r0
    3caa:	0000      	movs	r0, r0
    3cac:	8a11      	ldrh	r1, [r2, #16]
    3cae:	0800      	lsrs	r0, r0, #32
    3cb0:	e92d 47f0 	stmdb	sp!, {r4, r5, r6, r7, r8, r9, sl, lr}
    3cb4:	4691      	mov	r9, r2
    3cb6:	461f      	mov	r7, r3
    3cb8:	688a      	ldr	r2, [r1, #8]
    3cba:	690b      	ldr	r3, [r1, #16]
    3cbc:	4606      	mov	r6, r0
    3cbe:	4293      	cmp	r3, r2
    3cc0:	bfb8      	it	lt
    3cc2:	4613      	movlt	r3, r2
    3cc4:	f8c9 3000 	str.w	r3, [r9]
    3cc8:	f891 2043 	ldrb.w	r2, [r1, #67]	; 0x43
    3ccc:	460c      	mov	r4, r1
    3cce:	f8dd 8020 	ldr.w	r8, [sp, #32]
    3cd2:	b112      	cbz	r2, 0x3cda
    3cd4:	3301      	adds	r3, #1
    3cd6:	f8c9 3000 	str.w	r3, [r9]
    3cda:	6823      	ldr	r3, [r4, #0]
    3cdc:	0699      	lsls	r1, r3, #26
    3cde:	bf42      	ittt	mi
    3ce0:	f8d9 3000 	ldrmi.w	r3, [r9]
    3ce4:	3302      	addmi	r3, #2
    3ce6:	f8c9 3000 	strmi.w	r3, [r9]
    3cea:	6825      	ldr	r5, [r4, #0]
    3cec:	f015 0506 	ands.w	r5, r5, #6
    3cf0:	d107      	bne.n	0x3d02
    3cf2:	f104 0a19 	add.w	sl, r4, #25
    3cf6:	68e3      	ldr	r3, [r4, #12]
    3cf8:	f8d9 2000 	ldr.w	r2, [r9]
    3cfc:	1a9b      	subs	r3, r3, r2
    3cfe:	429d      	cmp	r5, r3
    3d00:	db2a      	blt.n	0x3d58
    3d02:	f894 3043 	ldrb.w	r3, [r4, #67]	; 0x43
    3d06:	6822      	ldr	r2, [r4, #0]
    3d08:	3300      	adds	r3, #0
    3d0a:	bf18      	it	ne
    3d0c:	2301      	movne	r3, #1
    3d0e:	0692      	lsls	r2, r2, #26
    3d10:	d42f      	bmi.n	0x3d72
    3d12:	f104 0243 	add.w	r2, r4, #67	; 0x43
    3d16:	4639      	mov	r1, r7
    3d18:	4630      	mov	r0, r6
    3d1a:	47c0      	blx	r8
    3d1c:	3001      	adds	r0, #1
    3d1e:	d022      	beq.n	0x3d66
    3d20:	6823      	ldr	r3, [r4, #0]
    3d22:	68e5      	ldr	r5, [r4, #12]
    3d24:	f003 0306 	and.w	r3, r3, #6
    3d28:	2b04      	cmp	r3, #4
    3d2a:	bf18      	it	ne
    3d2c:	2500      	movne	r5, #0
    3d2e:	f8d9 2000 	ldr.w	r2, [r9]
    3d32:	f04f 0900 	mov.w	r9, #0
    3d36:	bf08      	it	eq
    3d38:	1aad      	subeq	r5, r5, r2
    3d3a:	68a3      	ldr	r3, [r4, #8]
    3d3c:	6922      	ldr	r2, [r4, #16]
    3d3e:	bf08      	it	eq
    3d40:	ea25 75e5 	biceq.w	r5, r5, r5, asr #31
    3d44:	4293      	cmp	r3, r2
    3d46:	bfc4      	itt	gt
    3d48:	1a9b      	subgt	r3, r3, r2
    3d4a:	18ed      	addgt	r5, r5, r3
    3d4c:	341a      	adds	r4, #26
    3d4e:	454d      	cmp	r5, r9
    3d50:	d11b      	bne.n	0x3d8a
    3d52:	2000      	movs	r0, #0
    3d54:	e8bd 87f0 	ldmia.w	sp!, {r4, r5, r6, r7, r8, r9, sl, pc}
    3d58:	2301      	movs	r3, #1
    3d5a:	4652      	mov	r2, sl
    3d5c:	4639      	mov	r1, r7
    3d5e:	4630      	mov	r0, r6
    3d60:	47c0      	blx	r8
    3d62:	3001      	adds	r0, #1
    3d64:	d103      	bne.n	0x3d6e
    3d66:	f04f 30ff 	mov.w	r0, #4294967295	; 0xffffffff
    3d6a:	e8bd 87f0 	ldmia.w	sp!, {r4, r5, r6, r7, r8, r9, sl, pc}
    3d6e:	3501      	adds	r5, #1
    3d70:	e7c1      	b.n	0x3cf6
    3d72:	2030      	movs	r0, #48	; 0x30
    3d74:	18e1      	adds	r1, r4, r3
    3d76:	f881 0043 	strb.w	r0, [r1, #67]	; 0x43
    3d7a:	1c5a      	adds	r2, r3, #1
    3d7c:	f894 1045 	ldrb.w	r1, [r4, #69]	; 0x45
    3d80:	4422      	add	r2, r4
    3d82:	3302      	adds	r3, #2
    3d84:	f882 1043 	strb.w	r1, [r2, #67]	; 0x43
    3d88:	e7c3      	b.n	0x3d12
    3d8a:	2301      	movs	r3, #1
    3d8c:	4622      	mov	r2, r4
    3d8e:	4639      	mov	r1, r7
    3d90:	4630      	mov	r0, r6
    3d92:	47c0      	blx	r8
    3d94:	3001      	adds	r0, #1
    3d96:	d0e6      	beq.n	0x3d66
    3d98:	f109 0901 	add.w	r9, r9, #1
    3d9c:	e7d7      	b.n	0x3d4e
    3d9e:	0000      	movs	r0, r0
    3da0:	e92d 43f0 	stmdb	sp!, {r4, r5, r6, r7, r8, r9, lr}
    3da4:	4617      	mov	r7, r2
    3da6:	7e0a      	ldrb	r2, [r1, #24]
    3da8:	b085      	sub	sp, #20
    3daa:	2a6e      	cmp	r2, #110	; 0x6e
    3dac:	4698      	mov	r8, r3
    3dae:	4606      	mov	r6, r0
    3db0:	460c      	mov	r4, r1
    3db2:	9b0c      	ldr	r3, [sp, #48]	; 0x30
    3db4:	f101 0e43 	add.w	lr, r1, #67	; 0x43
    3db8:	f000 80bc 	beq.w	0x3f34
    3dbc:	d81a      	bhi.n	0x3df4
    3dbe:	2a63      	cmp	r2, #99	; 0x63
    3dc0:	d02e      	beq.n	0x3e20
    3dc2:	d80a      	bhi.n	0x3dda
    3dc4:	2a00      	cmp	r2, #0
    3dc6:	f000 80c8 	beq.w	0x3f5a
    3dca:	2a58      	cmp	r2, #88	; 0x58
    3dcc:	f000 808a 	beq.w	0x3ee4
    3dd0:	f104 0542 	add.w	r5, r4, #66	; 0x42
    3dd4:	f884 2042 	strb.w	r2, [r4, #66]	; 0x42
    3dd8:	e02a      	b.n	0x3e30
    3dda:	2a64      	cmp	r2, #100	; 0x64
    3ddc:	d001      	beq.n	0x3de2
    3dde:	2a69      	cmp	r2, #105	; 0x69
    3de0:	d1f6      	bne.n	0x3dd0
    3de2:	6821      	ldr	r1, [r4, #0]
    3de4:	681a      	ldr	r2, [r3, #0]
    3de6:	f011 0f80 	tst.w	r1, #128	; 0x80
    3dea:	d023      	beq.n	0x3e34
    3dec:	1d11      	adds	r1, r2, #4
    3dee:	6019      	str	r1, [r3, #0]
    3df0:	6813      	ldr	r3, [r2, #0]
    3df2:	e027      	b.n	0x3e44
    3df4:	2a73      	cmp	r2, #115	; 0x73
    3df6:	f000 80b4 	beq.w	0x3f62
    3dfa:	d808      	bhi.n	0x3e0e
    3dfc:	2a6f      	cmp	r2, #111	; 0x6f
    3dfe:	d02a      	beq.n	0x3e56
    3e00:	2a70      	cmp	r2, #112	; 0x70
    3e02:	d1e5      	bne.n	0x3dd0
    3e04:	680a      	ldr	r2, [r1, #0]
    3e06:	f042 0220 	orr.w	r2, r2, #32
    3e0a:	600a      	str	r2, [r1, #0]
    3e0c:	e003      	b.n	0x3e16
    3e0e:	2a75      	cmp	r2, #117	; 0x75
    3e10:	d021      	beq.n	0x3e56
    3e12:	2a78      	cmp	r2, #120	; 0x78
    3e14:	d1dc      	bne.n	0x3dd0
    3e16:	2278      	movs	r2, #120	; 0x78
    3e18:	496f      	ldr	r1, [pc, #444]	; (0x3fd8)
    3e1a:	f884 2045 	strb.w	r2, [r4, #69]	; 0x45
    3e1e:	e064      	b.n	0x3eea
    3e20:	681a      	ldr	r2, [r3, #0]
    3e22:	f101 0542 	add.w	r5, r1, #66	; 0x42
    3e26:	1d11      	adds	r1, r2, #4
    3e28:	6019      	str	r1, [r3, #0]
    3e2a:	6813      	ldr	r3, [r2, #0]
    3e2c:	f884 3042 	strb.w	r3, [r4, #66]	; 0x42
    3e30:	2301      	movs	r3, #1
    3e32:	e0a3      	b.n	0x3f7c
    3e34:	f011 0f40 	tst.w	r1, #64	; 0x40
    3e38:	f102 0104 	add.w	r1, r2, #4
    3e3c:	6019      	str	r1, [r3, #0]
    3e3e:	d0d7      	beq.n	0x3df0
    3e40:	f9b2 3000 	ldrsh.w	r3, [r2]
    3e44:	2b00      	cmp	r3, #0
    3e46:	da03      	bge.n	0x3e50
    3e48:	222d      	movs	r2, #45	; 0x2d
    3e4a:	425b      	negs	r3, r3
    3e4c:	f884 2043 	strb.w	r2, [r4, #67]	; 0x43
    3e50:	4962      	ldr	r1, [pc, #392]	; (0x3fdc)
    3e52:	220a      	movs	r2, #10
    3e54:	e017      	b.n	0x3e86
    3e56:	6820      	ldr	r0, [r4, #0]
    3e58:	6819      	ldr	r1, [r3, #0]
    3e5a:	f010 0f80 	tst.w	r0, #128	; 0x80
    3e5e:	d003      	beq.n	0x3e68
    3e60:	1d08      	adds	r0, r1, #4
    3e62:	6018      	str	r0, [r3, #0]
    3e64:	680b      	ldr	r3, [r1, #0]
    3e66:	e006      	b.n	0x3e76
    3e68:	f010 0f40 	tst.w	r0, #64	; 0x40
    3e6c:	f101 0004 	add.w	r0, r1, #4
    3e70:	6018      	str	r0, [r3, #0]
    3e72:	d0f7      	beq.n	0x3e64
    3e74:	880b      	ldrh	r3, [r1, #0]
    3e76:	2a6f      	cmp	r2, #111	; 0x6f
    3e78:	bf14      	ite	ne
    3e7a:	220a      	movne	r2, #10
    3e7c:	2208      	moveq	r2, #8
    3e7e:	4957      	ldr	r1, [pc, #348]	; (0x3fdc)
    3e80:	2000      	movs	r0, #0
    3e82:	f884 0043 	strb.w	r0, [r4, #67]	; 0x43
    3e86:	6865      	ldr	r5, [r4, #4]
    3e88:	2d00      	cmp	r5, #0
    3e8a:	60a5      	str	r5, [r4, #8]
    3e8c:	f2c0 809c 	blt.w	0x3fc8
    3e90:	6820      	ldr	r0, [r4, #0]
    3e92:	f020 0004 	bic.w	r0, r0, #4
    3e96:	6020      	str	r0, [r4, #0]
    3e98:	2b00      	cmp	r3, #0
    3e9a:	d13f      	bne.n	0x3f1c
    3e9c:	2d00      	cmp	r5, #0
    3e9e:	f040 8095 	bne.w	0x3fcc
    3ea2:	4675      	mov	r5, lr
    3ea4:	2a08      	cmp	r2, #8
    3ea6:	d10b      	bne.n	0x3ec0
    3ea8:	6823      	ldr	r3, [r4, #0]
    3eaa:	07da      	lsls	r2, r3, #31
    3eac:	d508      	bpl.n	0x3ec0
    3eae:	6923      	ldr	r3, [r4, #16]
    3eb0:	6862      	ldr	r2, [r4, #4]
    3eb2:	429a      	cmp	r2, r3
    3eb4:	bfde      	ittt	le
    3eb6:	2330      	movle	r3, #48	; 0x30
    3eb8:	f805 3c01 	strble.w	r3, [r5, #-1]
    3ebc:	f105 35ff 	addle.w	r5, r5, #4294967295	; 0xffffffff
    3ec0:	ebae 0305 	sub.w	r3, lr, r5
    3ec4:	6123      	str	r3, [r4, #16]
    3ec6:	f8cd 8000 	str.w	r8, [sp]
    3eca:	463b      	mov	r3, r7
    3ecc:	aa03      	add	r2, sp, #12
    3ece:	4621      	mov	r1, r4
    3ed0:	4630      	mov	r0, r6
    3ed2:	f7ff feed 	bl	0x3cb0
    3ed6:	3001      	adds	r0, #1
    3ed8:	d155      	bne.n	0x3f86
    3eda:	f04f 30ff 	mov.w	r0, #4294967295	; 0xffffffff
    3ede:	b005      	add	sp, #20
    3ee0:	e8bd 83f0 	ldmia.w	sp!, {r4, r5, r6, r7, r8, r9, pc}
    3ee4:	f881 2045 	strb.w	r2, [r1, #69]	; 0x45
    3ee8:	493c      	ldr	r1, [pc, #240]	; (0x3fdc)
    3eea:	6822      	ldr	r2, [r4, #0]
    3eec:	6818      	ldr	r0, [r3, #0]
    3eee:	f012 0f80 	tst.w	r2, #128	; 0x80
    3ef2:	f100 0504 	add.w	r5, r0, #4
    3ef6:	601d      	str	r5, [r3, #0]
    3ef8:	d001      	beq.n	0x3efe
    3efa:	6803      	ldr	r3, [r0, #0]
    3efc:	e002      	b.n	0x3f04
    3efe:	0655      	lsls	r5, r2, #25
    3f00:	d5fb      	bpl.n	0x3efa
    3f02:	8803      	ldrh	r3, [r0, #0]
    3f04:	07d0      	lsls	r0, r2, #31
    3f06:	bf44      	itt	mi
    3f08:	f042 0220 	orrmi.w	r2, r2, #32
    3f0c:	6022      	strmi	r2, [r4, #0]
    3f0e:	b91b      	cbnz	r3, 0x3f18
    3f10:	6822      	ldr	r2, [r4, #0]
    3f12:	f022 0220 	bic.w	r2, r2, #32
    3f16:	6022      	str	r2, [r4, #0]
    3f18:	2210      	movs	r2, #16
    3f1a:	e7b1      	b.n	0x3e80
    3f1c:	4675      	mov	r5, lr
    3f1e:	fbb3 f0f2 	udiv	r0, r3, r2
    3f22:	fb02 3310 	mls	r3, r2, r0, r3
    3f26:	5ccb      	ldrb	r3, [r1, r3]
    3f28:	f805 3d01 	strb.w	r3, [r5, #-1]!
    3f2c:	4603      	mov	r3, r0
    3f2e:	2800      	cmp	r0, #0
    3f30:	d1f5      	bne.n	0x3f1e
    3f32:	e7b7      	b.n	0x3ea4
    3f34:	6808      	ldr	r0, [r1, #0]
    3f36:	681a      	ldr	r2, [r3, #0]
    3f38:	f010 0f80 	tst.w	r0, #128	; 0x80
    3f3c:	6949      	ldr	r1, [r1, #20]
    3f3e:	d004      	beq.n	0x3f4a
    3f40:	1d10      	adds	r0, r2, #4
    3f42:	6018      	str	r0, [r3, #0]
    3f44:	6813      	ldr	r3, [r2, #0]
    3f46:	6019      	str	r1, [r3, #0]
    3f48:	e007      	b.n	0x3f5a
    3f4a:	f010 0f40 	tst.w	r0, #64	; 0x40
    3f4e:	f102 0004 	add.w	r0, r2, #4
    3f52:	6018      	str	r0, [r3, #0]
    3f54:	6813      	ldr	r3, [r2, #0]
    3f56:	d0f6      	beq.n	0x3f46
    3f58:	8019      	strh	r1, [r3, #0]
    3f5a:	2300      	movs	r3, #0
    3f5c:	4675      	mov	r5, lr
    3f5e:	6123      	str	r3, [r4, #16]
    3f60:	e7b1      	b.n	0x3ec6
    3f62:	681a      	ldr	r2, [r3, #0]
    3f64:	1d11      	adds	r1, r2, #4
    3f66:	6019      	str	r1, [r3, #0]
    3f68:	6815      	ldr	r5, [r2, #0]
    3f6a:	2100      	movs	r1, #0
    3f6c:	6862      	ldr	r2, [r4, #4]
    3f6e:	4628      	mov	r0, r5
    3f70:	f000 f836 	bl	0x3fe0
    3f74:	b108      	cbz	r0, 0x3f7a
    3f76:	1b40      	subs	r0, r0, r5
    3f78:	6060      	str	r0, [r4, #4]
    3f7a:	6863      	ldr	r3, [r4, #4]
    3f7c:	6123      	str	r3, [r4, #16]
    3f7e:	2300      	movs	r3, #0
    3f80:	f884 3043 	strb.w	r3, [r4, #67]	; 0x43
    3f84:	e79f      	b.n	0x3ec6
    3f86:	6923      	ldr	r3, [r4, #16]
    3f88:	462a      	mov	r2, r5
    3f8a:	4639      	mov	r1, r7
    3f8c:	4630      	mov	r0, r6
    3f8e:	47c0      	blx	r8
    3f90:	3001      	adds	r0, #1
    3f92:	d0a2      	beq.n	0x3eda
    3f94:	6823      	ldr	r3, [r4, #0]
    3f96:	079b      	lsls	r3, r3, #30
    3f98:	d507      	bpl.n	0x3faa
    3f9a:	2500      	movs	r5, #0
    3f9c:	f104 0919 	add.w	r9, r4, #25
    3fa0:	68e3      	ldr	r3, [r4, #12]
    3fa2:	9a03      	ldr	r2, [sp, #12]
    3fa4:	1a9b      	subs	r3, r3, r2
    3fa6:	429d      	cmp	r5, r3
    3fa8:	db05      	blt.n	0x3fb6
    3faa:	68e0      	ldr	r0, [r4, #12]
    3fac:	9b03      	ldr	r3, [sp, #12]
    3fae:	4298      	cmp	r0, r3
    3fb0:	bfb8      	it	lt
    3fb2:	4618      	movlt	r0, r3
    3fb4:	e793      	b.n	0x3ede
    3fb6:	2301      	movs	r3, #1
    3fb8:	464a      	mov	r2, r9
    3fba:	4639      	mov	r1, r7
    3fbc:	4630      	mov	r0, r6
    3fbe:	47c0      	blx	r8
    3fc0:	3001      	adds	r0, #1
    3fc2:	d08a      	beq.n	0x3eda
    3fc4:	3501      	adds	r5, #1
    3fc6:	e7eb      	b.n	0x3fa0
    3fc8:	2b00      	cmp	r3, #0
    3fca:	d1a7      	bne.n	0x3f1c
    3fcc:	780b      	ldrb	r3, [r1, #0]
    3fce:	f104 0542 	add.w	r5, r4, #66	; 0x42
    3fd2:	f884 3042 	strb.w	r3, [r4, #66]	; 0x42
    3fd6:	e765      	b.n	0x3ea4
    3fd8:	975e      	str	r7, [sp, #376]	; 0x178
    3fda:	0800      	lsrs	r0, r0, #32
    3fdc:	974d      	str	r7, [sp, #308]	; 0x134
    3fde:	0800      	lsrs	r0, r0, #32
    3fe0:	b510      	push	{r4, lr}
    3fe2:	b2c9      	uxtb	r1, r1
    3fe4:	4402      	add	r2, r0
    3fe6:	4290      	cmp	r0, r2
    3fe8:	4603      	mov	r3, r0
    3fea:	d101      	bne.n	0x3ff0
    3fec:	2000      	movs	r0, #0
    3fee:	bd10      	pop	{r4, pc}
    3ff0:	781c      	ldrb	r4, [r3, #0]
    3ff2:	3001      	adds	r0, #1
    3ff4:	428c      	cmp	r4, r1
    3ff6:	d1f6      	bne.n	0x3fe6
    3ff8:	4618      	mov	r0, r3
    3ffa:	bd10      	pop	{r4, pc}
    3ffc:	4288      	cmp	r0, r1
    3ffe:	b510      	push	{r4, lr}
    4000:	eb01 0302 	add.w	r3, r1, r2
    4004:	d803      	bhi.n	0x400e
    4006:	1e42      	subs	r2, r0, #1
    4008:	4299      	cmp	r1, r3
    400a:	d10c      	bne.n	0x4026
    400c:	bd10      	pop	{r4, pc}
    400e:	4298      	cmp	r0, r3
    4010:	d2f9      	bcs.n	0x4006
    4012:	1881      	adds	r1, r0, r2
    4014:	1ad2      	subs	r2, r2, r3
    4016:	42d3      	cmn	r3, r2
    4018:	d100      	bne.n	0x401c
    401a:	bd10      	pop	{r4, pc}
    401c:	f813 4d01 	ldrb.w	r4, [r3, #-1]!
    4020:	f801 4d01 	strb.w	r4, [r1, #-1]!
    4024:	e7f7      	b.n	0x4016
    4026:	f811 4b01 	ldrb.w	r4, [r1], #1
    402a:	f802 4f01 	strb.w	r4, [r2, #1]!
    402e:	e7eb      	b.n	0x4008
    4030:	b538      	push	{r3, r4, r5, lr}
    4032:	4605      	mov	r5, r0
    4034:	2900      	cmp	r1, #0
    4036:	d043      	beq.n	0x40c0
    4038:	f851 3c04 	ldr.w	r3, [r1, #-4]
    403c:	1f0c      	subs	r4, r1, #4
    403e:	2b00      	cmp	r3, #0
    4040:	bfb8      	it	lt
    4042:	18e4      	addlt	r4, r4, r3
    4044:	f000 f8d4 	bl	0x41f0
    4048:	4a1e      	ldr	r2, [pc, #120]	; (0x40c4)
    404a:	6813      	ldr	r3, [r2, #0]
    404c:	4610      	mov	r0, r2
    404e:	b933      	cbnz	r3, 0x405e
    4050:	6063      	str	r3, [r4, #4]
    4052:	6014      	str	r4, [r2, #0]
    4054:	4628      	mov	r0, r5
    4056:	e8bd 4038 	ldmia.w	sp!, {r3, r4, r5, lr}
    405a:	f000 b8ca 	b.w	0x41f2
    405e:	42a3      	cmp	r3, r4
    4060:	d90b      	bls.n	0x407a
    4062:	6821      	ldr	r1, [r4, #0]
    4064:	1862      	adds	r2, r4, r1
    4066:	4293      	cmp	r3, r2
    4068:	bf01      	itttt	eq
    406a:	681a      	ldreq	r2, [r3, #0]
    406c:	685b      	ldreq	r3, [r3, #4]
    406e:	1852      	addeq	r2, r2, r1
    4070:	6022      	streq	r2, [r4, #0]
    4072:	6063      	str	r3, [r4, #4]
    4074:	6004      	str	r4, [r0, #0]
    4076:	e7ed      	b.n	0x4054
    4078:	4613      	mov	r3, r2
    407a:	685a      	ldr	r2, [r3, #4]
    407c:	b10a      	cbz	r2, 0x4082
    407e:	42a2      	cmp	r2, r4
    4080:	d9fa      	bls.n	0x4078
    4082:	6819      	ldr	r1, [r3, #0]
    4084:	1858      	adds	r0, r3, r1
    4086:	42a0      	cmp	r0, r4
    4088:	d10b      	bne.n	0x40a2
    408a:	6820      	ldr	r0, [r4, #0]
    408c:	4401      	add	r1, r0
    408e:	1858      	adds	r0, r3, r1
    4090:	4282      	cmp	r2, r0
    4092:	6019      	str	r1, [r3, #0]
    4094:	d1de      	bne.n	0x4054
    4096:	6810      	ldr	r0, [r2, #0]
    4098:	6852      	ldr	r2, [r2, #4]
    409a:	4401      	add	r1, r0
    409c:	6019      	str	r1, [r3, #0]
    409e:	605a      	str	r2, [r3, #4]
    40a0:	e7d8      	b.n	0x4054
    40a2:	d902      	bls.n	0x40aa
    40a4:	230c      	movs	r3, #12
    40a6:	602b      	str	r3, [r5, #0]
    40a8:	e7d4      	b.n	0x4054
    40aa:	6820      	ldr	r0, [r4, #0]
    40ac:	1821      	adds	r1, r4, r0
    40ae:	428a      	cmp	r2, r1
    40b0:	bf01      	itttt	eq
    40b2:	6811      	ldreq	r1, [r2, #0]
    40b4:	6852      	ldreq	r2, [r2, #4]
    40b6:	1809      	addeq	r1, r1, r0
    40b8:	6021      	streq	r1, [r4, #0]
    40ba:	6062      	str	r2, [r4, #4]
    40bc:	605c      	str	r4, [r3, #4]
    40be:	e7c9      	b.n	0x4054
    40c0:	bd38      	pop	{r3, r4, r5, pc}
    40c2:	bf00      	nop
    40c4:	296c      	cmp	r1, #108	; 0x6c
    40c6:	2000      	movs	r0, #0
    40c8:	b570      	push	{r4, r5, r6, lr}
    40ca:	1ccd      	adds	r5, r1, #3
    40cc:	f025 0503 	bic.w	r5, r5, #3
    40d0:	3508      	adds	r5, #8
    40d2:	2d0c      	cmp	r5, #12
    40d4:	bf38      	it	cc
    40d6:	250c      	movcc	r5, #12
    40d8:	2d00      	cmp	r5, #0
    40da:	4606      	mov	r6, r0
    40dc:	db01      	blt.n	0x40e2
    40de:	42a9      	cmp	r1, r5
    40e0:	d903      	bls.n	0x40ea
    40e2:	230c      	movs	r3, #12
    40e4:	6033      	str	r3, [r6, #0]
    40e6:	2000      	movs	r0, #0
    40e8:	bd70      	pop	{r4, r5, r6, pc}
    40ea:	f000 f881 	bl	0x41f0
    40ee:	4a23      	ldr	r2, [pc, #140]	; (0x417c)
    40f0:	6814      	ldr	r4, [r2, #0]
    40f2:	4621      	mov	r1, r4
    40f4:	b991      	cbnz	r1, 0x411c
    40f6:	4c22      	ldr	r4, [pc, #136]	; (0x4180)
    40f8:	6823      	ldr	r3, [r4, #0]
    40fa:	b91b      	cbnz	r3, 0x4104
    40fc:	4630      	mov	r0, r6
    40fe:	f000 f867 	bl	0x41d0
    4102:	6020      	str	r0, [r4, #0]
    4104:	4629      	mov	r1, r5
    4106:	4630      	mov	r0, r6
    4108:	f000 f862 	bl	0x41d0
    410c:	1c43      	adds	r3, r0, #1
    410e:	d126      	bne.n	0x415e
    4110:	230c      	movs	r3, #12
    4112:	4630      	mov	r0, r6
    4114:	6033      	str	r3, [r6, #0]
    4116:	f000 f86c 	bl	0x41f2
    411a:	e7e4      	b.n	0x40e6
    411c:	680b      	ldr	r3, [r1, #0]
    411e:	1b5b      	subs	r3, r3, r5
    4120:	d41a      	bmi.n	0x4158
    4122:	2b0b      	cmp	r3, #11
    4124:	d90f      	bls.n	0x4146
    4126:	600b      	str	r3, [r1, #0]
    4128:	18cc      	adds	r4, r1, r3
    412a:	50cd      	str	r5, [r1, r3]
    412c:	4630      	mov	r0, r6
    412e:	f000 f860 	bl	0x41f2
    4132:	f104 000b 	add.w	r0, r4, #11
    4136:	1d23      	adds	r3, r4, #4
    4138:	f020 0007 	bic.w	r0, r0, #7
    413c:	1ac3      	subs	r3, r0, r3
    413e:	d01b      	beq.n	0x4178
    4140:	425a      	negs	r2, r3
    4142:	50e2      	str	r2, [r4, r3]
    4144:	bd70      	pop	{r4, r5, r6, pc}
    4146:	428c      	cmp	r4, r1
    4148:	bf0b      	itete	eq
    414a:	6863      	ldreq	r3, [r4, #4]
    414c:	684b      	ldrne	r3, [r1, #4]
    414e:	6013      	streq	r3, [r2, #0]
    4150:	6063      	strne	r3, [r4, #4]
    4152:	bf18      	it	ne
    4154:	460c      	movne	r4, r1
    4156:	e7e9      	b.n	0x412c
    4158:	460c      	mov	r4, r1
    415a:	6849      	ldr	r1, [r1, #4]
    415c:	e7ca      	b.n	0x40f4
    415e:	1cc4      	adds	r4, r0, #3
    4160:	f024 0403 	bic.w	r4, r4, #3
    4164:	42a0      	cmp	r0, r4
    4166:	d005      	beq.n	0x4174
    4168:	1a21      	subs	r1, r4, r0
    416a:	4630      	mov	r0, r6
    416c:	f000 f830 	bl	0x41d0
    4170:	3001      	adds	r0, #1
    4172:	d0cd      	beq.n	0x4110
    4174:	6025      	str	r5, [r4, #0]
    4176:	e7d9      	b.n	0x412c
    4178:	bd70      	pop	{r4, r5, r6, pc}
    417a:	bf00      	nop
    417c:	296c      	cmp	r1, #108	; 0x6c
    417e:	2000      	movs	r0, #0
    4180:	2970      	cmp	r1, #112	; 0x70
    4182:	2000      	movs	r0, #0
    4184:	b5f8      	push	{r3, r4, r5, r6, r7, lr}
    4186:	4607      	mov	r7, r0
    4188:	4614      	mov	r4, r2
    418a:	460e      	mov	r6, r1
    418c:	b921      	cbnz	r1, 0x4198
    418e:	4611      	mov	r1, r2
    4190:	e8bd 40f8 	ldmia.w	sp!, {r3, r4, r5, r6, r7, lr}
    4194:	f7ff bf98 	b.w	0x40c8
    4198:	b922      	cbnz	r2, 0x41a4
    419a:	f7ff ff49 	bl	0x4030
    419e:	4625      	mov	r5, r4
    41a0:	4628      	mov	r0, r5
    41a2:	bdf8      	pop	{r3, r4, r5, r6, r7, pc}
    41a4:	f000 f826 	bl	0x41f4
    41a8:	4284      	cmp	r4, r0
    41aa:	d90f      	bls.n	0x41cc
    41ac:	4621      	mov	r1, r4
    41ae:	4638      	mov	r0, r7
    41b0:	f7ff ff8a 	bl	0x40c8
    41b4:	4605      	mov	r5, r0
    41b6:	2800      	cmp	r0, #0
    41b8:	d0f2      	beq.n	0x41a0
    41ba:	4631      	mov	r1, r6
    41bc:	4622      	mov	r2, r4
    41be:	f7ff fbd9 	bl	0x3974
    41c2:	4631      	mov	r1, r6
    41c4:	4638      	mov	r0, r7
    41c6:	f7ff ff33 	bl	0x4030
    41ca:	e7e9      	b.n	0x41a0
    41cc:	4635      	mov	r5, r6
    41ce:	e7e7      	b.n	0x41a0
    41d0:	b538      	push	{r3, r4, r5, lr}
    41d2:	2300      	movs	r3, #0
    41d4:	4c05      	ldr	r4, [pc, #20]	; (0x41ec)
    41d6:	4605      	mov	r5, r0
    41d8:	4608      	mov	r0, r1
    41da:	6023      	str	r3, [r4, #0]
    41dc:	f000 f814 	bl	0x4208
    41e0:	1c43      	adds	r3, r0, #1
    41e2:	d102      	bne.n	0x41ea
    41e4:	6823      	ldr	r3, [r4, #0]
    41e6:	b103      	cbz	r3, 0x41ea
    41e8:	602b      	str	r3, [r5, #0]
    41ea:	bd38      	pop	{r3, r4, r5, pc}
    41ec:	2a90      	cmp	r2, #144	; 0x90
    41ee:	2000      	movs	r0, #0
    41f0:	4770      	bx	lr
    41f2:	4770      	bx	lr
    41f4:	f851 0c04 	ldr.w	r0, [r1, #-4]
    41f8:	2800      	cmp	r0, #0
    41fa:	f1a0 0004 	sub.w	r0, r0, #4
    41fe:	bfbc      	itt	lt
    4200:	580b      	ldrlt	r3, [r1, r0]
    4202:	18c0      	addlt	r0, r0, r3
    4204:	4770      	bx	lr
    4206:	0000      	movs	r0, r0
    4208:	4b04      	ldr	r3, [pc, #16]	; (0x421c)
    420a:	4602      	mov	r2, r0
    420c:	6819      	ldr	r1, [r3, #0]
    420e:	b909      	cbnz	r1, 0x4214
    4210:	4903      	ldr	r1, [pc, #12]	; (0x4220)
    4212:	6019      	str	r1, [r3, #0]
    4214:	6818      	ldr	r0, [r3, #0]
    4216:	4402      	add	r2, r0
    4218:	601a      	str	r2, [r3, #0]
    421a:	4770      	bx	lr
    421c:	2974      	cmp	r1, #116	; 0x74
    421e:	2000      	movs	r0, #0
    4220:	2a98      	cmp	r2, #152	; 0x98
    4222:	2000      	movs	r0, #0
    4224:	b5f8      	push	{r3, r4, r5, r6, r7, lr}
    4226:	bf00      	nop
    4228:	bcf8      	pop	{r3, r4, r5, r6, r7}
    422a:	bc08      	pop	{r3}
    422c:	469e      	mov	lr, r3
    422e:	4770      	bx	lr
    4230:	b5f8      	push	{r3, r4, r5, r6, r7, lr}
    4232:	bf00      	nop
    4234:	bcf8      	pop	{r3, r4, r5, r6, r7}
    4236:	bc08      	pop	{r3}
    4238:	469e      	mov	lr, r3
    423a:	4770      	bx	lr
    423c:	926c      	str	r2, [sp, #432]	; 0x1b0
    423e:	0800      	lsrs	r0, r0, #32
    4240:	5a25      	ldrh	r5, [r4, r0]
    4242:	0800      	lsrs	r0, r0, #32
    4244:	fffd 0000 	vcgt.s<illegal width 64>	d16, d0, #0
    4248:	0000      	movs	r0, r0
    424a:	0000      	movs	r0, r0
    424c:	0100      	lsls	r0, r0, #4
    424e:	0000      	movs	r0, r0
    4250:	0004      	movs	r4, r0
    4252:	0000      	movs	r0, r0
    4254:	0002      	movs	r2, r0
    4256:	0000      	movs	r0, r0
    4258:	0302      	lsls	r2, r0, #12
    425a:	0504      	lsls	r4, r0, #20
    425c:	0706      	lsls	r6, r0, #28
    425e:	0908      	lsrs	r0, r1, #4
    4260:	0b0a      	lsrs	r2, r1, #12
    4262:	0d0c      	lsrs	r4, r1, #20
    4264:	0f0e      	lsrs	r6, r1, #28
    4266:	1010      	asrs	r0, r2, #32
    4268:	0201      	lsls	r1, r0, #8
    426a:	0000      	movs	r0, r0
    426c:	7073      	strb	r3, [r6, #1]
    426e:	5463      	strb	r3, [r4, r1]
    4270:	7361      	strb	r1, [r4, #13]
    4272:	006b      	lsls	r3, r5, #1
	...
    4280:	0000      	movs	r0, r0
    4282:	0404      	lsls	r4, r0, #16
    4284:	0404      	lsls	r4, r0, #16
    4286:	0404      	lsls	r4, r0, #16
    4288:	0400      	lsls	r0, r0, #16
    428a:	0000      	movs	r0, r0
    428c:	1400      	asrs	r0, r0, #16
    428e:	0a0a      	lsrs	r2, r1, #8
	...
    4298:	0000      	movs	r0, r0
    429a:	1414      	asrs	r4, r2, #16
    429c:	143f      	asrs	r7, r7, #16
    429e:	3f0a      	subs	r7, #10
    42a0:	0a0a      	lsrs	r2, r1, #8
    42a2:	0000      	movs	r0, r0
    42a4:	0400      	lsls	r0, r0, #16
    42a6:	151e      	asrs	r6, r3, #20
    42a8:	0605      	lsls	r5, r0, #24
    42aa:	140c      	asrs	r4, r1, #16
    42ac:	0f15      	lsrs	r5, r2, #28
    42ae:	0004      	movs	r4, r0
    42b0:	0000      	movs	r0, r0
    42b2:	1512      	asrs	r2, r2, #20
    42b4:	0a0d      	lsrs	r5, r1, #8
    42b6:	2c14      	cmp	r4, #20
    42b8:	122a      	asrs	r2, r5, #8
    42ba:	0000      	movs	r0, r0
    42bc:	0000      	movs	r0, r0
    42be:	0a04      	lsrs	r4, r0, #8
    42c0:	1e0a      	subs	r2, r1, #0
    42c2:	1515      	asrs	r5, r2, #20
    42c4:	3609      	adds	r6, #9
    42c6:	0000      	movs	r0, r0
    42c8:	0200      	lsls	r0, r0, #8
    42ca:	0102      	lsls	r2, r0, #4
	...
    42d4:	2000      	movs	r0, #0
    42d6:	0810      	lsrs	r0, r2, #32
    42d8:	0808      	lsrs	r0, r1, #32
    42da:	0808      	lsrs	r0, r1, #32
    42dc:	1008      	asrs	r0, r1, #32
    42de:	0020      	movs	r0, r4
    42e0:	0200      	lsls	r0, r0, #8
    42e2:	0804      	lsrs	r4, r0, #32
    42e4:	0808      	lsrs	r0, r1, #32
    42e6:	0808      	lsrs	r0, r1, #32
    42e8:	0408      	lsls	r0, r1, #16
    42ea:	0002      	movs	r2, r0
    42ec:	0000      	movs	r0, r0
    42ee:	0400      	lsls	r0, r0, #16
    42f0:	0e15      	lsrs	r5, r2, #24
    42f2:	150e      	asrs	r6, r1, #20
    42f4:	0004      	movs	r4, r0
    42f6:	0000      	movs	r0, r0
    42f8:	0000      	movs	r0, r0
    42fa:	0404      	lsls	r4, r0, #16
    42fc:	1f04      	subs	r4, r0, #4
    42fe:	0404      	lsls	r4, r0, #16
    4300:	0004      	movs	r4, r0
	...
    430a:	0000      	movs	r0, r0
    430c:	0200      	lsls	r0, r0, #8
    430e:	0102      	lsls	r2, r0, #4
    4310:	0000      	movs	r0, r0
    4312:	0000      	movs	r0, r0
    4314:	1f00      	subs	r0, r0, #4
	...
    4322:	0000      	movs	r0, r0
    4324:	0200      	lsls	r0, r0, #8
    4326:	0000      	movs	r0, r0
    4328:	1000      	asrs	r0, r0, #32
    432a:	0808      	lsrs	r0, r1, #32
    432c:	0408      	lsls	r0, r1, #16
    432e:	0204      	lsls	r4, r0, #8
    4330:	0202      	lsls	r2, r0, #8
    4332:	0001      	movs	r1, r0
    4334:	0000      	movs	r0, r0
    4336:	110e      	asrs	r6, r1, #4
    4338:	1111      	asrs	r1, r2, #4
    433a:	1111      	asrs	r1, r2, #4
    433c:	0e11      	lsrs	r1, r2, #24
    433e:	0000      	movs	r0, r0
    4340:	0000      	movs	r0, r0
    4342:	0604      	lsls	r4, r0, #24
    4344:	0404      	lsls	r4, r0, #16
    4346:	0404      	lsls	r4, r0, #16
    4348:	0e04      	lsrs	r4, r0, #24
    434a:	0000      	movs	r0, r0
    434c:	0000      	movs	r0, r0
    434e:	110e      	asrs	r6, r1, #4
    4350:	0811      	lsrs	r1, r2, #32
    4352:	0204      	lsls	r4, r0, #8
    4354:	1f01      	subs	r1, r0, #4
    4356:	0000      	movs	r0, r0
    4358:	0000      	movs	r0, r0
    435a:	110e      	asrs	r6, r1, #4
    435c:	0c10      	lsrs	r0, r2, #16
    435e:	1010      	asrs	r0, r2, #32
    4360:	0e11      	lsrs	r1, r2, #24
    4362:	0000      	movs	r0, r0
    4364:	0000      	movs	r0, r0
    4366:	0c08      	lsrs	r0, r1, #16
    4368:	0a0a      	lsrs	r2, r1, #8
    436a:	1e09      	subs	r1, r1, #0
    436c:	1808      	adds	r0, r1, r0
    436e:	0000      	movs	r0, r0
    4370:	0000      	movs	r0, r0
    4372:	011f      	lsls	r7, r3, #4
    4374:	0f01      	lsrs	r1, r0, #28
    4376:	1010      	asrs	r0, r2, #32
    4378:	0e11      	lsrs	r1, r2, #24
    437a:	0000      	movs	r0, r0
    437c:	0000      	movs	r0, r0
    437e:	090e      	lsrs	r6, r1, #4
    4380:	0f01      	lsrs	r1, r0, #28
    4382:	1111      	asrs	r1, r2, #4
    4384:	0e11      	lsrs	r1, r2, #24
    4386:	0000      	movs	r0, r0
    4388:	0000      	movs	r0, r0
    438a:	091f      	lsrs	r7, r3, #4
    438c:	0408      	lsls	r0, r1, #16
    438e:	0404      	lsls	r4, r0, #16
    4390:	0404      	lsls	r4, r0, #16
    4392:	0000      	movs	r0, r0
    4394:	0000      	movs	r0, r0
    4396:	110e      	asrs	r6, r1, #4
    4398:	0e11      	lsrs	r1, r2, #24
    439a:	1111      	asrs	r1, r2, #4
    439c:	0e11      	lsrs	r1, r2, #24
    439e:	0000      	movs	r0, r0
    43a0:	0000      	movs	r0, r0
    43a2:	110e      	asrs	r6, r1, #4
    43a4:	1111      	asrs	r1, r2, #4
    43a6:	101e      	asrs	r6, r3, #32
    43a8:	0e12      	lsrs	r2, r2, #24
    43aa:	0000      	movs	r0, r0
    43ac:	0000      	movs	r0, r0
    43ae:	0000      	movs	r0, r0
    43b0:	0004      	movs	r4, r0
    43b2:	0000      	movs	r0, r0
    43b4:	0400      	lsls	r0, r0, #16
    43b6:	0000      	movs	r0, r0
    43b8:	0000      	movs	r0, r0
    43ba:	0000      	movs	r0, r0
    43bc:	0400      	lsls	r0, r0, #16
    43be:	0000      	movs	r0, r0
    43c0:	0400      	lsls	r0, r0, #16
    43c2:	0004      	movs	r4, r0
    43c4:	2000      	movs	r0, #0
    43c6:	0810      	lsrs	r0, r2, #32
    43c8:	0204      	lsls	r4, r0, #8
    43ca:	0804      	lsrs	r4, r0, #32
    43cc:	2010      	movs	r0, #16
    43ce:	0000      	movs	r0, r0
    43d0:	0000      	movs	r0, r0
    43d2:	0000      	movs	r0, r0
    43d4:	001f      	movs	r7, r3
    43d6:	1f00      	subs	r0, r0, #4
    43d8:	0000      	movs	r0, r0
    43da:	0000      	movs	r0, r0
    43dc:	0200      	lsls	r0, r0, #8
    43de:	0804      	lsrs	r4, r0, #32
    43e0:	2010      	movs	r0, #16
    43e2:	0810      	lsrs	r0, r2, #32
    43e4:	0204      	lsls	r4, r0, #8
    43e6:	0000      	movs	r0, r0
    43e8:	0000      	movs	r0, r0
    43ea:	110e      	asrs	r6, r1, #4
    43ec:	0811      	lsrs	r1, r2, #32
    43ee:	0404      	lsls	r4, r0, #16
    43f0:	0400      	lsls	r0, r0, #16
    43f2:	0000      	movs	r0, r0
    43f4:	0000      	movs	r0, r0
    43f6:	110e      	asrs	r6, r1, #4
    43f8:	1519      	asrs	r1, r3, #20
    43fa:	1d15      	adds	r5, r2, #4
    43fc:	1e01      	subs	r1, r0, #0
    43fe:	0000      	movs	r0, r0
    4400:	0000      	movs	r0, r0
    4402:	0404      	lsls	r4, r0, #16
    4404:	0a0c      	lsrs	r4, r1, #8
    4406:	1e0a      	subs	r2, r1, #0
    4408:	3312      	adds	r3, #18
    440a:	0000      	movs	r0, r0
    440c:	0000      	movs	r0, r0
    440e:	120f      	asrs	r7, r1, #8
    4410:	0e12      	lsrs	r2, r2, #24
    4412:	1212      	asrs	r2, r2, #8
    4414:	0f12      	lsrs	r2, r2, #28
    4416:	0000      	movs	r0, r0
    4418:	0000      	movs	r0, r0
    441a:	111e      	asrs	r6, r3, #4
    441c:	0101      	lsls	r1, r0, #4
    441e:	0101      	lsls	r1, r0, #4
    4420:	0e11      	lsrs	r1, r2, #24
    4422:	0000      	movs	r0, r0
    4424:	0000      	movs	r0, r0
    4426:	120f      	asrs	r7, r1, #8
    4428:	1212      	asrs	r2, r2, #8
    442a:	1212      	asrs	r2, r2, #8
    442c:	0f12      	lsrs	r2, r2, #28
    442e:	0000      	movs	r0, r0
    4430:	0000      	movs	r0, r0
    4432:	121f      	asrs	r7, r3, #8
    4434:	0e0a      	lsrs	r2, r1, #24
    4436:	020a      	lsls	r2, r1, #8
    4438:	1f12      	subs	r2, r2, #4
    443a:	0000      	movs	r0, r0
    443c:	0000      	movs	r0, r0
    443e:	121f      	asrs	r7, r3, #8
    4440:	0e0a      	lsrs	r2, r1, #24
    4442:	020a      	lsls	r2, r1, #8
    4444:	0702      	lsls	r2, r0, #28
    4446:	0000      	movs	r0, r0
    4448:	0000      	movs	r0, r0
    444a:	121c      	asrs	r4, r3, #8
    444c:	0101      	lsls	r1, r0, #4
    444e:	1139      	asrs	r1, r7, #4
    4450:	0c12      	lsrs	r2, r2, #16
    4452:	0000      	movs	r0, r0
    4454:	0000      	movs	r0, r0
    4456:	1233      	asrs	r3, r6, #8
    4458:	1e12      	subs	r2, r2, #0
    445a:	1212      	asrs	r2, r2, #8
    445c:	3312      	adds	r3, #18
    445e:	0000      	movs	r0, r0
    4460:	0000      	movs	r0, r0
    4462:	041f      	lsls	r7, r3, #16
    4464:	0404      	lsls	r4, r0, #16
    4466:	0404      	lsls	r4, r0, #16
    4468:	1f04      	subs	r4, r0, #4
    446a:	0000      	movs	r0, r0
    446c:	0000      	movs	r0, r0
    446e:	083e      	lsrs	r6, r7, #32
    4470:	0808      	lsrs	r0, r1, #32
    4472:	0808      	lsrs	r0, r1, #32
    4474:	0908      	lsrs	r0, r1, #4
    4476:	0007      	movs	r7, r0
    4478:	0000      	movs	r0, r0
    447a:	1237      	asrs	r7, r6, #8
    447c:	060a      	lsls	r2, r1, #24
    447e:	0a0a      	lsrs	r2, r1, #8
    4480:	3712      	adds	r7, #18
    4482:	0000      	movs	r0, r0
    4484:	0000      	movs	r0, r0
    4486:	0207      	lsls	r7, r0, #8
    4488:	0202      	lsls	r2, r0, #8
    448a:	0202      	lsls	r2, r0, #8
    448c:	3f22      	subs	r7, #34	; 0x22
    448e:	0000      	movs	r0, r0
    4490:	0000      	movs	r0, r0
    4492:	1b1b      	subs	r3, r3, r4
    4494:	1b1b      	subs	r3, r3, r4
    4496:	1515      	asrs	r5, r2, #20
    4498:	1515      	asrs	r5, r2, #20
    449a:	0000      	movs	r0, r0
    449c:	0000      	movs	r0, r0
    449e:	123b      	asrs	r3, r7, #8
    44a0:	1616      	asrs	r6, r2, #24
    44a2:	1a1a      	subs	r2, r3, r0
    44a4:	1712      	asrs	r2, r2, #28
    44a6:	0000      	movs	r0, r0
    44a8:	0000      	movs	r0, r0
    44aa:	110e      	asrs	r6, r1, #4
    44ac:	1111      	asrs	r1, r2, #4
    44ae:	1111      	asrs	r1, r2, #4
    44b0:	0e11      	lsrs	r1, r2, #24
    44b2:	0000      	movs	r0, r0
    44b4:	0000      	movs	r0, r0
    44b6:	120f      	asrs	r7, r1, #8
    44b8:	0e12      	lsrs	r2, r2, #24
    44ba:	0202      	lsls	r2, r0, #8
    44bc:	0702      	lsls	r2, r0, #28
    44be:	0000      	movs	r0, r0
    44c0:	0000      	movs	r0, r0
    44c2:	110e      	asrs	r6, r1, #4
    44c4:	1111      	asrs	r1, r2, #4
    44c6:	1711      	asrs	r1, r2, #28
    44c8:	0e19      	lsrs	r1, r3, #24
    44ca:	0018      	movs	r0, r3
    44cc:	0000      	movs	r0, r0
    44ce:	120f      	asrs	r7, r1, #8
    44d0:	0e12      	lsrs	r2, r2, #24
    44d2:	120a      	asrs	r2, r1, #8
    44d4:	3712      	adds	r7, #18
    44d6:	0000      	movs	r0, r0
    44d8:	0000      	movs	r0, r0
    44da:	111e      	asrs	r6, r3, #4
    44dc:	0601      	lsls	r1, r0, #24
    44de:	1008      	asrs	r0, r1, #32
    44e0:	0f11      	lsrs	r1, r2, #28
    44e2:	0000      	movs	r0, r0
    44e4:	0000      	movs	r0, r0
    44e6:	151f      	asrs	r7, r3, #20
    44e8:	0404      	lsls	r4, r0, #16
    44ea:	0404      	lsls	r4, r0, #16
    44ec:	0e04      	lsrs	r4, r0, #24
    44ee:	0000      	movs	r0, r0
    44f0:	0000      	movs	r0, r0
    44f2:	1233      	asrs	r3, r6, #8
    44f4:	1212      	asrs	r2, r2, #8
    44f6:	1212      	asrs	r2, r2, #8
    44f8:	0c12      	lsrs	r2, r2, #16
    44fa:	0000      	movs	r0, r0
    44fc:	0000      	movs	r0, r0
    44fe:	1233      	asrs	r3, r6, #8
    4500:	0a12      	lsrs	r2, r2, #8
    4502:	0c0a      	lsrs	r2, r1, #16
    4504:	0404      	lsls	r4, r0, #16
    4506:	0000      	movs	r0, r0
    4508:	0000      	movs	r0, r0
    450a:	1515      	asrs	r5, r2, #20
    450c:	0e15      	lsrs	r5, r2, #24
    450e:	0a0a      	lsrs	r2, r1, #8
    4510:	0a0a      	lsrs	r2, r1, #8
    4512:	0000      	movs	r0, r0
    4514:	0000      	movs	r0, r0
    4516:	0a1b      	lsrs	r3, r3, #8
    4518:	040a      	lsls	r2, r1, #16
    451a:	0a04      	lsrs	r4, r0, #8
    451c:	1b0a      	subs	r2, r1, r4
    451e:	0000      	movs	r0, r0
    4520:	0000      	movs	r0, r0
    4522:	0a1b      	lsrs	r3, r3, #8
    4524:	040a      	lsls	r2, r1, #16
    4526:	0404      	lsls	r4, r0, #16
    4528:	0e04      	lsrs	r4, r0, #24
    452a:	0000      	movs	r0, r0
    452c:	0000      	movs	r0, r0
    452e:	091f      	lsrs	r7, r3, #4
    4530:	0408      	lsls	r0, r1, #16
    4532:	0204      	lsls	r4, r0, #8
    4534:	1f12      	subs	r2, r2, #4
    4536:	0000      	movs	r0, r0
    4538:	1c00      	adds	r0, r0, #0
    453a:	0404      	lsls	r4, r0, #16
    453c:	0404      	lsls	r4, r0, #16
    453e:	0404      	lsls	r4, r0, #16
    4540:	0404      	lsls	r4, r0, #16
    4542:	001c      	movs	r4, r3
    4544:	0200      	lsls	r0, r0, #8
    4546:	0202      	lsls	r2, r0, #8
    4548:	0404      	lsls	r4, r0, #16
    454a:	0808      	lsrs	r0, r1, #32
    454c:	1008      	asrs	r0, r1, #32
    454e:	0000      	movs	r0, r0
    4550:	0e00      	lsrs	r0, r0, #24
    4552:	0808      	lsrs	r0, r1, #32
    4554:	0808      	lsrs	r0, r1, #32
    4556:	0808      	lsrs	r0, r1, #32
    4558:	0808      	lsrs	r0, r1, #32
    455a:	000e      	movs	r6, r1
    455c:	0400      	lsls	r0, r0, #16
    455e:	000a      	movs	r2, r1
	...
    4570:	0000      	movs	r0, r0
    4572:	3f00      	subs	r7, #0
    4574:	0400      	lsls	r0, r0, #16
	...
    4582:	0000      	movs	r0, r0
    4584:	0c00      	lsrs	r0, r0, #16
    4586:	1c12      	adds	r2, r2, #0
    4588:	3c12      	subs	r4, #18
    458a:	0000      	movs	r0, r0
    458c:	0000      	movs	r0, r0
    458e:	0203      	lsls	r3, r0, #8
    4590:	0e02      	lsrs	r2, r0, #24
    4592:	1212      	asrs	r2, r2, #8
    4594:	0e12      	lsrs	r2, r2, #24
    4596:	0000      	movs	r0, r0
    4598:	0000      	movs	r0, r0
    459a:	0000      	movs	r0, r0
    459c:	1c00      	adds	r0, r0, #0
    459e:	0212      	lsls	r2, r2, #8
    45a0:	1c02      	adds	r2, r0, #0
    45a2:	0000      	movs	r0, r0
    45a4:	0000      	movs	r0, r0
    45a6:	1018      	asrs	r0, r3, #32
    45a8:	1c10      	adds	r0, r2, #0
    45aa:	1212      	asrs	r2, r2, #8
    45ac:	3c12      	subs	r4, #18
    45ae:	0000      	movs	r0, r0
    45b0:	0000      	movs	r0, r0
    45b2:	0000      	movs	r0, r0
    45b4:	0c00      	lsrs	r0, r0, #16
    45b6:	1e12      	subs	r2, r2, #0
    45b8:	1c02      	adds	r2, r0, #0
    45ba:	0000      	movs	r0, r0
    45bc:	0000      	movs	r0, r0
    45be:	0438      	lsls	r0, r7, #16
    45c0:	1e04      	subs	r4, r0, #0
    45c2:	0404      	lsls	r4, r0, #16
    45c4:	1e04      	subs	r4, r0, #0
    45c6:	0000      	movs	r0, r0
    45c8:	0000      	movs	r0, r0
    45ca:	0000      	movs	r0, r0
    45cc:	3c00      	subs	r4, #0
    45ce:	0c12      	lsrs	r2, r2, #16
    45d0:	1e02      	subs	r2, r0, #0
    45d2:	1c22      	adds	r2, r4, #0
    45d4:	0000      	movs	r0, r0
    45d6:	0203      	lsls	r3, r0, #8
    45d8:	0e02      	lsrs	r2, r0, #24
    45da:	1212      	asrs	r2, r2, #8
    45dc:	3712      	adds	r7, #18
    45de:	0000      	movs	r0, r0
    45e0:	0000      	movs	r0, r0
    45e2:	0004      	movs	r4, r0
    45e4:	0600      	lsls	r0, r0, #24
    45e6:	0404      	lsls	r4, r0, #16
    45e8:	0e04      	lsrs	r4, r0, #24
    45ea:	0000      	movs	r0, r0
    45ec:	0000      	movs	r0, r0
    45ee:	0008      	movs	r0, r1
    45f0:	0c00      	lsrs	r0, r0, #16
    45f2:	0808      	lsrs	r0, r1, #32
    45f4:	0808      	lsrs	r0, r1, #32
    45f6:	0708      	lsls	r0, r1, #28
    45f8:	0000      	movs	r0, r0
    45fa:	0203      	lsls	r3, r0, #8
    45fc:	3a02      	subs	r2, #2
    45fe:	0e0a      	lsrs	r2, r1, #24
    4600:	3712      	adds	r7, #18
    4602:	0000      	movs	r0, r0
    4604:	0000      	movs	r0, r0
    4606:	0407      	lsls	r7, r0, #16
    4608:	0404      	lsls	r4, r0, #16
    460a:	0404      	lsls	r4, r0, #16
    460c:	1f04      	subs	r4, r0, #4
    460e:	0000      	movs	r0, r0
    4610:	0000      	movs	r0, r0
    4612:	0000      	movs	r0, r0
    4614:	0f00      	lsrs	r0, r0, #28
    4616:	1515      	asrs	r5, r2, #20
    4618:	1515      	asrs	r5, r2, #20
    461a:	0000      	movs	r0, r0
    461c:	0000      	movs	r0, r0
    461e:	0000      	movs	r0, r0
    4620:	0f00      	lsrs	r0, r0, #28
    4622:	1212      	asrs	r2, r2, #8
    4624:	3712      	adds	r7, #18
    4626:	0000      	movs	r0, r0
    4628:	0000      	movs	r0, r0
    462a:	0000      	movs	r0, r0
    462c:	0c00      	lsrs	r0, r0, #16
    462e:	1212      	asrs	r2, r2, #8
    4630:	0c12      	lsrs	r2, r2, #16
    4632:	0000      	movs	r0, r0
    4634:	0000      	movs	r0, r0
    4636:	0000      	movs	r0, r0
    4638:	0f00      	lsrs	r0, r0, #28
    463a:	1212      	asrs	r2, r2, #8
    463c:	0e12      	lsrs	r2, r2, #24
    463e:	0702      	lsls	r2, r0, #28
    4640:	0000      	movs	r0, r0
    4642:	0000      	movs	r0, r0
    4644:	1c00      	adds	r0, r0, #0
    4646:	1212      	asrs	r2, r2, #8
    4648:	1c12      	adds	r2, r2, #0
    464a:	3810      	subs	r0, #16
    464c:	0000      	movs	r0, r0
    464e:	0000      	movs	r0, r0
    4650:	1b00      	subs	r0, r0, r4
    4652:	0206      	lsls	r6, r0, #8
    4654:	0702      	lsls	r2, r0, #28
    4656:	0000      	movs	r0, r0
    4658:	0000      	movs	r0, r0
    465a:	0000      	movs	r0, r0
    465c:	1e00      	subs	r0, r0, #0
    465e:	0c02      	lsrs	r2, r0, #16
    4660:	1e10      	subs	r0, r2, #0
    4662:	0000      	movs	r0, r0
    4664:	0000      	movs	r0, r0
    4666:	0400      	lsls	r0, r0, #16
    4668:	0e04      	lsrs	r4, r0, #24
    466a:	0404      	lsls	r4, r0, #16
    466c:	1804      	adds	r4, r0, r0
    466e:	0000      	movs	r0, r0
    4670:	0000      	movs	r0, r0
    4672:	0000      	movs	r0, r0
    4674:	1b00      	subs	r0, r0, r4
    4676:	1212      	asrs	r2, r2, #8
    4678:	3c12      	subs	r4, #18
    467a:	0000      	movs	r0, r0
    467c:	0000      	movs	r0, r0
    467e:	0000      	movs	r0, r0
    4680:	3700      	adds	r7, #0
    4682:	0a12      	lsrs	r2, r2, #8
    4684:	040c      	lsls	r4, r1, #16
    4686:	0000      	movs	r0, r0
    4688:	0000      	movs	r0, r0
    468a:	0000      	movs	r0, r0
    468c:	1500      	asrs	r0, r0, #20
    468e:	0e15      	lsrs	r5, r2, #24
    4690:	0a0a      	lsrs	r2, r1, #8
    4692:	0000      	movs	r0, r0
    4694:	0000      	movs	r0, r0
    4696:	0000      	movs	r0, r0
    4698:	1b00      	subs	r0, r0, r4
    469a:	040a      	lsls	r2, r1, #16
    469c:	1b0a      	subs	r2, r1, r4
    469e:	0000      	movs	r0, r0
    46a0:	0000      	movs	r0, r0
    46a2:	0000      	movs	r0, r0
    46a4:	3700      	adds	r7, #0
    46a6:	0a12      	lsrs	r2, r2, #8
    46a8:	040c      	lsls	r4, r1, #16
    46aa:	0304      	lsls	r4, r0, #12
    46ac:	0000      	movs	r0, r0
    46ae:	0000      	movs	r0, r0
    46b0:	1e00      	subs	r0, r0, #0
    46b2:	0408      	lsls	r0, r1, #16
    46b4:	1e04      	subs	r4, r0, #0
    46b6:	0000      	movs	r0, r0
    46b8:	1800      	adds	r0, r0, r0
    46ba:	0808      	lsrs	r0, r1, #32
    46bc:	0408      	lsls	r0, r1, #16
    46be:	0808      	lsrs	r0, r1, #32
    46c0:	0808      	lsrs	r0, r1, #32
    46c2:	0018      	movs	r0, r3
    46c4:	0808      	lsrs	r0, r1, #32
    46c6:	0808      	lsrs	r0, r1, #32
    46c8:	0808      	lsrs	r0, r1, #32
    46ca:	0808      	lsrs	r0, r1, #32
    46cc:	0808      	lsrs	r0, r1, #32
    46ce:	0808      	lsrs	r0, r1, #32
    46d0:	0600      	lsls	r0, r0, #24
    46d2:	0404      	lsls	r4, r0, #16
    46d4:	0804      	lsrs	r4, r0, #32
    46d6:	0404      	lsls	r4, r0, #16
    46d8:	0404      	lsls	r4, r0, #16
    46da:	0006      	movs	r6, r0
    46dc:	2502      	movs	r5, #2
    46de:	0018      	movs	r0, r3
	...
    46e8:	2049      	movs	r0, #73	; 0x49
    46ea:	6d61      	ldr	r1, [r4, #84]	; 0x54
    46ec:	7220      	strb	r0, [r4, #8]
    46ee:	6e75      	ldr	r5, [r6, #100]	; 0x64
    46f0:	696e      	ldr	r6, [r5, #20]
    46f2:	676e      	str	r6, [r5, #116]	; 0x74
    46f4:	5320      	strh	r0, [r4, r4]
    46f6:	6370      	str	r0, [r6, #52]	; 0x34
    46f8:	614d      	str	r5, [r1, #20]
    46fa:	6e69      	ldr	r1, [r5, #100]	; 0x64
    46fc:	6f4c      	ldr	r4, [r1, #116]	; 0x74
    46fe:	706f      	strb	r7, [r5, #1]
    4700:	7520      	strb	r0, [r4, #20]
    4702:	6573      	str	r3, [r6, #84]	; 0x54
    4704:	2064      	movs	r0, #100	; 0x64
    4706:	6425      	str	r5, [r4, #64]	; 0x40
	...
    4714:	0201      	lsls	r1, r0, #8
    4716:	0403      	lsls	r3, r0, #16
    4718:	0706      	lsls	r6, r0, #28
    471a:	0908      	lsrs	r0, r1, #4
    471c:	0000      	movs	r0, r0
    471e:	0000      	movs	r0, r0
    4720:	0201      	lsls	r1, r0, #8
    4722:	0403      	lsls	r3, r0, #16
    4724:	4449      	add	r1, r9
    4726:	454c      	cmp	r4, r9
    4728:	0000      	movs	r0, r0
    472a:	0000      	movs	r0, r0
    472c:	6d54      	ldr	r4, [r2, #84]	; 0x54
    472e:	5172      	str	r2, [r6, r5]
    4730:	0000      	movs	r0, r0
    4732:	0000      	movs	r0, r0
    4734:	6d54      	ldr	r4, [r2, #84]	; 0x54
    4736:	2072      	movs	r0, #114	; 0x72
    4738:	7653      	strb	r3, [r2, #25]
    473a:	0063      	lsls	r3, r4, #1
    473c:	2d23      	cmp	r5, #35	; 0x23
    473e:	2b30      	cmp	r3, #48	; 0x30
    4740:	0020      	movs	r0, r4
    4742:	6c68      	ldr	r0, [r5, #68]	; 0x44
    4744:	004c      	lsls	r4, r1, #1
    4746:	6665      	str	r5, [r4, #100]	; 0x64
    4748:	4567      	cmp	r7, ip
    474a:	4746      	bx	r8
    474c:	3000      	adds	r0, #0
    474e:	3231      	adds	r2, #49	; 0x31
    4750:	3433      	adds	r4, #51	; 0x33
    4752:	3635      	adds	r6, #53	; 0x35
    4754:	3837      	subs	r0, #55	; 0x37
    4756:	4139      	asrs	r1, r7
    4758:	4342      	muls	r2, r0
    475a:	4544      	cmp	r4, r8
    475c:	0046      	lsls	r6, r0, #1
    475e:	3130      	adds	r1, #48	; 0x30
    4760:	3332      	adds	r3, #50	; 0x32
    4762:	3534      	adds	r5, #52	; 0x34
    4764:	3736      	adds	r7, #54	; 0x36
    4766:	3938      	subs	r1, #56	; 0x38
    4768:	6261      	str	r1, [r4, #36]	; 0x24
    476a:	6463      	str	r3, [r4, #68]	; 0x44
    476c:	6665      	str	r5, [r4, #100]	; 0x64
    476e:	0000      	movs	r0, r0
    4770:	5215      	strh	r5, [r2, r0]
    4772:	0800      	lsrs	r0, r0, #32
    4774:	51f1      	str	r1, [r6, r7]
    4776:	0800      	lsrs	r0, r0, #32
    4778:	2020      	movs	r0, #32
    477a:	2020      	movs	r0, #32
    477c:	2020      	movs	r0, #32
    477e:	2020      	movs	r0, #32
    4780:	2020      	movs	r0, #32
    4782:	2020      	movs	r0, #32
    4784:	2020      	movs	r0, #32
    4786:	2020      	movs	r0, #32
    4788:	2020      	movs	r0, #32
    478a:	2020      	movs	r0, #32
    478c:	2020      	movs	r0, #32
    478e:	2020      	movs	r0, #32
    4790:	2020      	movs	r0, #32
    4792:	2020      	movs	r0, #32
    4794:	2020      	movs	r0, #32
    4796:	2020      	movs	r0, #32
    4798:	2020      	movs	r0, #32
    479a:	2020      	movs	r0, #32
    479c:	2020      	movs	r0, #32
    479e:	2020      	movs	r0, #32
    47a0:	2020      	movs	r0, #32
    47a2:	2020      	movs	r0, #32
    47a4:	2020      	movs	r0, #32
    47a6:	2020      	movs	r0, #32
    47a8:	2020      	movs	r0, #32
    47aa:	2020      	movs	r0, #32
    47ac:	0000      	movs	r0, r0
    47ae:	0000      	movs	r0, r0
    47b0:	a200      	add	r2, pc, #0	; (adr r2, 0x47b4)
    47b2:	044a      	lsls	r2, r1, #17
    47b4:	0001      	movs	r1, r0
    47b6:	0000      	movs	r0, r0
    47b8:	aaaa      	add	r2, sp, #680	; 0x2a8
    47ba:	aaaa      	add	r2, sp, #680	; 0x2a8
    47bc:	0048      	lsls	r0, r1, #1
    47be:	2000      	movs	r0, #0
	...
