ARM GAS  /tmp/ccBzguIc.s 			page 1


   1              		.syntax unified
   2              		.cpu cortex-m3
   3              		.fpu softvfp
   4              		.eabi_attribute 20, 1
   5              		.eabi_attribute 21, 1
   6              		.eabi_attribute 23, 3
   7              		.eabi_attribute 24, 1
   8              		.eabi_attribute 25, 1
   9              		.eabi_attribute 26, 1
  10              		.eabi_attribute 30, 1
  11              		.eabi_attribute 34, 1
  12              		.eabi_attribute 18, 4
  13              		.thumb
  14              		.file	"fsmc.c"
  15              		.text
  16              	.Ltext0:
  17              		.cfi_sections	.debug_frame
  18              		.section	.text.HAL_FSMC_MspInit,"ax",%progbits
  19              		.align	2
  20              		.thumb
  21              		.thumb_func
  23              	HAL_FSMC_MspInit:
  24              	.LFB64:
  25              		.file 1 "Core/Src/fsmc.c"
   1:Core/Src/fsmc.c **** /**
   2:Core/Src/fsmc.c ****   ******************************************************************************
   3:Core/Src/fsmc.c ****   * File Name          : FSMC.c
   4:Core/Src/fsmc.c ****   * Description        : This file provides code for the configuration
   5:Core/Src/fsmc.c ****   *                      of the FSMC peripheral.
   6:Core/Src/fsmc.c ****   ******************************************************************************
   7:Core/Src/fsmc.c ****   ** This notice applies to any and all portions of this file
   8:Core/Src/fsmc.c ****   * that are not between comment pairs USER CODE BEGIN and
   9:Core/Src/fsmc.c ****   * USER CODE END. Other portions of this file, whether 
  10:Core/Src/fsmc.c ****   * inserted by the user or by software development tools
  11:Core/Src/fsmc.c ****   * are owned by their respective copyright owners.
  12:Core/Src/fsmc.c ****   *
  13:Core/Src/fsmc.c ****   * COPYRIGHT(c) 2018 STMicroelectronics
  14:Core/Src/fsmc.c ****   *
  15:Core/Src/fsmc.c ****   * Redistribution and use in source and binary forms, with or without modification,
  16:Core/Src/fsmc.c ****   * are permitted provided that the following conditions are met:
  17:Core/Src/fsmc.c ****   *   1. Redistributions of source code must retain the above copyright notice,
  18:Core/Src/fsmc.c ****   *      this list of conditions and the following disclaimer.
  19:Core/Src/fsmc.c ****   *   2. Redistributions in binary form must reproduce the above copyright notice,
  20:Core/Src/fsmc.c ****   *      this list of conditions and the following disclaimer in the documentation
  21:Core/Src/fsmc.c ****   *      and/or other materials provided with the distribution.
  22:Core/Src/fsmc.c ****   *   3. Neither the name of STMicroelectronics nor the names of its contributors
  23:Core/Src/fsmc.c ****   *      may be used to endorse or promote products derived from this software
  24:Core/Src/fsmc.c ****   *      without specific prior written permission.
  25:Core/Src/fsmc.c ****   *
  26:Core/Src/fsmc.c ****   * THIS SOFTWARE IS PROVIDED BY THE COPYRIGHT HOLDERS AND CONTRIBUTORS "AS IS"
  27:Core/Src/fsmc.c ****   * AND ANY EXPRESS OR IMPLIED WARRANTIES, INCLUDING, BUT NOT LIMITED TO, THE
  28:Core/Src/fsmc.c ****   * IMPLIED WARRANTIES OF MERCHANTABILITY AND FITNESS FOR A PARTICULAR PURPOSE ARE
  29:Core/Src/fsmc.c ****   * DISCLAIMED. IN NO EVENT SHALL THE COPYRIGHT HOLDER OR CONTRIBUTORS BE LIABLE
  30:Core/Src/fsmc.c ****   * FOR ANY DIRECT, INDIRECT, INCIDENTAL, SPECIAL, EXEMPLARY, OR CONSEQUENTIAL
  31:Core/Src/fsmc.c ****   * DAMAGES (INCLUDING, BUT NOT LIMITED TO, PROCUREMENT OF SUBSTITUTE GOODS OR
  32:Core/Src/fsmc.c ****   * SERVICES; LOSS OF USE, DATA, OR PROFITS; OR BUSINESS INTERRUPTION) HOWEVER
  33:Core/Src/fsmc.c ****   * CAUSED AND ON ANY THEORY OF LIABILITY, WHETHER IN CONTRACT, STRICT LIABILITY,
ARM GAS  /tmp/ccBzguIc.s 			page 2


  34:Core/Src/fsmc.c ****   * OR TORT (INCLUDING NEGLIGENCE OR OTHERWISE) ARISING IN ANY WAY OUT OF THE USE
  35:Core/Src/fsmc.c ****   * OF THIS SOFTWARE, EVEN IF ADVISED OF THE POSSIBILITY OF SUCH DAMAGE.
  36:Core/Src/fsmc.c ****   *
  37:Core/Src/fsmc.c ****   ******************************************************************************
  38:Core/Src/fsmc.c ****   */
  39:Core/Src/fsmc.c **** /* Includes ------------------------------------------------------------------*/
  40:Core/Src/fsmc.c **** #include "fsmc.h"
  41:Core/Src/fsmc.c **** 
  42:Core/Src/fsmc.c **** /* USER CODE BEGIN 0 */
  43:Core/Src/fsmc.c **** 
  44:Core/Src/fsmc.c **** /* USER CODE END 0 */
  45:Core/Src/fsmc.c **** 
  46:Core/Src/fsmc.c **** SRAM_HandleTypeDef hsram1;
  47:Core/Src/fsmc.c **** 
  48:Core/Src/fsmc.c **** /* FSMC initialization function */
  49:Core/Src/fsmc.c **** void MX_FSMC_Init(void)
  50:Core/Src/fsmc.c **** {
  51:Core/Src/fsmc.c ****   FSMC_NORSRAM_TimingTypeDef Timing;
  52:Core/Src/fsmc.c **** 
  53:Core/Src/fsmc.c ****   /** Perform the SRAM1 memory initialization sequence
  54:Core/Src/fsmc.c ****   */
  55:Core/Src/fsmc.c ****   hsram1.Instance = FSMC_NORSRAM_DEVICE;
  56:Core/Src/fsmc.c ****   hsram1.Extended = FSMC_NORSRAM_EXTENDED_DEVICE;
  57:Core/Src/fsmc.c ****   /* hsram1.Init */
  58:Core/Src/fsmc.c ****   hsram1.Init.NSBank = FSMC_NORSRAM_BANK1;
  59:Core/Src/fsmc.c ****   hsram1.Init.DataAddressMux = FSMC_DATA_ADDRESS_MUX_DISABLE;
  60:Core/Src/fsmc.c ****   hsram1.Init.MemoryType = FSMC_MEMORY_TYPE_SRAM;
  61:Core/Src/fsmc.c ****   hsram1.Init.MemoryDataWidth = FSMC_NORSRAM_MEM_BUS_WIDTH_16;
  62:Core/Src/fsmc.c ****   hsram1.Init.BurstAccessMode = FSMC_BURST_ACCESS_MODE_DISABLE;
  63:Core/Src/fsmc.c ****   hsram1.Init.WaitSignalPolarity = FSMC_WAIT_SIGNAL_POLARITY_LOW;
  64:Core/Src/fsmc.c ****   hsram1.Init.WrapMode = FSMC_WRAP_MODE_DISABLE;
  65:Core/Src/fsmc.c ****   hsram1.Init.WaitSignalActive = FSMC_WAIT_TIMING_BEFORE_WS;
  66:Core/Src/fsmc.c ****   hsram1.Init.WriteOperation = FSMC_WRITE_OPERATION_ENABLE;
  67:Core/Src/fsmc.c ****   hsram1.Init.WaitSignal = FSMC_WAIT_SIGNAL_DISABLE;
  68:Core/Src/fsmc.c ****   hsram1.Init.ExtendedMode = FSMC_EXTENDED_MODE_DISABLE;
  69:Core/Src/fsmc.c ****   hsram1.Init.AsynchronousWait = FSMC_ASYNCHRONOUS_WAIT_DISABLE;
  70:Core/Src/fsmc.c ****   hsram1.Init.WriteBurst = FSMC_WRITE_BURST_DISABLE;
  71:Core/Src/fsmc.c ****   /* Timing */
  72:Core/Src/fsmc.c ****   Timing.AddressSetupTime = 0x02;
  73:Core/Src/fsmc.c ****   Timing.AddressHoldTime = 0x00;
  74:Core/Src/fsmc.c ****   Timing.DataSetupTime = 0x05;
  75:Core/Src/fsmc.c ****   Timing.BusTurnAroundDuration = 0x00;
  76:Core/Src/fsmc.c ****   Timing.CLKDivision = 0x00;
  77:Core/Src/fsmc.c ****   Timing.DataLatency = 0x00;
  78:Core/Src/fsmc.c ****   Timing.AccessMode = FSMC_ACCESS_MODE_A;
  79:Core/Src/fsmc.c ****   /* ExtTiming */
  80:Core/Src/fsmc.c **** 
  81:Core/Src/fsmc.c ****   if (HAL_SRAM_Init(&hsram1, &Timing, NULL) != HAL_OK)
  82:Core/Src/fsmc.c ****   {
  83:Core/Src/fsmc.c ****     Error_Handler( );
  84:Core/Src/fsmc.c ****   }
  85:Core/Src/fsmc.c **** 
  86:Core/Src/fsmc.c ****   /** Disconnect NADV
  87:Core/Src/fsmc.c ****   */
  88:Core/Src/fsmc.c **** 
  89:Core/Src/fsmc.c ****   __HAL_AFIO_FSMCNADV_DISCONNECTED();
  90:Core/Src/fsmc.c **** 
ARM GAS  /tmp/ccBzguIc.s 			page 3


  91:Core/Src/fsmc.c **** }
  92:Core/Src/fsmc.c **** 
  93:Core/Src/fsmc.c **** static uint32_t FSMC_Initialized = 0;
  94:Core/Src/fsmc.c **** 
  95:Core/Src/fsmc.c **** static void HAL_FSMC_MspInit(void){
  26              		.loc 1 95 0
  27              		.cfi_startproc
  28              		@ args = 0, pretend = 0, frame = 24
  29              		@ frame_needed = 0, uses_anonymous_args = 0
  96:Core/Src/fsmc.c ****   /* USER CODE BEGIN FSMC_MspInit 0 */
  97:Core/Src/fsmc.c **** 
  98:Core/Src/fsmc.c ****   /* USER CODE END FSMC_MspInit 0 */
  99:Core/Src/fsmc.c ****   GPIO_InitTypeDef GPIO_InitStruct;
 100:Core/Src/fsmc.c ****   if (FSMC_Initialized) {
  30              		.loc 1 100 0
  31 0000 144B     		ldr	r3, .L6
  32 0002 1B68     		ldr	r3, [r3]
  33 0004 23BB     		cbnz	r3, .L5
  95:Core/Src/fsmc.c ****   /* USER CODE BEGIN FSMC_MspInit 0 */
  34              		.loc 1 95 0
  35 0006 30B5     		push	{r4, r5, lr}
  36              	.LCFI0:
  37              		.cfi_def_cfa_offset 12
  38              		.cfi_offset 4, -12
  39              		.cfi_offset 5, -8
  40              		.cfi_offset 14, -4
  41 0008 87B0     		sub	sp, sp, #28
  42              	.LCFI1:
  43              		.cfi_def_cfa_offset 40
 101:Core/Src/fsmc.c ****     return;
 102:Core/Src/fsmc.c ****   }
 103:Core/Src/fsmc.c ****   FSMC_Initialized = 1;
  44              		.loc 1 103 0
  45 000a 0122     		movs	r2, #1
  46 000c 114B     		ldr	r3, .L6
  47 000e 1A60     		str	r2, [r3]
  48              	.LBB2:
 104:Core/Src/fsmc.c ****   /* Peripheral clock enable */
 105:Core/Src/fsmc.c ****   __HAL_RCC_FSMC_CLK_ENABLE();
  49              		.loc 1 105 0
  50 0010 114B     		ldr	r3, .L6+4
  51 0012 5A69     		ldr	r2, [r3, #20]
  52 0014 42F48072 		orr	r2, r2, #256
  53 0018 5A61     		str	r2, [r3, #20]
  54 001a 5B69     		ldr	r3, [r3, #20]
  55 001c 03F48073 		and	r3, r3, #256
  56 0020 0193     		str	r3, [sp, #4]
  57 0022 019B     		ldr	r3, [sp, #4]
  58              	.LBE2:
 106:Core/Src/fsmc.c ****   
 107:Core/Src/fsmc.c ****   /** FSMC GPIO Configuration  
 108:Core/Src/fsmc.c ****   PE7   ------> FSMC_D4
 109:Core/Src/fsmc.c ****   PE8   ------> FSMC_D5
 110:Core/Src/fsmc.c ****   PE9   ------> FSMC_D6
 111:Core/Src/fsmc.c ****   PE10   ------> FSMC_D7
 112:Core/Src/fsmc.c ****   PE11   ------> FSMC_D8
 113:Core/Src/fsmc.c ****   PE12   ------> FSMC_D9
ARM GAS  /tmp/ccBzguIc.s 			page 4


 114:Core/Src/fsmc.c ****   PE13   ------> FSMC_D10
 115:Core/Src/fsmc.c ****   PE14   ------> FSMC_D11
 116:Core/Src/fsmc.c ****   PE15   ------> FSMC_D12
 117:Core/Src/fsmc.c ****   PD8   ------> FSMC_D13
 118:Core/Src/fsmc.c ****   PD9   ------> FSMC_D14
 119:Core/Src/fsmc.c ****   PD10   ------> FSMC_D15
 120:Core/Src/fsmc.c ****   PD11   ------> FSMC_A16
 121:Core/Src/fsmc.c ****   PD14   ------> FSMC_D0
 122:Core/Src/fsmc.c ****   PD15   ------> FSMC_D1
 123:Core/Src/fsmc.c ****   PD0   ------> FSMC_D2
 124:Core/Src/fsmc.c ****   PD1   ------> FSMC_D3
 125:Core/Src/fsmc.c ****   PD4   ------> FSMC_NOE
 126:Core/Src/fsmc.c ****   PD5   ------> FSMC_NWE
 127:Core/Src/fsmc.c ****   PD7   ------> FSMC_NE1
 128:Core/Src/fsmc.c ****   */
 129:Core/Src/fsmc.c ****   /* GPIO_InitStruct */
 130:Core/Src/fsmc.c ****   GPIO_InitStruct.Pin = GPIO_PIN_7|GPIO_PIN_8|GPIO_PIN_9|GPIO_PIN_10 
  59              		.loc 1 130 0
  60 0024 4FF68073 		movw	r3, #65408
  61 0028 0293     		str	r3, [sp, #8]
 131:Core/Src/fsmc.c ****                           |GPIO_PIN_11|GPIO_PIN_12|GPIO_PIN_13|GPIO_PIN_14 
 132:Core/Src/fsmc.c ****                           |GPIO_PIN_15;
 133:Core/Src/fsmc.c ****   GPIO_InitStruct.Mode = GPIO_MODE_AF_PP;
  62              		.loc 1 133 0
  63 002a 0225     		movs	r5, #2
  64 002c 0395     		str	r5, [sp, #12]
 134:Core/Src/fsmc.c ****   GPIO_InitStruct.Speed = GPIO_SPEED_FREQ_HIGH;
  65              		.loc 1 134 0
  66 002e 0324     		movs	r4, #3
  67 0030 0594     		str	r4, [sp, #20]
 135:Core/Src/fsmc.c **** 
 136:Core/Src/fsmc.c ****   HAL_GPIO_Init(GPIOE, &GPIO_InitStruct);
  68              		.loc 1 136 0
  69 0032 0A48     		ldr	r0, .L6+8
  70 0034 02A9     		add	r1, sp, #8
  71 0036 FFF7FEFF 		bl	HAL_GPIO_Init
  72              	.LVL0:
 137:Core/Src/fsmc.c **** 
 138:Core/Src/fsmc.c ****   /* GPIO_InitStruct */
 139:Core/Src/fsmc.c ****   GPIO_InitStruct.Pin = GPIO_PIN_8|GPIO_PIN_9|GPIO_PIN_10|GPIO_PIN_11 
  73              		.loc 1 139 0
  74 003a 4CF6B373 		movw	r3, #53171
  75 003e 0293     		str	r3, [sp, #8]
 140:Core/Src/fsmc.c ****                           |GPIO_PIN_14|GPIO_PIN_15|GPIO_PIN_0|GPIO_PIN_1 
 141:Core/Src/fsmc.c ****                           |GPIO_PIN_4|GPIO_PIN_5|GPIO_PIN_7;
 142:Core/Src/fsmc.c ****   GPIO_InitStruct.Mode = GPIO_MODE_AF_PP;
  76              		.loc 1 142 0
  77 0040 0395     		str	r5, [sp, #12]
 143:Core/Src/fsmc.c ****   GPIO_InitStruct.Speed = GPIO_SPEED_FREQ_HIGH;
  78              		.loc 1 143 0
  79 0042 0594     		str	r4, [sp, #20]
 144:Core/Src/fsmc.c **** 
 145:Core/Src/fsmc.c ****   HAL_GPIO_Init(GPIOD, &GPIO_InitStruct);
  80              		.loc 1 145 0
  81 0044 0648     		ldr	r0, .L6+12
  82 0046 02A9     		add	r1, sp, #8
  83 0048 FFF7FEFF 		bl	HAL_GPIO_Init
ARM GAS  /tmp/ccBzguIc.s 			page 5


  84              	.LVL1:
 146:Core/Src/fsmc.c **** 
 147:Core/Src/fsmc.c ****   /* USER CODE BEGIN FSMC_MspInit 1 */
 148:Core/Src/fsmc.c **** 
 149:Core/Src/fsmc.c ****   /* USER CODE END FSMC_MspInit 1 */
 150:Core/Src/fsmc.c **** }
  85              		.loc 1 150 0
  86 004c 07B0     		add	sp, sp, #28
  87              	.LCFI2:
  88              		.cfi_def_cfa_offset 12
  89              		@ sp needed
  90 004e 30BD     		pop	{r4, r5, pc}
  91              	.L5:
  92              	.LCFI3:
  93              		.cfi_def_cfa_offset 0
  94              		.cfi_restore 4
  95              		.cfi_restore 5
  96              		.cfi_restore 14
  97 0050 7047     		bx	lr
  98              	.L7:
  99 0052 00BF     		.align	2
 100              	.L6:
 101 0054 00000000 		.word	.LANCHOR0
 102 0058 00100240 		.word	1073876992
 103 005c 00180140 		.word	1073813504
 104 0060 00140140 		.word	1073812480
 105              		.cfi_endproc
 106              	.LFE64:
 108              		.section	.text.HAL_FSMC_MspDeInit,"ax",%progbits
 109              		.align	2
 110              		.thumb
 111              		.thumb_func
 113              	HAL_FSMC_MspDeInit:
 114              	.LFB66:
 151:Core/Src/fsmc.c **** 
 152:Core/Src/fsmc.c **** void HAL_SRAM_MspInit(SRAM_HandleTypeDef* sramHandle){
 153:Core/Src/fsmc.c ****   /* USER CODE BEGIN SRAM_MspInit 0 */
 154:Core/Src/fsmc.c **** 
 155:Core/Src/fsmc.c ****   /* USER CODE END SRAM_MspInit 0 */
 156:Core/Src/fsmc.c ****   HAL_FSMC_MspInit();
 157:Core/Src/fsmc.c ****   /* USER CODE BEGIN SRAM_MspInit 1 */
 158:Core/Src/fsmc.c **** 
 159:Core/Src/fsmc.c ****   /* USER CODE END SRAM_MspInit 1 */
 160:Core/Src/fsmc.c **** }
 161:Core/Src/fsmc.c **** 
 162:Core/Src/fsmc.c **** static uint32_t FSMC_DeInitialized = 0;
 163:Core/Src/fsmc.c **** 
 164:Core/Src/fsmc.c **** static void HAL_FSMC_MspDeInit(void){
 115              		.loc 1 164 0
 116              		.cfi_startproc
 117              		@ args = 0, pretend = 0, frame = 0
 118              		@ frame_needed = 0, uses_anonymous_args = 0
 119 0000 08B5     		push	{r3, lr}
 120              	.LCFI4:
 121              		.cfi_def_cfa_offset 8
 122              		.cfi_offset 3, -8
 123              		.cfi_offset 14, -4
ARM GAS  /tmp/ccBzguIc.s 			page 6


 165:Core/Src/fsmc.c ****   /* USER CODE BEGIN FSMC_MspDeInit 0 */
 166:Core/Src/fsmc.c **** 
 167:Core/Src/fsmc.c ****   /* USER CODE END FSMC_MspDeInit 0 */
 168:Core/Src/fsmc.c ****   if (FSMC_DeInitialized) {
 124              		.loc 1 168 0
 125 0002 0B4B     		ldr	r3, .L11
 126 0004 1B68     		ldr	r3, [r3]
 127 0006 8BB9     		cbnz	r3, .L8
 169:Core/Src/fsmc.c ****     return;
 170:Core/Src/fsmc.c ****   }
 171:Core/Src/fsmc.c ****   FSMC_DeInitialized = 1;
 128              		.loc 1 171 0
 129 0008 0122     		movs	r2, #1
 130 000a 094B     		ldr	r3, .L11
 131 000c 1A60     		str	r2, [r3]
 172:Core/Src/fsmc.c ****   /* Peripheral clock enable */
 173:Core/Src/fsmc.c ****   __HAL_RCC_FSMC_CLK_DISABLE();
 132              		.loc 1 173 0
 133 000e 094A     		ldr	r2, .L11+4
 134 0010 5369     		ldr	r3, [r2, #20]
 135 0012 23F48073 		bic	r3, r3, #256
 136 0016 5361     		str	r3, [r2, #20]
 174:Core/Src/fsmc.c ****   
 175:Core/Src/fsmc.c ****   /** FSMC GPIO Configuration  
 176:Core/Src/fsmc.c ****   PE7   ------> FSMC_D4
 177:Core/Src/fsmc.c ****   PE8   ------> FSMC_D5
 178:Core/Src/fsmc.c ****   PE9   ------> FSMC_D6
 179:Core/Src/fsmc.c ****   PE10   ------> FSMC_D7
 180:Core/Src/fsmc.c ****   PE11   ------> FSMC_D8
 181:Core/Src/fsmc.c ****   PE12   ------> FSMC_D9
 182:Core/Src/fsmc.c ****   PE13   ------> FSMC_D10
 183:Core/Src/fsmc.c ****   PE14   ------> FSMC_D11
 184:Core/Src/fsmc.c ****   PE15   ------> FSMC_D12
 185:Core/Src/fsmc.c ****   PD8   ------> FSMC_D13
 186:Core/Src/fsmc.c ****   PD9   ------> FSMC_D14
 187:Core/Src/fsmc.c ****   PD10   ------> FSMC_D15
 188:Core/Src/fsmc.c ****   PD11   ------> FSMC_A16
 189:Core/Src/fsmc.c ****   PD14   ------> FSMC_D0
 190:Core/Src/fsmc.c ****   PD15   ------> FSMC_D1
 191:Core/Src/fsmc.c ****   PD0   ------> FSMC_D2
 192:Core/Src/fsmc.c ****   PD1   ------> FSMC_D3
 193:Core/Src/fsmc.c ****   PD4   ------> FSMC_NOE
 194:Core/Src/fsmc.c ****   PD5   ------> FSMC_NWE
 195:Core/Src/fsmc.c ****   PD7   ------> FSMC_NE1
 196:Core/Src/fsmc.c ****   */
 197:Core/Src/fsmc.c **** 
 198:Core/Src/fsmc.c ****   HAL_GPIO_DeInit(GPIOE, GPIO_PIN_7|GPIO_PIN_8|GPIO_PIN_9|GPIO_PIN_10 
 137              		.loc 1 198 0
 138 0018 0748     		ldr	r0, .L11+8
 139 001a 4FF68071 		movw	r1, #65408
 140 001e FFF7FEFF 		bl	HAL_GPIO_DeInit
 141              	.LVL2:
 199:Core/Src/fsmc.c ****                           |GPIO_PIN_11|GPIO_PIN_12|GPIO_PIN_13|GPIO_PIN_14 
 200:Core/Src/fsmc.c ****                           |GPIO_PIN_15);
 201:Core/Src/fsmc.c **** 
 202:Core/Src/fsmc.c ****   HAL_GPIO_DeInit(GPIOD, GPIO_PIN_8|GPIO_PIN_9|GPIO_PIN_10|GPIO_PIN_11 
 142              		.loc 1 202 0
ARM GAS  /tmp/ccBzguIc.s 			page 7


 143 0022 0648     		ldr	r0, .L11+12
 144 0024 4CF6B371 		movw	r1, #53171
 145 0028 FFF7FEFF 		bl	HAL_GPIO_DeInit
 146              	.LVL3:
 147              	.L8:
 148 002c 08BD     		pop	{r3, pc}
 149              	.L12:
 150 002e 00BF     		.align	2
 151              	.L11:
 152 0030 00000000 		.word	.LANCHOR1
 153 0034 00100240 		.word	1073876992
 154 0038 00180140 		.word	1073813504
 155 003c 00140140 		.word	1073812480
 156              		.cfi_endproc
 157              	.LFE66:
 159              		.section	.text.MX_FSMC_Init,"ax",%progbits
 160              		.align	2
 161              		.global	MX_FSMC_Init
 162              		.thumb
 163              		.thumb_func
 165              	MX_FSMC_Init:
 166              	.LFB63:
  50:Core/Src/fsmc.c ****   FSMC_NORSRAM_TimingTypeDef Timing;
 167              		.loc 1 50 0
 168              		.cfi_startproc
 169              		@ args = 0, pretend = 0, frame = 32
 170              		@ frame_needed = 0, uses_anonymous_args = 0
 171 0000 00B5     		push	{lr}
 172              	.LCFI5:
 173              		.cfi_def_cfa_offset 4
 174              		.cfi_offset 14, -4
 175 0002 89B0     		sub	sp, sp, #36
 176              	.LCFI6:
 177              		.cfi_def_cfa_offset 40
  55:Core/Src/fsmc.c ****   hsram1.Extended = FSMC_NORSRAM_EXTENDED_DEVICE;
 178              		.loc 1 55 0
 179 0004 1748     		ldr	r0, .L16
 180 0006 4FF02043 		mov	r3, #-1610612736
 181 000a 0360     		str	r3, [r0]
  56:Core/Src/fsmc.c ****   /* hsram1.Init */
 182              		.loc 1 56 0
 183 000c 03F58273 		add	r3, r3, #260
 184 0010 4360     		str	r3, [r0, #4]
  58:Core/Src/fsmc.c ****   hsram1.Init.DataAddressMux = FSMC_DATA_ADDRESS_MUX_DISABLE;
 185              		.loc 1 58 0
 186 0012 0022     		movs	r2, #0
 187 0014 8260     		str	r2, [r0, #8]
  59:Core/Src/fsmc.c ****   hsram1.Init.MemoryType = FSMC_MEMORY_TYPE_SRAM;
 188              		.loc 1 59 0
 189 0016 C260     		str	r2, [r0, #12]
  60:Core/Src/fsmc.c ****   hsram1.Init.MemoryDataWidth = FSMC_NORSRAM_MEM_BUS_WIDTH_16;
 190              		.loc 1 60 0
 191 0018 0261     		str	r2, [r0, #16]
  61:Core/Src/fsmc.c ****   hsram1.Init.BurstAccessMode = FSMC_BURST_ACCESS_MODE_DISABLE;
 192              		.loc 1 61 0
 193 001a 1023     		movs	r3, #16
 194 001c 4361     		str	r3, [r0, #20]
ARM GAS  /tmp/ccBzguIc.s 			page 8


  62:Core/Src/fsmc.c ****   hsram1.Init.WaitSignalPolarity = FSMC_WAIT_SIGNAL_POLARITY_LOW;
 195              		.loc 1 62 0
 196 001e 8261     		str	r2, [r0, #24]
  63:Core/Src/fsmc.c ****   hsram1.Init.WrapMode = FSMC_WRAP_MODE_DISABLE;
 197              		.loc 1 63 0
 198 0020 C261     		str	r2, [r0, #28]
  64:Core/Src/fsmc.c ****   hsram1.Init.WaitSignalActive = FSMC_WAIT_TIMING_BEFORE_WS;
 199              		.loc 1 64 0
 200 0022 0262     		str	r2, [r0, #32]
  65:Core/Src/fsmc.c ****   hsram1.Init.WriteOperation = FSMC_WRITE_OPERATION_ENABLE;
 201              		.loc 1 65 0
 202 0024 4262     		str	r2, [r0, #36]
  66:Core/Src/fsmc.c ****   hsram1.Init.WaitSignal = FSMC_WAIT_SIGNAL_DISABLE;
 203              		.loc 1 66 0
 204 0026 4FF48053 		mov	r3, #4096
 205 002a 8362     		str	r3, [r0, #40]
  67:Core/Src/fsmc.c ****   hsram1.Init.ExtendedMode = FSMC_EXTENDED_MODE_DISABLE;
 206              		.loc 1 67 0
 207 002c C262     		str	r2, [r0, #44]
  68:Core/Src/fsmc.c ****   hsram1.Init.AsynchronousWait = FSMC_ASYNCHRONOUS_WAIT_DISABLE;
 208              		.loc 1 68 0
 209 002e 0263     		str	r2, [r0, #48]
  69:Core/Src/fsmc.c ****   hsram1.Init.WriteBurst = FSMC_WRITE_BURST_DISABLE;
 210              		.loc 1 69 0
 211 0030 4263     		str	r2, [r0, #52]
  70:Core/Src/fsmc.c ****   /* Timing */
 212              		.loc 1 70 0
 213 0032 8263     		str	r2, [r0, #56]
  72:Core/Src/fsmc.c ****   Timing.AddressHoldTime = 0x00;
 214              		.loc 1 72 0
 215 0034 0223     		movs	r3, #2
 216 0036 0193     		str	r3, [sp, #4]
  73:Core/Src/fsmc.c ****   Timing.DataSetupTime = 0x05;
 217              		.loc 1 73 0
 218 0038 0292     		str	r2, [sp, #8]
  74:Core/Src/fsmc.c ****   Timing.BusTurnAroundDuration = 0x00;
 219              		.loc 1 74 0
 220 003a 0523     		movs	r3, #5
 221 003c 0393     		str	r3, [sp, #12]
  75:Core/Src/fsmc.c ****   Timing.CLKDivision = 0x00;
 222              		.loc 1 75 0
 223 003e 0492     		str	r2, [sp, #16]
  76:Core/Src/fsmc.c ****   Timing.DataLatency = 0x00;
 224              		.loc 1 76 0
 225 0040 0592     		str	r2, [sp, #20]
  77:Core/Src/fsmc.c ****   Timing.AccessMode = FSMC_ACCESS_MODE_A;
 226              		.loc 1 77 0
 227 0042 0692     		str	r2, [sp, #24]
  78:Core/Src/fsmc.c ****   /* ExtTiming */
 228              		.loc 1 78 0
 229 0044 0792     		str	r2, [sp, #28]
  81:Core/Src/fsmc.c ****   {
 230              		.loc 1 81 0
 231 0046 01A9     		add	r1, sp, #4
 232 0048 FFF7FEFF 		bl	HAL_SRAM_Init
 233              	.LVL4:
 234 004c 08B1     		cbz	r0, .L14
ARM GAS  /tmp/ccBzguIc.s 			page 9


  83:Core/Src/fsmc.c ****   }
 235              		.loc 1 83 0
 236 004e FFF7FEFF 		bl	Error_Handler
 237              	.LVL5:
 238              	.L14:
  89:Core/Src/fsmc.c **** 
 239              		.loc 1 89 0
 240 0052 054A     		ldr	r2, .L16+4
 241 0054 D369     		ldr	r3, [r2, #28]
 242 0056 43F48063 		orr	r3, r3, #1024
 243 005a D361     		str	r3, [r2, #28]
  91:Core/Src/fsmc.c **** 
 244              		.loc 1 91 0
 245 005c 09B0     		add	sp, sp, #36
 246              	.LCFI7:
 247              		.cfi_def_cfa_offset 4
 248              		@ sp needed
 249 005e 5DF804FB 		ldr	pc, [sp], #4
 250              	.L17:
 251 0062 00BF     		.align	2
 252              	.L16:
 253 0064 00000000 		.word	hsram1
 254 0068 00000140 		.word	1073807360
 255              		.cfi_endproc
 256              	.LFE63:
 258              		.section	.text.HAL_SRAM_MspInit,"ax",%progbits
 259              		.align	2
 260              		.global	HAL_SRAM_MspInit
 261              		.thumb
 262              		.thumb_func
 264              	HAL_SRAM_MspInit:
 265              	.LFB65:
 152:Core/Src/fsmc.c ****   /* USER CODE BEGIN SRAM_MspInit 0 */
 266              		.loc 1 152 0
 267              		.cfi_startproc
 268              		@ args = 0, pretend = 0, frame = 0
 269              		@ frame_needed = 0, uses_anonymous_args = 0
 270              	.LVL6:
 271 0000 08B5     		push	{r3, lr}
 272              	.LCFI8:
 273              		.cfi_def_cfa_offset 8
 274              		.cfi_offset 3, -8
 275              		.cfi_offset 14, -4
 156:Core/Src/fsmc.c ****   /* USER CODE BEGIN SRAM_MspInit 1 */
 276              		.loc 1 156 0
 277 0002 FFF7FEFF 		bl	HAL_FSMC_MspInit
 278              	.LVL7:
 279 0006 08BD     		pop	{r3, pc}
 280              		.cfi_endproc
 281              	.LFE65:
 283              		.section	.text.HAL_SRAM_MspDeInit,"ax",%progbits
 284              		.align	2
 285              		.global	HAL_SRAM_MspDeInit
 286              		.thumb
 287              		.thumb_func
 289              	HAL_SRAM_MspDeInit:
 290              	.LFB67:
ARM GAS  /tmp/ccBzguIc.s 			page 10


 203:Core/Src/fsmc.c ****                           |GPIO_PIN_14|GPIO_PIN_15|GPIO_PIN_0|GPIO_PIN_1 
 204:Core/Src/fsmc.c ****                           |GPIO_PIN_4|GPIO_PIN_5|GPIO_PIN_7);
 205:Core/Src/fsmc.c **** 
 206:Core/Src/fsmc.c ****   /* USER CODE BEGIN FSMC_MspDeInit 1 */
 207:Core/Src/fsmc.c **** 
 208:Core/Src/fsmc.c ****   /* USER CODE END FSMC_MspDeInit 1 */
 209:Core/Src/fsmc.c **** }
 210:Core/Src/fsmc.c **** 
 211:Core/Src/fsmc.c **** void HAL_SRAM_MspDeInit(SRAM_HandleTypeDef* sramHandle){
 291              		.loc 1 211 0
 292              		.cfi_startproc
 293              		@ args = 0, pretend = 0, frame = 0
 294              		@ frame_needed = 0, uses_anonymous_args = 0
 295              	.LVL8:
 296 0000 08B5     		push	{r3, lr}
 297              	.LCFI9:
 298              		.cfi_def_cfa_offset 8
 299              		.cfi_offset 3, -8
 300              		.cfi_offset 14, -4
 212:Core/Src/fsmc.c ****   /* USER CODE BEGIN SRAM_MspDeInit 0 */
 213:Core/Src/fsmc.c **** 
 214:Core/Src/fsmc.c ****   /* USER CODE END SRAM_MspDeInit 0 */
 215:Core/Src/fsmc.c ****   HAL_FSMC_MspDeInit();
 301              		.loc 1 215 0
 302 0002 FFF7FEFF 		bl	HAL_FSMC_MspDeInit
 303              	.LVL9:
 304 0006 08BD     		pop	{r3, pc}
 305              		.cfi_endproc
 306              	.LFE67:
 308              		.comm	hsram1,68,4
 309              		.section	.bss.FSMC_DeInitialized,"aw",%nobits
 310              		.align	2
 311              		.set	.LANCHOR1,. + 0
 314              	FSMC_DeInitialized:
 315 0000 00000000 		.space	4
 316              		.section	.bss.FSMC_Initialized,"aw",%nobits
 317              		.align	2
 318              		.set	.LANCHOR0,. + 0
 321              	FSMC_Initialized:
 322 0000 00000000 		.space	4
 323              		.text
 324              	.Letext0:
 325              		.file 2 "/opt/gcc-arm-none-eabi-4_9-2015q3/arm-none-eabi/include/machine/_default_types.h"
 326              		.file 3 "/opt/gcc-arm-none-eabi-4_9-2015q3/arm-none-eabi/include/sys/_stdint.h"
 327              		.file 4 "Drivers/CMSIS/Device/ST/STM32F1xx/Include/stm32f103xe.h"
 328              		.file 5 "Drivers/STM32F1xx_HAL_Driver/Inc/stm32f1xx_hal_def.h"
 329              		.file 6 "Drivers/STM32F1xx_HAL_Driver/Inc/stm32f1xx_hal_gpio.h"
 330              		.file 7 "Drivers/STM32F1xx_HAL_Driver/Inc/stm32f1xx_hal_dma.h"
 331              		.file 8 "Drivers/STM32F1xx_HAL_Driver/Inc/stm32f1xx_ll_fsmc.h"
 332              		.file 9 "Drivers/STM32F1xx_HAL_Driver/Inc/stm32f1xx_hal_sram.h"
 333              		.file 10 "Drivers/CMSIS/Include/core_cm3.h"
 334              		.file 11 "Core/Inc/main.h"
ARM GAS  /tmp/ccBzguIc.s 			page 11

