ARM GAS  /tmp/ccBn9PL3.s 			page 1


   1              		.syntax unified
   2              		.cpu cortex-m3
   3              		.fpu softvfp
   4              		.eabi_attribute 20, 1
   5              		.eabi_attribute 21, 1
   6              		.eabi_attribute 23, 3
   7              		.eabi_attribute 24, 1
   8              		.eabi_attribute 25, 1
   9              		.eabi_attribute 26, 1
  10              		.eabi_attribute 30, 1
  11              		.eabi_attribute 34, 1
  12              		.eabi_attribute 18, 4
  13              		.thumb
  14              		.file	"stm32f1xx_ll_sdmmc.c"
  15              		.text
  16              	.Ltext0:
  17              		.cfi_sections	.debug_frame
  18              		.section	.text.SDMMC_GetCmdError,"ax",%progbits
  19              		.align	2
  20              		.thumb
  21              		.thumb_func
  23              	SDMMC_GetCmdError:
  24              	.LFB101:
  25              		.file 1 "Drivers/STM32F1xx_HAL_Driver/Src/stm32f1xx_ll_sdmmc.c"
   1:Drivers/STM32F1xx_HAL_Driver/Src/stm32f1xx_ll_sdmmc.c **** /**
   2:Drivers/STM32F1xx_HAL_Driver/Src/stm32f1xx_ll_sdmmc.c ****   ******************************************************************************
   3:Drivers/STM32F1xx_HAL_Driver/Src/stm32f1xx_ll_sdmmc.c ****   * @file    stm32f1xx_ll_sdmmc.c
   4:Drivers/STM32F1xx_HAL_Driver/Src/stm32f1xx_ll_sdmmc.c ****   * @author  MCD Application Team
   5:Drivers/STM32F1xx_HAL_Driver/Src/stm32f1xx_ll_sdmmc.c ****   * @brief   SDIO Low Layer HAL module driver.
   6:Drivers/STM32F1xx_HAL_Driver/Src/stm32f1xx_ll_sdmmc.c ****   *    
   7:Drivers/STM32F1xx_HAL_Driver/Src/stm32f1xx_ll_sdmmc.c ****   *          This file provides firmware functions to manage the following 
   8:Drivers/STM32F1xx_HAL_Driver/Src/stm32f1xx_ll_sdmmc.c ****   *          functionalities of the SDIO peripheral:
   9:Drivers/STM32F1xx_HAL_Driver/Src/stm32f1xx_ll_sdmmc.c ****   *           + Initialization/de-initialization functions
  10:Drivers/STM32F1xx_HAL_Driver/Src/stm32f1xx_ll_sdmmc.c ****   *           + I/O operation functions
  11:Drivers/STM32F1xx_HAL_Driver/Src/stm32f1xx_ll_sdmmc.c ****   *           + Peripheral Control functions 
  12:Drivers/STM32F1xx_HAL_Driver/Src/stm32f1xx_ll_sdmmc.c ****   *           + Peripheral State functions
  13:Drivers/STM32F1xx_HAL_Driver/Src/stm32f1xx_ll_sdmmc.c ****   *         
  14:Drivers/STM32F1xx_HAL_Driver/Src/stm32f1xx_ll_sdmmc.c ****   @verbatim
  15:Drivers/STM32F1xx_HAL_Driver/Src/stm32f1xx_ll_sdmmc.c ****   ==============================================================================
  16:Drivers/STM32F1xx_HAL_Driver/Src/stm32f1xx_ll_sdmmc.c ****                        ##### SDMMC peripheral features #####
  17:Drivers/STM32F1xx_HAL_Driver/Src/stm32f1xx_ll_sdmmc.c ****   ==============================================================================        
  18:Drivers/STM32F1xx_HAL_Driver/Src/stm32f1xx_ll_sdmmc.c ****     [..] The SD/SDMMC MMC card host interface (SDMMC) provides an interface between the APB2
  19:Drivers/STM32F1xx_HAL_Driver/Src/stm32f1xx_ll_sdmmc.c ****          peripheral bus and MultiMedia cards (MMCs), SD memory cards, SDMMC cards and CE-ATA
  20:Drivers/STM32F1xx_HAL_Driver/Src/stm32f1xx_ll_sdmmc.c ****          devices.
  21:Drivers/STM32F1xx_HAL_Driver/Src/stm32f1xx_ll_sdmmc.c ****     
  22:Drivers/STM32F1xx_HAL_Driver/Src/stm32f1xx_ll_sdmmc.c ****     [..] The SDMMC features include the following:
  23:Drivers/STM32F1xx_HAL_Driver/Src/stm32f1xx_ll_sdmmc.c ****          (+) Full compliance with MultiMedia Card System Specification Version 4.2. Card support
  24:Drivers/STM32F1xx_HAL_Driver/Src/stm32f1xx_ll_sdmmc.c ****              for three different databus modes: 1-bit (default), 4-bit and 8-bit
  25:Drivers/STM32F1xx_HAL_Driver/Src/stm32f1xx_ll_sdmmc.c ****          (+) Full compatibility with previous versions of MultiMedia Cards (forward compatibility)
  26:Drivers/STM32F1xx_HAL_Driver/Src/stm32f1xx_ll_sdmmc.c ****          (+) Full compliance with SD Memory Card Specifications Version 2.0
  27:Drivers/STM32F1xx_HAL_Driver/Src/stm32f1xx_ll_sdmmc.c ****          (+) Full compliance with SD I/O Card Specification Version 2.0: card support for two
  28:Drivers/STM32F1xx_HAL_Driver/Src/stm32f1xx_ll_sdmmc.c ****              different data bus modes: 1-bit (default) and 4-bit
  29:Drivers/STM32F1xx_HAL_Driver/Src/stm32f1xx_ll_sdmmc.c ****          (+) Full support of the CE-ATA features (full compliance with CE-ATA digital protocol
  30:Drivers/STM32F1xx_HAL_Driver/Src/stm32f1xx_ll_sdmmc.c ****              Rev1.1)
  31:Drivers/STM32F1xx_HAL_Driver/Src/stm32f1xx_ll_sdmmc.c ****          (+) Data transfer up to 48 MHz for the 8 bit mode
  32:Drivers/STM32F1xx_HAL_Driver/Src/stm32f1xx_ll_sdmmc.c ****          (+) Data and command output enable signals to control external bidirectional drivers.
  33:Drivers/STM32F1xx_HAL_Driver/Src/stm32f1xx_ll_sdmmc.c ****                  
ARM GAS  /tmp/ccBn9PL3.s 			page 2


  34:Drivers/STM32F1xx_HAL_Driver/Src/stm32f1xx_ll_sdmmc.c ****    
  35:Drivers/STM32F1xx_HAL_Driver/Src/stm32f1xx_ll_sdmmc.c ****                            ##### How to use this driver #####
  36:Drivers/STM32F1xx_HAL_Driver/Src/stm32f1xx_ll_sdmmc.c ****   ==============================================================================
  37:Drivers/STM32F1xx_HAL_Driver/Src/stm32f1xx_ll_sdmmc.c ****     [..]
  38:Drivers/STM32F1xx_HAL_Driver/Src/stm32f1xx_ll_sdmmc.c ****       This driver is a considered as a driver of service for external devices drivers 
  39:Drivers/STM32F1xx_HAL_Driver/Src/stm32f1xx_ll_sdmmc.c ****       that interfaces with the SDMMC peripheral.
  40:Drivers/STM32F1xx_HAL_Driver/Src/stm32f1xx_ll_sdmmc.c ****       According to the device used (SD card/ MMC card / SDMMC card ...), a set of APIs 
  41:Drivers/STM32F1xx_HAL_Driver/Src/stm32f1xx_ll_sdmmc.c ****       is used in the device's driver to perform SDMMC operations and functionalities.
  42:Drivers/STM32F1xx_HAL_Driver/Src/stm32f1xx_ll_sdmmc.c ****    
  43:Drivers/STM32F1xx_HAL_Driver/Src/stm32f1xx_ll_sdmmc.c ****       This driver is almost transparent for the final user, it is only used to implement other
  44:Drivers/STM32F1xx_HAL_Driver/Src/stm32f1xx_ll_sdmmc.c ****       functionalities of the external device.
  45:Drivers/STM32F1xx_HAL_Driver/Src/stm32f1xx_ll_sdmmc.c ****    
  46:Drivers/STM32F1xx_HAL_Driver/Src/stm32f1xx_ll_sdmmc.c ****     [..]
  47:Drivers/STM32F1xx_HAL_Driver/Src/stm32f1xx_ll_sdmmc.c ****       (+) The SDIO peripheral uses two clock signals:
  48:Drivers/STM32F1xx_HAL_Driver/Src/stm32f1xx_ll_sdmmc.c ****           (++) SDIO adapter clock (SDIOCLK = HCLK)
  49:Drivers/STM32F1xx_HAL_Driver/Src/stm32f1xx_ll_sdmmc.c ****           (++) AHB bus clock (HCLK/2)
  50:Drivers/STM32F1xx_HAL_Driver/Src/stm32f1xx_ll_sdmmc.c ****        
  51:Drivers/STM32F1xx_HAL_Driver/Src/stm32f1xx_ll_sdmmc.c ****           -@@- PCLK2 and SDMMC_CK clock frequencies must respect the following condition:
  52:Drivers/STM32F1xx_HAL_Driver/Src/stm32f1xx_ll_sdmmc.c ****                Frequency(PCLK2) >= (3 / 8 x Frequency(SDMMC_CK))
  53:Drivers/STM32F1xx_HAL_Driver/Src/stm32f1xx_ll_sdmmc.c ****   
  54:Drivers/STM32F1xx_HAL_Driver/Src/stm32f1xx_ll_sdmmc.c ****       (+) Enable/Disable peripheral clock using RCC peripheral macros related to SDMMC
  55:Drivers/STM32F1xx_HAL_Driver/Src/stm32f1xx_ll_sdmmc.c ****           peripheral.
  56:Drivers/STM32F1xx_HAL_Driver/Src/stm32f1xx_ll_sdmmc.c **** 
  57:Drivers/STM32F1xx_HAL_Driver/Src/stm32f1xx_ll_sdmmc.c ****       (+) Enable the Power ON State using the SDIO_PowerState_ON(SDIOx) 
  58:Drivers/STM32F1xx_HAL_Driver/Src/stm32f1xx_ll_sdmmc.c ****           function and disable it using the function SDIO_PowerState_OFF(SDIOx).
  59:Drivers/STM32F1xx_HAL_Driver/Src/stm32f1xx_ll_sdmmc.c ****                 
  60:Drivers/STM32F1xx_HAL_Driver/Src/stm32f1xx_ll_sdmmc.c ****       (+) Enable/Disable the clock using the __SDIO_ENABLE()/__SDIO_DISABLE() macros.
  61:Drivers/STM32F1xx_HAL_Driver/Src/stm32f1xx_ll_sdmmc.c ****   
  62:Drivers/STM32F1xx_HAL_Driver/Src/stm32f1xx_ll_sdmmc.c ****       (+) Enable/Disable the peripheral interrupts using the macros __SDIO_ENABLE_IT(hsdio, IT) 
  63:Drivers/STM32F1xx_HAL_Driver/Src/stm32f1xx_ll_sdmmc.c ****           and __SDIO_DISABLE_IT(hsdio, IT) if you need to use interrupt mode. 
  64:Drivers/STM32F1xx_HAL_Driver/Src/stm32f1xx_ll_sdmmc.c ****   
  65:Drivers/STM32F1xx_HAL_Driver/Src/stm32f1xx_ll_sdmmc.c ****       (+) When using the DMA mode 
  66:Drivers/STM32F1xx_HAL_Driver/Src/stm32f1xx_ll_sdmmc.c ****           (++) Configure the DMA in the MSP layer of the external device
  67:Drivers/STM32F1xx_HAL_Driver/Src/stm32f1xx_ll_sdmmc.c ****           (++) Active the needed channel Request 
  68:Drivers/STM32F1xx_HAL_Driver/Src/stm32f1xx_ll_sdmmc.c ****           (++) Enable the DMA using __SDIO_DMA_ENABLE() macro or Disable it using the macro
  69:Drivers/STM32F1xx_HAL_Driver/Src/stm32f1xx_ll_sdmmc.c ****                __SDIO_DMA_DISABLE().
  70:Drivers/STM32F1xx_HAL_Driver/Src/stm32f1xx_ll_sdmmc.c ****   
  71:Drivers/STM32F1xx_HAL_Driver/Src/stm32f1xx_ll_sdmmc.c ****       (+) To control the CPSM (Command Path State Machine) and send 
  72:Drivers/STM32F1xx_HAL_Driver/Src/stm32f1xx_ll_sdmmc.c ****           commands to the card use the SDIO_SendCommand(), 
  73:Drivers/STM32F1xx_HAL_Driver/Src/stm32f1xx_ll_sdmmc.c ****           SDIO_GetCommandResponse() and SDIO_GetResponse() functions. First, user has
  74:Drivers/STM32F1xx_HAL_Driver/Src/stm32f1xx_ll_sdmmc.c ****           to fill the command structure (pointer to SDIO_CmdInitTypeDef) according 
  75:Drivers/STM32F1xx_HAL_Driver/Src/stm32f1xx_ll_sdmmc.c ****           to the selected command to be sent.
  76:Drivers/STM32F1xx_HAL_Driver/Src/stm32f1xx_ll_sdmmc.c ****           The parameters that should be filled are:
  77:Drivers/STM32F1xx_HAL_Driver/Src/stm32f1xx_ll_sdmmc.c ****            (++) Command Argument
  78:Drivers/STM32F1xx_HAL_Driver/Src/stm32f1xx_ll_sdmmc.c ****            (++) Command Index
  79:Drivers/STM32F1xx_HAL_Driver/Src/stm32f1xx_ll_sdmmc.c ****            (++) Command Response type
  80:Drivers/STM32F1xx_HAL_Driver/Src/stm32f1xx_ll_sdmmc.c ****            (++) Command Wait
  81:Drivers/STM32F1xx_HAL_Driver/Src/stm32f1xx_ll_sdmmc.c ****            (++) CPSM Status (Enable or Disable).
  82:Drivers/STM32F1xx_HAL_Driver/Src/stm32f1xx_ll_sdmmc.c ****   
  83:Drivers/STM32F1xx_HAL_Driver/Src/stm32f1xx_ll_sdmmc.c ****           -@@- To check if the command is well received, read the SDIO_CMDRESP
  84:Drivers/STM32F1xx_HAL_Driver/Src/stm32f1xx_ll_sdmmc.c ****               register using the SDIO_GetCommandResponse().
  85:Drivers/STM32F1xx_HAL_Driver/Src/stm32f1xx_ll_sdmmc.c ****               The SDMMC responses registers (SDIO_RESP1 to SDIO_RESP2), use the
  86:Drivers/STM32F1xx_HAL_Driver/Src/stm32f1xx_ll_sdmmc.c ****               SDIO_GetResponse() function.
  87:Drivers/STM32F1xx_HAL_Driver/Src/stm32f1xx_ll_sdmmc.c ****   
  88:Drivers/STM32F1xx_HAL_Driver/Src/stm32f1xx_ll_sdmmc.c ****       (+) To control the DPSM (Data Path State Machine) and send/receive 
  89:Drivers/STM32F1xx_HAL_Driver/Src/stm32f1xx_ll_sdmmc.c ****            data to/from the card use the SDIO_ConfigData(), SDIO_GetDataCounter(), 
  90:Drivers/STM32F1xx_HAL_Driver/Src/stm32f1xx_ll_sdmmc.c ****           SDIO_ReadFIFO(), SDIO_WriteFIFO() and SDIO_GetFIFOCount() functions.
ARM GAS  /tmp/ccBn9PL3.s 			page 3


  91:Drivers/STM32F1xx_HAL_Driver/Src/stm32f1xx_ll_sdmmc.c ****   
  92:Drivers/STM32F1xx_HAL_Driver/Src/stm32f1xx_ll_sdmmc.c ****     *** Read Operations ***
  93:Drivers/STM32F1xx_HAL_Driver/Src/stm32f1xx_ll_sdmmc.c ****     =======================
  94:Drivers/STM32F1xx_HAL_Driver/Src/stm32f1xx_ll_sdmmc.c ****     [..]
  95:Drivers/STM32F1xx_HAL_Driver/Src/stm32f1xx_ll_sdmmc.c ****       (#) First, user has to fill the data structure (pointer to
  96:Drivers/STM32F1xx_HAL_Driver/Src/stm32f1xx_ll_sdmmc.c ****           SDIO_DataInitTypeDef) according to the selected data type to be received.
  97:Drivers/STM32F1xx_HAL_Driver/Src/stm32f1xx_ll_sdmmc.c ****           The parameters that should be filled are:
  98:Drivers/STM32F1xx_HAL_Driver/Src/stm32f1xx_ll_sdmmc.c ****            (++) Data TimeOut
  99:Drivers/STM32F1xx_HAL_Driver/Src/stm32f1xx_ll_sdmmc.c ****            (++) Data Length
 100:Drivers/STM32F1xx_HAL_Driver/Src/stm32f1xx_ll_sdmmc.c ****            (++) Data Block size
 101:Drivers/STM32F1xx_HAL_Driver/Src/stm32f1xx_ll_sdmmc.c ****            (++) Data Transfer direction: should be from card (To SDMMC)
 102:Drivers/STM32F1xx_HAL_Driver/Src/stm32f1xx_ll_sdmmc.c ****            (++) Data Transfer mode
 103:Drivers/STM32F1xx_HAL_Driver/Src/stm32f1xx_ll_sdmmc.c ****            (++) DPSM Status (Enable or Disable)
 104:Drivers/STM32F1xx_HAL_Driver/Src/stm32f1xx_ll_sdmmc.c ****                                      
 105:Drivers/STM32F1xx_HAL_Driver/Src/stm32f1xx_ll_sdmmc.c ****       (#) Configure the SDMMC resources to receive the data from the card
 106:Drivers/STM32F1xx_HAL_Driver/Src/stm32f1xx_ll_sdmmc.c ****           according to selected transfer mode (Refer to Step 8, 9 and 10).
 107:Drivers/STM32F1xx_HAL_Driver/Src/stm32f1xx_ll_sdmmc.c ****   
 108:Drivers/STM32F1xx_HAL_Driver/Src/stm32f1xx_ll_sdmmc.c ****       (#) Send the selected Read command (refer to step 11).
 109:Drivers/STM32F1xx_HAL_Driver/Src/stm32f1xx_ll_sdmmc.c ****                     
 110:Drivers/STM32F1xx_HAL_Driver/Src/stm32f1xx_ll_sdmmc.c ****       (#) Use the SDIO flags/interrupts to check the transfer status.
 111:Drivers/STM32F1xx_HAL_Driver/Src/stm32f1xx_ll_sdmmc.c ****   
 112:Drivers/STM32F1xx_HAL_Driver/Src/stm32f1xx_ll_sdmmc.c ****     *** Write Operations ***
 113:Drivers/STM32F1xx_HAL_Driver/Src/stm32f1xx_ll_sdmmc.c ****     ========================
 114:Drivers/STM32F1xx_HAL_Driver/Src/stm32f1xx_ll_sdmmc.c ****     [..]
 115:Drivers/STM32F1xx_HAL_Driver/Src/stm32f1xx_ll_sdmmc.c ****      (#) First, user has to fill the data structure (pointer to
 116:Drivers/STM32F1xx_HAL_Driver/Src/stm32f1xx_ll_sdmmc.c ****          SDIO_DataInitTypeDef) according to the selected data type to be received.
 117:Drivers/STM32F1xx_HAL_Driver/Src/stm32f1xx_ll_sdmmc.c ****          The parameters that should be filled are:
 118:Drivers/STM32F1xx_HAL_Driver/Src/stm32f1xx_ll_sdmmc.c ****           (++) Data TimeOut
 119:Drivers/STM32F1xx_HAL_Driver/Src/stm32f1xx_ll_sdmmc.c ****           (++) Data Length
 120:Drivers/STM32F1xx_HAL_Driver/Src/stm32f1xx_ll_sdmmc.c ****           (++) Data Block size
 121:Drivers/STM32F1xx_HAL_Driver/Src/stm32f1xx_ll_sdmmc.c ****           (++) Data Transfer direction:  should be to card (To CARD)
 122:Drivers/STM32F1xx_HAL_Driver/Src/stm32f1xx_ll_sdmmc.c ****           (++) Data Transfer mode
 123:Drivers/STM32F1xx_HAL_Driver/Src/stm32f1xx_ll_sdmmc.c ****           (++) DPSM Status (Enable or Disable)
 124:Drivers/STM32F1xx_HAL_Driver/Src/stm32f1xx_ll_sdmmc.c ****   
 125:Drivers/STM32F1xx_HAL_Driver/Src/stm32f1xx_ll_sdmmc.c ****      (#) Configure the SDMMC resources to send the data to the card according to 
 126:Drivers/STM32F1xx_HAL_Driver/Src/stm32f1xx_ll_sdmmc.c ****          selected transfer mode.
 127:Drivers/STM32F1xx_HAL_Driver/Src/stm32f1xx_ll_sdmmc.c ****                      
 128:Drivers/STM32F1xx_HAL_Driver/Src/stm32f1xx_ll_sdmmc.c ****      (#) Send the selected Write command.
 129:Drivers/STM32F1xx_HAL_Driver/Src/stm32f1xx_ll_sdmmc.c ****                     
 130:Drivers/STM32F1xx_HAL_Driver/Src/stm32f1xx_ll_sdmmc.c ****      (#) Use the SDIO flags/interrupts to check the transfer status.
 131:Drivers/STM32F1xx_HAL_Driver/Src/stm32f1xx_ll_sdmmc.c ****        
 132:Drivers/STM32F1xx_HAL_Driver/Src/stm32f1xx_ll_sdmmc.c ****     *** Command management operations ***
 133:Drivers/STM32F1xx_HAL_Driver/Src/stm32f1xx_ll_sdmmc.c ****     =====================================
 134:Drivers/STM32F1xx_HAL_Driver/Src/stm32f1xx_ll_sdmmc.c ****     [..]
 135:Drivers/STM32F1xx_HAL_Driver/Src/stm32f1xx_ll_sdmmc.c ****      (#) The commands used for Read/Write//Erase operations are managed in 
 136:Drivers/STM32F1xx_HAL_Driver/Src/stm32f1xx_ll_sdmmc.c ****          separate functions. 
 137:Drivers/STM32F1xx_HAL_Driver/Src/stm32f1xx_ll_sdmmc.c ****          Each function allows to send the needed command with the related argument,
 138:Drivers/STM32F1xx_HAL_Driver/Src/stm32f1xx_ll_sdmmc.c ****          then check the response.
 139:Drivers/STM32F1xx_HAL_Driver/Src/stm32f1xx_ll_sdmmc.c ****          By the same approach, you could implement a command and check the response.
 140:Drivers/STM32F1xx_HAL_Driver/Src/stm32f1xx_ll_sdmmc.c ****   
 141:Drivers/STM32F1xx_HAL_Driver/Src/stm32f1xx_ll_sdmmc.c ****   @endverbatim
 142:Drivers/STM32F1xx_HAL_Driver/Src/stm32f1xx_ll_sdmmc.c ****   ******************************************************************************
 143:Drivers/STM32F1xx_HAL_Driver/Src/stm32f1xx_ll_sdmmc.c ****   * @attention
 144:Drivers/STM32F1xx_HAL_Driver/Src/stm32f1xx_ll_sdmmc.c ****   *
 145:Drivers/STM32F1xx_HAL_Driver/Src/stm32f1xx_ll_sdmmc.c ****   * <h2><center>&copy; COPYRIGHT(c) 2017 STMicroelectronics</center></h2>
 146:Drivers/STM32F1xx_HAL_Driver/Src/stm32f1xx_ll_sdmmc.c ****   *
 147:Drivers/STM32F1xx_HAL_Driver/Src/stm32f1xx_ll_sdmmc.c ****   * Redistribution and use in source and binary forms, with or without modification,
ARM GAS  /tmp/ccBn9PL3.s 			page 4


 148:Drivers/STM32F1xx_HAL_Driver/Src/stm32f1xx_ll_sdmmc.c ****   * are permitted provided that the following conditions are met:
 149:Drivers/STM32F1xx_HAL_Driver/Src/stm32f1xx_ll_sdmmc.c ****   *   1. Redistributions of source code must retain the above copyright notice,
 150:Drivers/STM32F1xx_HAL_Driver/Src/stm32f1xx_ll_sdmmc.c ****   *      this list of conditions and the following disclaimer.
 151:Drivers/STM32F1xx_HAL_Driver/Src/stm32f1xx_ll_sdmmc.c ****   *   2. Redistributions in binary form must reproduce the above copyright notice,
 152:Drivers/STM32F1xx_HAL_Driver/Src/stm32f1xx_ll_sdmmc.c ****   *      this list of conditions and the following disclaimer in the documentation
 153:Drivers/STM32F1xx_HAL_Driver/Src/stm32f1xx_ll_sdmmc.c ****   *      and/or other materials provided with the distribution.
 154:Drivers/STM32F1xx_HAL_Driver/Src/stm32f1xx_ll_sdmmc.c ****   *   3. Neither the name of STMicroelectronics nor the names of its contributors
 155:Drivers/STM32F1xx_HAL_Driver/Src/stm32f1xx_ll_sdmmc.c ****   *      may be used to endorse or promote products derived from this software
 156:Drivers/STM32F1xx_HAL_Driver/Src/stm32f1xx_ll_sdmmc.c ****   *      without specific prior written permission.
 157:Drivers/STM32F1xx_HAL_Driver/Src/stm32f1xx_ll_sdmmc.c ****   *
 158:Drivers/STM32F1xx_HAL_Driver/Src/stm32f1xx_ll_sdmmc.c ****   * THIS SOFTWARE IS PROVIDED BY THE COPYRIGHT HOLDERS AND CONTRIBUTORS "AS IS"
 159:Drivers/STM32F1xx_HAL_Driver/Src/stm32f1xx_ll_sdmmc.c ****   * AND ANY EXPRESS OR IMPLIED WARRANTIES, INCLUDING, BUT NOT LIMITED TO, THE
 160:Drivers/STM32F1xx_HAL_Driver/Src/stm32f1xx_ll_sdmmc.c ****   * IMPLIED WARRANTIES OF MERCHANTABILITY AND FITNESS FOR A PARTICULAR PURPOSE ARE
 161:Drivers/STM32F1xx_HAL_Driver/Src/stm32f1xx_ll_sdmmc.c ****   * DISCLAIMED. IN NO EVENT SHALL THE COPYRIGHT HOLDER OR CONTRIBUTORS BE LIABLE
 162:Drivers/STM32F1xx_HAL_Driver/Src/stm32f1xx_ll_sdmmc.c ****   * FOR ANY DIRECT, INDIRECT, INCIDENTAL, SPECIAL, EXEMPLARY, OR CONSEQUENTIAL
 163:Drivers/STM32F1xx_HAL_Driver/Src/stm32f1xx_ll_sdmmc.c ****   * DAMAGES (INCLUDING, BUT NOT LIMITED TO, PROCUREMENT OF SUBSTITUTE GOODS OR
 164:Drivers/STM32F1xx_HAL_Driver/Src/stm32f1xx_ll_sdmmc.c ****   * SERVICES; LOSS OF USE, DATA, OR PROFITS; OR BUSINESS INTERRUPTION) HOWEVER
 165:Drivers/STM32F1xx_HAL_Driver/Src/stm32f1xx_ll_sdmmc.c ****   * CAUSED AND ON ANY THEORY OF LIABILITY, WHETHER IN CONTRACT, STRICT LIABILITY,
 166:Drivers/STM32F1xx_HAL_Driver/Src/stm32f1xx_ll_sdmmc.c ****   * OR TORT (INCLUDING NEGLIGENCE OR OTHERWISE) ARISING IN ANY WAY OUT OF THE USE
 167:Drivers/STM32F1xx_HAL_Driver/Src/stm32f1xx_ll_sdmmc.c ****   * OF THIS SOFTWARE, EVEN IF ADVISED OF THE POSSIBILITY OF SUCH DAMAGE.
 168:Drivers/STM32F1xx_HAL_Driver/Src/stm32f1xx_ll_sdmmc.c ****   *
 169:Drivers/STM32F1xx_HAL_Driver/Src/stm32f1xx_ll_sdmmc.c ****   ******************************************************************************
 170:Drivers/STM32F1xx_HAL_Driver/Src/stm32f1xx_ll_sdmmc.c ****   */ 
 171:Drivers/STM32F1xx_HAL_Driver/Src/stm32f1xx_ll_sdmmc.c **** 
 172:Drivers/STM32F1xx_HAL_Driver/Src/stm32f1xx_ll_sdmmc.c **** /* Includes ------------------------------------------------------------------*/
 173:Drivers/STM32F1xx_HAL_Driver/Src/stm32f1xx_ll_sdmmc.c **** #include "stm32f1xx_hal.h"
 174:Drivers/STM32F1xx_HAL_Driver/Src/stm32f1xx_ll_sdmmc.c **** 
 175:Drivers/STM32F1xx_HAL_Driver/Src/stm32f1xx_ll_sdmmc.c **** 
 176:Drivers/STM32F1xx_HAL_Driver/Src/stm32f1xx_ll_sdmmc.c **** #if defined(STM32F103xE) || defined(STM32F103xG)
 177:Drivers/STM32F1xx_HAL_Driver/Src/stm32f1xx_ll_sdmmc.c **** 
 178:Drivers/STM32F1xx_HAL_Driver/Src/stm32f1xx_ll_sdmmc.c **** /** @addtogroup STM32F1xx_HAL_Driver
 179:Drivers/STM32F1xx_HAL_Driver/Src/stm32f1xx_ll_sdmmc.c ****   * @{
 180:Drivers/STM32F1xx_HAL_Driver/Src/stm32f1xx_ll_sdmmc.c ****   */
 181:Drivers/STM32F1xx_HAL_Driver/Src/stm32f1xx_ll_sdmmc.c **** 
 182:Drivers/STM32F1xx_HAL_Driver/Src/stm32f1xx_ll_sdmmc.c **** /** @defgroup SDMMC_LL SDMMC Low Layer
 183:Drivers/STM32F1xx_HAL_Driver/Src/stm32f1xx_ll_sdmmc.c ****   * @brief Low layer module for SD
 184:Drivers/STM32F1xx_HAL_Driver/Src/stm32f1xx_ll_sdmmc.c ****   * @{
 185:Drivers/STM32F1xx_HAL_Driver/Src/stm32f1xx_ll_sdmmc.c ****   */
 186:Drivers/STM32F1xx_HAL_Driver/Src/stm32f1xx_ll_sdmmc.c **** #if defined (HAL_SD_MODULE_ENABLED) || defined(HAL_MMC_MODULE_ENABLED)
 187:Drivers/STM32F1xx_HAL_Driver/Src/stm32f1xx_ll_sdmmc.c **** 
 188:Drivers/STM32F1xx_HAL_Driver/Src/stm32f1xx_ll_sdmmc.c **** /* Private typedef -----------------------------------------------------------*/
 189:Drivers/STM32F1xx_HAL_Driver/Src/stm32f1xx_ll_sdmmc.c **** /* Private define ------------------------------------------------------------*/
 190:Drivers/STM32F1xx_HAL_Driver/Src/stm32f1xx_ll_sdmmc.c **** /* Private macro -------------------------------------------------------------*/
 191:Drivers/STM32F1xx_HAL_Driver/Src/stm32f1xx_ll_sdmmc.c **** /* Private variables ---------------------------------------------------------*/
 192:Drivers/STM32F1xx_HAL_Driver/Src/stm32f1xx_ll_sdmmc.c **** /* Private function prototypes -----------------------------------------------*/
 193:Drivers/STM32F1xx_HAL_Driver/Src/stm32f1xx_ll_sdmmc.c **** static uint32_t SDMMC_GetCmdError(SDIO_TypeDef *SDIOx);
 194:Drivers/STM32F1xx_HAL_Driver/Src/stm32f1xx_ll_sdmmc.c **** static uint32_t SDMMC_GetCmdResp1(SDIO_TypeDef *SDIOx, uint8_t SD_CMD, uint32_t Timeout);
 195:Drivers/STM32F1xx_HAL_Driver/Src/stm32f1xx_ll_sdmmc.c **** static uint32_t SDMMC_GetCmdResp2(SDIO_TypeDef *SDIOx);
 196:Drivers/STM32F1xx_HAL_Driver/Src/stm32f1xx_ll_sdmmc.c **** static uint32_t SDMMC_GetCmdResp3(SDIO_TypeDef *SDIOx);
 197:Drivers/STM32F1xx_HAL_Driver/Src/stm32f1xx_ll_sdmmc.c **** static uint32_t SDMMC_GetCmdResp7(SDIO_TypeDef *SDIOx);
 198:Drivers/STM32F1xx_HAL_Driver/Src/stm32f1xx_ll_sdmmc.c **** static uint32_t SDMMC_GetCmdResp6(SDIO_TypeDef *SDIOx, uint8_t SD_CMD, uint16_t *pRCA);
 199:Drivers/STM32F1xx_HAL_Driver/Src/stm32f1xx_ll_sdmmc.c **** 
 200:Drivers/STM32F1xx_HAL_Driver/Src/stm32f1xx_ll_sdmmc.c **** /* Exported functions --------------------------------------------------------*/
 201:Drivers/STM32F1xx_HAL_Driver/Src/stm32f1xx_ll_sdmmc.c **** 
 202:Drivers/STM32F1xx_HAL_Driver/Src/stm32f1xx_ll_sdmmc.c **** /** @defgroup SDMMC_LL_Exported_Functions SDMMC Low Layer Exported Functions
 203:Drivers/STM32F1xx_HAL_Driver/Src/stm32f1xx_ll_sdmmc.c ****   * @{
 204:Drivers/STM32F1xx_HAL_Driver/Src/stm32f1xx_ll_sdmmc.c ****   */
ARM GAS  /tmp/ccBn9PL3.s 			page 5


 205:Drivers/STM32F1xx_HAL_Driver/Src/stm32f1xx_ll_sdmmc.c **** 
 206:Drivers/STM32F1xx_HAL_Driver/Src/stm32f1xx_ll_sdmmc.c **** /** @defgroup HAL_SDMMC_LL_Group1 Initialization de-initialization functions 
 207:Drivers/STM32F1xx_HAL_Driver/Src/stm32f1xx_ll_sdmmc.c ****  *  @brief    Initialization and Configuration functions 
 208:Drivers/STM32F1xx_HAL_Driver/Src/stm32f1xx_ll_sdmmc.c ****  *
 209:Drivers/STM32F1xx_HAL_Driver/Src/stm32f1xx_ll_sdmmc.c **** @verbatim    
 210:Drivers/STM32F1xx_HAL_Driver/Src/stm32f1xx_ll_sdmmc.c ****  ===============================================================================
 211:Drivers/STM32F1xx_HAL_Driver/Src/stm32f1xx_ll_sdmmc.c ****               ##### Initialization/de-initialization functions #####
 212:Drivers/STM32F1xx_HAL_Driver/Src/stm32f1xx_ll_sdmmc.c ****  ===============================================================================
 213:Drivers/STM32F1xx_HAL_Driver/Src/stm32f1xx_ll_sdmmc.c ****     [..]  This section provides functions allowing to:
 214:Drivers/STM32F1xx_HAL_Driver/Src/stm32f1xx_ll_sdmmc.c ****  
 215:Drivers/STM32F1xx_HAL_Driver/Src/stm32f1xx_ll_sdmmc.c **** @endverbatim
 216:Drivers/STM32F1xx_HAL_Driver/Src/stm32f1xx_ll_sdmmc.c ****   * @{
 217:Drivers/STM32F1xx_HAL_Driver/Src/stm32f1xx_ll_sdmmc.c ****   */
 218:Drivers/STM32F1xx_HAL_Driver/Src/stm32f1xx_ll_sdmmc.c **** 
 219:Drivers/STM32F1xx_HAL_Driver/Src/stm32f1xx_ll_sdmmc.c **** /**
 220:Drivers/STM32F1xx_HAL_Driver/Src/stm32f1xx_ll_sdmmc.c ****   * @brief  Initializes the SDMMC according to the specified
 221:Drivers/STM32F1xx_HAL_Driver/Src/stm32f1xx_ll_sdmmc.c ****   *         parameters in the SDMMC_InitTypeDef and create the associated handle.
 222:Drivers/STM32F1xx_HAL_Driver/Src/stm32f1xx_ll_sdmmc.c ****   * @param  SDIOx: Pointer to SDMMC register base
 223:Drivers/STM32F1xx_HAL_Driver/Src/stm32f1xx_ll_sdmmc.c ****   * @param  Init: SDMMC initialization structure   
 224:Drivers/STM32F1xx_HAL_Driver/Src/stm32f1xx_ll_sdmmc.c ****   * @retval HAL status
 225:Drivers/STM32F1xx_HAL_Driver/Src/stm32f1xx_ll_sdmmc.c ****   */
 226:Drivers/STM32F1xx_HAL_Driver/Src/stm32f1xx_ll_sdmmc.c **** HAL_StatusTypeDef SDIO_Init(SDIO_TypeDef *SDIOx, SDIO_InitTypeDef Init)
 227:Drivers/STM32F1xx_HAL_Driver/Src/stm32f1xx_ll_sdmmc.c **** {
 228:Drivers/STM32F1xx_HAL_Driver/Src/stm32f1xx_ll_sdmmc.c ****   uint32_t tmpreg = 0U;
 229:Drivers/STM32F1xx_HAL_Driver/Src/stm32f1xx_ll_sdmmc.c **** 
 230:Drivers/STM32F1xx_HAL_Driver/Src/stm32f1xx_ll_sdmmc.c ****   /* Check the parameters */
 231:Drivers/STM32F1xx_HAL_Driver/Src/stm32f1xx_ll_sdmmc.c ****   assert_param(IS_SDIO_ALL_INSTANCE(SDIOx));
 232:Drivers/STM32F1xx_HAL_Driver/Src/stm32f1xx_ll_sdmmc.c ****   assert_param(IS_SDIO_CLOCK_EDGE(Init.ClockEdge)); 
 233:Drivers/STM32F1xx_HAL_Driver/Src/stm32f1xx_ll_sdmmc.c ****   assert_param(IS_SDIO_CLOCK_BYPASS(Init.ClockBypass));
 234:Drivers/STM32F1xx_HAL_Driver/Src/stm32f1xx_ll_sdmmc.c ****   assert_param(IS_SDIO_CLOCK_POWER_SAVE(Init.ClockPowerSave));
 235:Drivers/STM32F1xx_HAL_Driver/Src/stm32f1xx_ll_sdmmc.c ****   assert_param(IS_SDIO_BUS_WIDE(Init.BusWide));
 236:Drivers/STM32F1xx_HAL_Driver/Src/stm32f1xx_ll_sdmmc.c ****   assert_param(IS_SDIO_HARDWARE_FLOW_CONTROL(Init.HardwareFlowControl));
 237:Drivers/STM32F1xx_HAL_Driver/Src/stm32f1xx_ll_sdmmc.c ****   assert_param(IS_SDIO_CLKDIV(Init.ClockDiv));
 238:Drivers/STM32F1xx_HAL_Driver/Src/stm32f1xx_ll_sdmmc.c ****   
 239:Drivers/STM32F1xx_HAL_Driver/Src/stm32f1xx_ll_sdmmc.c ****   /* Set SDMMC configuration parameters */
 240:Drivers/STM32F1xx_HAL_Driver/Src/stm32f1xx_ll_sdmmc.c ****   tmpreg |= (Init.ClockEdge           |\
 241:Drivers/STM32F1xx_HAL_Driver/Src/stm32f1xx_ll_sdmmc.c ****              Init.ClockBypass         |\
 242:Drivers/STM32F1xx_HAL_Driver/Src/stm32f1xx_ll_sdmmc.c ****              Init.ClockPowerSave      |\
 243:Drivers/STM32F1xx_HAL_Driver/Src/stm32f1xx_ll_sdmmc.c ****              Init.BusWide             |\
 244:Drivers/STM32F1xx_HAL_Driver/Src/stm32f1xx_ll_sdmmc.c ****              Init.HardwareFlowControl |\
 245:Drivers/STM32F1xx_HAL_Driver/Src/stm32f1xx_ll_sdmmc.c ****              Init.ClockDiv
 246:Drivers/STM32F1xx_HAL_Driver/Src/stm32f1xx_ll_sdmmc.c ****              ); 
 247:Drivers/STM32F1xx_HAL_Driver/Src/stm32f1xx_ll_sdmmc.c ****   
 248:Drivers/STM32F1xx_HAL_Driver/Src/stm32f1xx_ll_sdmmc.c ****   /* Write to SDMMC CLKCR */
 249:Drivers/STM32F1xx_HAL_Driver/Src/stm32f1xx_ll_sdmmc.c ****   MODIFY_REG(SDIOx->CLKCR, CLKCR_CLEAR_MASK, tmpreg);  
 250:Drivers/STM32F1xx_HAL_Driver/Src/stm32f1xx_ll_sdmmc.c **** 
 251:Drivers/STM32F1xx_HAL_Driver/Src/stm32f1xx_ll_sdmmc.c ****   return HAL_OK;
 252:Drivers/STM32F1xx_HAL_Driver/Src/stm32f1xx_ll_sdmmc.c **** }
 253:Drivers/STM32F1xx_HAL_Driver/Src/stm32f1xx_ll_sdmmc.c **** 
 254:Drivers/STM32F1xx_HAL_Driver/Src/stm32f1xx_ll_sdmmc.c **** 
 255:Drivers/STM32F1xx_HAL_Driver/Src/stm32f1xx_ll_sdmmc.c **** /**
 256:Drivers/STM32F1xx_HAL_Driver/Src/stm32f1xx_ll_sdmmc.c ****   * @}
 257:Drivers/STM32F1xx_HAL_Driver/Src/stm32f1xx_ll_sdmmc.c ****   */
 258:Drivers/STM32F1xx_HAL_Driver/Src/stm32f1xx_ll_sdmmc.c **** 
 259:Drivers/STM32F1xx_HAL_Driver/Src/stm32f1xx_ll_sdmmc.c **** /** @defgroup HAL_SDMMC_LL_Group2 IO operation functions 
 260:Drivers/STM32F1xx_HAL_Driver/Src/stm32f1xx_ll_sdmmc.c ****  *  @brief   Data transfers functions 
 261:Drivers/STM32F1xx_HAL_Driver/Src/stm32f1xx_ll_sdmmc.c ****  *
ARM GAS  /tmp/ccBn9PL3.s 			page 6


 262:Drivers/STM32F1xx_HAL_Driver/Src/stm32f1xx_ll_sdmmc.c **** @verbatim   
 263:Drivers/STM32F1xx_HAL_Driver/Src/stm32f1xx_ll_sdmmc.c ****  ===============================================================================
 264:Drivers/STM32F1xx_HAL_Driver/Src/stm32f1xx_ll_sdmmc.c ****                       ##### I/O operation functions #####
 265:Drivers/STM32F1xx_HAL_Driver/Src/stm32f1xx_ll_sdmmc.c ****  ===============================================================================  
 266:Drivers/STM32F1xx_HAL_Driver/Src/stm32f1xx_ll_sdmmc.c ****     [..]
 267:Drivers/STM32F1xx_HAL_Driver/Src/stm32f1xx_ll_sdmmc.c ****     This subsection provides a set of functions allowing to manage the SDMMC data 
 268:Drivers/STM32F1xx_HAL_Driver/Src/stm32f1xx_ll_sdmmc.c ****     transfers.
 269:Drivers/STM32F1xx_HAL_Driver/Src/stm32f1xx_ll_sdmmc.c **** 
 270:Drivers/STM32F1xx_HAL_Driver/Src/stm32f1xx_ll_sdmmc.c **** @endverbatim
 271:Drivers/STM32F1xx_HAL_Driver/Src/stm32f1xx_ll_sdmmc.c ****   * @{
 272:Drivers/STM32F1xx_HAL_Driver/Src/stm32f1xx_ll_sdmmc.c ****   */
 273:Drivers/STM32F1xx_HAL_Driver/Src/stm32f1xx_ll_sdmmc.c **** 
 274:Drivers/STM32F1xx_HAL_Driver/Src/stm32f1xx_ll_sdmmc.c **** /**
 275:Drivers/STM32F1xx_HAL_Driver/Src/stm32f1xx_ll_sdmmc.c ****   * @brief  Read data (word) from Rx FIFO in blocking mode (polling) 
 276:Drivers/STM32F1xx_HAL_Driver/Src/stm32f1xx_ll_sdmmc.c ****   * @param  SDIOx: Pointer to SDMMC register base
 277:Drivers/STM32F1xx_HAL_Driver/Src/stm32f1xx_ll_sdmmc.c ****   * @retval HAL status
 278:Drivers/STM32F1xx_HAL_Driver/Src/stm32f1xx_ll_sdmmc.c ****   */
 279:Drivers/STM32F1xx_HAL_Driver/Src/stm32f1xx_ll_sdmmc.c **** uint32_t SDIO_ReadFIFO(SDIO_TypeDef *SDIOx)
 280:Drivers/STM32F1xx_HAL_Driver/Src/stm32f1xx_ll_sdmmc.c **** {
 281:Drivers/STM32F1xx_HAL_Driver/Src/stm32f1xx_ll_sdmmc.c ****   /* Read data from Rx FIFO */ 
 282:Drivers/STM32F1xx_HAL_Driver/Src/stm32f1xx_ll_sdmmc.c ****   return (SDIOx->FIFO);
 283:Drivers/STM32F1xx_HAL_Driver/Src/stm32f1xx_ll_sdmmc.c **** }
 284:Drivers/STM32F1xx_HAL_Driver/Src/stm32f1xx_ll_sdmmc.c **** 
 285:Drivers/STM32F1xx_HAL_Driver/Src/stm32f1xx_ll_sdmmc.c **** /**
 286:Drivers/STM32F1xx_HAL_Driver/Src/stm32f1xx_ll_sdmmc.c ****   * @brief  Write data (word) to Tx FIFO in blocking mode (polling) 
 287:Drivers/STM32F1xx_HAL_Driver/Src/stm32f1xx_ll_sdmmc.c ****   * @param  SDIOx: Pointer to SDMMC register base
 288:Drivers/STM32F1xx_HAL_Driver/Src/stm32f1xx_ll_sdmmc.c ****   * @param  pWriteData: pointer to data to write
 289:Drivers/STM32F1xx_HAL_Driver/Src/stm32f1xx_ll_sdmmc.c ****   * @retval HAL status
 290:Drivers/STM32F1xx_HAL_Driver/Src/stm32f1xx_ll_sdmmc.c ****   */
 291:Drivers/STM32F1xx_HAL_Driver/Src/stm32f1xx_ll_sdmmc.c **** HAL_StatusTypeDef SDIO_WriteFIFO(SDIO_TypeDef *SDIOx, uint32_t *pWriteData)
 292:Drivers/STM32F1xx_HAL_Driver/Src/stm32f1xx_ll_sdmmc.c **** { 
 293:Drivers/STM32F1xx_HAL_Driver/Src/stm32f1xx_ll_sdmmc.c ****   /* Write data to FIFO */ 
 294:Drivers/STM32F1xx_HAL_Driver/Src/stm32f1xx_ll_sdmmc.c ****   SDIOx->FIFO = *pWriteData;
 295:Drivers/STM32F1xx_HAL_Driver/Src/stm32f1xx_ll_sdmmc.c **** 
 296:Drivers/STM32F1xx_HAL_Driver/Src/stm32f1xx_ll_sdmmc.c ****   return HAL_OK;
 297:Drivers/STM32F1xx_HAL_Driver/Src/stm32f1xx_ll_sdmmc.c **** }
 298:Drivers/STM32F1xx_HAL_Driver/Src/stm32f1xx_ll_sdmmc.c **** 
 299:Drivers/STM32F1xx_HAL_Driver/Src/stm32f1xx_ll_sdmmc.c **** /**
 300:Drivers/STM32F1xx_HAL_Driver/Src/stm32f1xx_ll_sdmmc.c ****   * @}
 301:Drivers/STM32F1xx_HAL_Driver/Src/stm32f1xx_ll_sdmmc.c ****   */
 302:Drivers/STM32F1xx_HAL_Driver/Src/stm32f1xx_ll_sdmmc.c **** 
 303:Drivers/STM32F1xx_HAL_Driver/Src/stm32f1xx_ll_sdmmc.c **** /** @defgroup HAL_SDMMC_LL_Group3 Peripheral Control functions 
 304:Drivers/STM32F1xx_HAL_Driver/Src/stm32f1xx_ll_sdmmc.c ****  *  @brief   management functions 
 305:Drivers/STM32F1xx_HAL_Driver/Src/stm32f1xx_ll_sdmmc.c ****  *
 306:Drivers/STM32F1xx_HAL_Driver/Src/stm32f1xx_ll_sdmmc.c **** @verbatim   
 307:Drivers/STM32F1xx_HAL_Driver/Src/stm32f1xx_ll_sdmmc.c ****  ===============================================================================
 308:Drivers/STM32F1xx_HAL_Driver/Src/stm32f1xx_ll_sdmmc.c ****                       ##### Peripheral Control functions #####
 309:Drivers/STM32F1xx_HAL_Driver/Src/stm32f1xx_ll_sdmmc.c ****  ===============================================================================  
 310:Drivers/STM32F1xx_HAL_Driver/Src/stm32f1xx_ll_sdmmc.c ****     [..]
 311:Drivers/STM32F1xx_HAL_Driver/Src/stm32f1xx_ll_sdmmc.c ****     This subsection provides a set of functions allowing to control the SDMMC data 
 312:Drivers/STM32F1xx_HAL_Driver/Src/stm32f1xx_ll_sdmmc.c ****     transfers.
 313:Drivers/STM32F1xx_HAL_Driver/Src/stm32f1xx_ll_sdmmc.c **** 
 314:Drivers/STM32F1xx_HAL_Driver/Src/stm32f1xx_ll_sdmmc.c **** @endverbatim
 315:Drivers/STM32F1xx_HAL_Driver/Src/stm32f1xx_ll_sdmmc.c ****   * @{
 316:Drivers/STM32F1xx_HAL_Driver/Src/stm32f1xx_ll_sdmmc.c ****   */
 317:Drivers/STM32F1xx_HAL_Driver/Src/stm32f1xx_ll_sdmmc.c **** 
 318:Drivers/STM32F1xx_HAL_Driver/Src/stm32f1xx_ll_sdmmc.c **** /**
ARM GAS  /tmp/ccBn9PL3.s 			page 7


 319:Drivers/STM32F1xx_HAL_Driver/Src/stm32f1xx_ll_sdmmc.c ****   * @brief  Set SDMMC Power state to ON. 
 320:Drivers/STM32F1xx_HAL_Driver/Src/stm32f1xx_ll_sdmmc.c ****   * @param  SDIOx: Pointer to SDMMC register base
 321:Drivers/STM32F1xx_HAL_Driver/Src/stm32f1xx_ll_sdmmc.c ****   * @retval HAL status
 322:Drivers/STM32F1xx_HAL_Driver/Src/stm32f1xx_ll_sdmmc.c ****   */
 323:Drivers/STM32F1xx_HAL_Driver/Src/stm32f1xx_ll_sdmmc.c **** HAL_StatusTypeDef SDIO_PowerState_ON(SDIO_TypeDef *SDIOx)
 324:Drivers/STM32F1xx_HAL_Driver/Src/stm32f1xx_ll_sdmmc.c **** {  
 325:Drivers/STM32F1xx_HAL_Driver/Src/stm32f1xx_ll_sdmmc.c ****   /* Set power state to ON */ 
 326:Drivers/STM32F1xx_HAL_Driver/Src/stm32f1xx_ll_sdmmc.c ****   SDIOx->POWER = SDIO_POWER_PWRCTRL;
 327:Drivers/STM32F1xx_HAL_Driver/Src/stm32f1xx_ll_sdmmc.c ****   
 328:Drivers/STM32F1xx_HAL_Driver/Src/stm32f1xx_ll_sdmmc.c ****   return HAL_OK;
 329:Drivers/STM32F1xx_HAL_Driver/Src/stm32f1xx_ll_sdmmc.c **** }
 330:Drivers/STM32F1xx_HAL_Driver/Src/stm32f1xx_ll_sdmmc.c **** 
 331:Drivers/STM32F1xx_HAL_Driver/Src/stm32f1xx_ll_sdmmc.c **** /**
 332:Drivers/STM32F1xx_HAL_Driver/Src/stm32f1xx_ll_sdmmc.c ****   * @brief  Set SDMMC Power state to OFF. 
 333:Drivers/STM32F1xx_HAL_Driver/Src/stm32f1xx_ll_sdmmc.c ****   * @param  SDIOx: Pointer to SDMMC register base
 334:Drivers/STM32F1xx_HAL_Driver/Src/stm32f1xx_ll_sdmmc.c ****   * @retval HAL status
 335:Drivers/STM32F1xx_HAL_Driver/Src/stm32f1xx_ll_sdmmc.c ****   */
 336:Drivers/STM32F1xx_HAL_Driver/Src/stm32f1xx_ll_sdmmc.c **** HAL_StatusTypeDef SDIO_PowerState_OFF(SDIO_TypeDef *SDIOx)
 337:Drivers/STM32F1xx_HAL_Driver/Src/stm32f1xx_ll_sdmmc.c **** {
 338:Drivers/STM32F1xx_HAL_Driver/Src/stm32f1xx_ll_sdmmc.c ****   /* Set power state to OFF */
 339:Drivers/STM32F1xx_HAL_Driver/Src/stm32f1xx_ll_sdmmc.c ****   SDIOx->POWER = 0x00000000U;
 340:Drivers/STM32F1xx_HAL_Driver/Src/stm32f1xx_ll_sdmmc.c ****   
 341:Drivers/STM32F1xx_HAL_Driver/Src/stm32f1xx_ll_sdmmc.c ****   return HAL_OK;
 342:Drivers/STM32F1xx_HAL_Driver/Src/stm32f1xx_ll_sdmmc.c **** }
 343:Drivers/STM32F1xx_HAL_Driver/Src/stm32f1xx_ll_sdmmc.c **** 
 344:Drivers/STM32F1xx_HAL_Driver/Src/stm32f1xx_ll_sdmmc.c **** /**
 345:Drivers/STM32F1xx_HAL_Driver/Src/stm32f1xx_ll_sdmmc.c ****   * @brief  Get SDMMC Power state. 
 346:Drivers/STM32F1xx_HAL_Driver/Src/stm32f1xx_ll_sdmmc.c ****   * @param  SDIOx: Pointer to SDMMC register base
 347:Drivers/STM32F1xx_HAL_Driver/Src/stm32f1xx_ll_sdmmc.c ****   * @retval Power status of the controller. The returned value can be one of the 
 348:Drivers/STM32F1xx_HAL_Driver/Src/stm32f1xx_ll_sdmmc.c ****   *         following values:
 349:Drivers/STM32F1xx_HAL_Driver/Src/stm32f1xx_ll_sdmmc.c ****   *            - 0x00: Power OFF
 350:Drivers/STM32F1xx_HAL_Driver/Src/stm32f1xx_ll_sdmmc.c ****   *            - 0x02: Power UP
 351:Drivers/STM32F1xx_HAL_Driver/Src/stm32f1xx_ll_sdmmc.c ****   *            - 0x03: Power ON 
 352:Drivers/STM32F1xx_HAL_Driver/Src/stm32f1xx_ll_sdmmc.c ****   */
 353:Drivers/STM32F1xx_HAL_Driver/Src/stm32f1xx_ll_sdmmc.c **** uint32_t SDIO_GetPowerState(SDIO_TypeDef *SDIOx)  
 354:Drivers/STM32F1xx_HAL_Driver/Src/stm32f1xx_ll_sdmmc.c **** {
 355:Drivers/STM32F1xx_HAL_Driver/Src/stm32f1xx_ll_sdmmc.c ****   return (SDIOx->POWER & SDIO_POWER_PWRCTRL);
 356:Drivers/STM32F1xx_HAL_Driver/Src/stm32f1xx_ll_sdmmc.c **** }
 357:Drivers/STM32F1xx_HAL_Driver/Src/stm32f1xx_ll_sdmmc.c **** 
 358:Drivers/STM32F1xx_HAL_Driver/Src/stm32f1xx_ll_sdmmc.c **** /**
 359:Drivers/STM32F1xx_HAL_Driver/Src/stm32f1xx_ll_sdmmc.c ****   * @brief  Configure the SDMMC command path according to the specified parameters in
 360:Drivers/STM32F1xx_HAL_Driver/Src/stm32f1xx_ll_sdmmc.c ****   *         SDIO_CmdInitTypeDef structure and send the command 
 361:Drivers/STM32F1xx_HAL_Driver/Src/stm32f1xx_ll_sdmmc.c ****   * @param  SDIOx: Pointer to SDMMC register base
 362:Drivers/STM32F1xx_HAL_Driver/Src/stm32f1xx_ll_sdmmc.c ****   * @param  Command: pointer to a SDIO_CmdInitTypeDef structure that contains 
 363:Drivers/STM32F1xx_HAL_Driver/Src/stm32f1xx_ll_sdmmc.c ****   *         the configuration information for the SDMMC command
 364:Drivers/STM32F1xx_HAL_Driver/Src/stm32f1xx_ll_sdmmc.c ****   * @retval HAL status
 365:Drivers/STM32F1xx_HAL_Driver/Src/stm32f1xx_ll_sdmmc.c ****   */
 366:Drivers/STM32F1xx_HAL_Driver/Src/stm32f1xx_ll_sdmmc.c **** HAL_StatusTypeDef SDIO_SendCommand(SDIO_TypeDef *SDIOx, SDIO_CmdInitTypeDef *Command)
 367:Drivers/STM32F1xx_HAL_Driver/Src/stm32f1xx_ll_sdmmc.c **** {
 368:Drivers/STM32F1xx_HAL_Driver/Src/stm32f1xx_ll_sdmmc.c ****   uint32_t tmpreg = 0U;
 369:Drivers/STM32F1xx_HAL_Driver/Src/stm32f1xx_ll_sdmmc.c ****   
 370:Drivers/STM32F1xx_HAL_Driver/Src/stm32f1xx_ll_sdmmc.c ****   /* Check the parameters */
 371:Drivers/STM32F1xx_HAL_Driver/Src/stm32f1xx_ll_sdmmc.c ****   assert_param(IS_SDIO_CMD_INDEX(Command->CmdIndex));
 372:Drivers/STM32F1xx_HAL_Driver/Src/stm32f1xx_ll_sdmmc.c ****   assert_param(IS_SDIO_RESPONSE(Command->Response));
 373:Drivers/STM32F1xx_HAL_Driver/Src/stm32f1xx_ll_sdmmc.c ****   assert_param(IS_SDIO_WAIT(Command->WaitForInterrupt));
 374:Drivers/STM32F1xx_HAL_Driver/Src/stm32f1xx_ll_sdmmc.c ****   assert_param(IS_SDIO_CPSM(Command->CPSM));
 375:Drivers/STM32F1xx_HAL_Driver/Src/stm32f1xx_ll_sdmmc.c **** 
ARM GAS  /tmp/ccBn9PL3.s 			page 8


 376:Drivers/STM32F1xx_HAL_Driver/Src/stm32f1xx_ll_sdmmc.c ****   /* Set the SDMMC Argument value */
 377:Drivers/STM32F1xx_HAL_Driver/Src/stm32f1xx_ll_sdmmc.c ****   SDIOx->ARG = Command->Argument;
 378:Drivers/STM32F1xx_HAL_Driver/Src/stm32f1xx_ll_sdmmc.c **** 
 379:Drivers/STM32F1xx_HAL_Driver/Src/stm32f1xx_ll_sdmmc.c ****   /* Set SDMMC command parameters */
 380:Drivers/STM32F1xx_HAL_Driver/Src/stm32f1xx_ll_sdmmc.c ****   tmpreg |= (uint32_t)(Command->CmdIndex         |\
 381:Drivers/STM32F1xx_HAL_Driver/Src/stm32f1xx_ll_sdmmc.c ****                        Command->Response         |\
 382:Drivers/STM32F1xx_HAL_Driver/Src/stm32f1xx_ll_sdmmc.c ****                        Command->WaitForInterrupt |\
 383:Drivers/STM32F1xx_HAL_Driver/Src/stm32f1xx_ll_sdmmc.c ****                        Command->CPSM);
 384:Drivers/STM32F1xx_HAL_Driver/Src/stm32f1xx_ll_sdmmc.c ****   
 385:Drivers/STM32F1xx_HAL_Driver/Src/stm32f1xx_ll_sdmmc.c ****   /* Write to SDMMC CMD register */
 386:Drivers/STM32F1xx_HAL_Driver/Src/stm32f1xx_ll_sdmmc.c ****   MODIFY_REG(SDIOx->CMD, CMD_CLEAR_MASK, tmpreg); 
 387:Drivers/STM32F1xx_HAL_Driver/Src/stm32f1xx_ll_sdmmc.c ****   
 388:Drivers/STM32F1xx_HAL_Driver/Src/stm32f1xx_ll_sdmmc.c ****   return HAL_OK;  
 389:Drivers/STM32F1xx_HAL_Driver/Src/stm32f1xx_ll_sdmmc.c **** }
 390:Drivers/STM32F1xx_HAL_Driver/Src/stm32f1xx_ll_sdmmc.c **** 
 391:Drivers/STM32F1xx_HAL_Driver/Src/stm32f1xx_ll_sdmmc.c **** /**
 392:Drivers/STM32F1xx_HAL_Driver/Src/stm32f1xx_ll_sdmmc.c ****   * @brief  Return the command index of last command for which response received
 393:Drivers/STM32F1xx_HAL_Driver/Src/stm32f1xx_ll_sdmmc.c ****   * @param  SDIOx: Pointer to SDMMC register base
 394:Drivers/STM32F1xx_HAL_Driver/Src/stm32f1xx_ll_sdmmc.c ****   * @retval Command index of the last command response received
 395:Drivers/STM32F1xx_HAL_Driver/Src/stm32f1xx_ll_sdmmc.c ****   */
 396:Drivers/STM32F1xx_HAL_Driver/Src/stm32f1xx_ll_sdmmc.c **** uint8_t SDIO_GetCommandResponse(SDIO_TypeDef *SDIOx)
 397:Drivers/STM32F1xx_HAL_Driver/Src/stm32f1xx_ll_sdmmc.c **** {
 398:Drivers/STM32F1xx_HAL_Driver/Src/stm32f1xx_ll_sdmmc.c ****   return (uint8_t)(SDIOx->RESPCMD);
 399:Drivers/STM32F1xx_HAL_Driver/Src/stm32f1xx_ll_sdmmc.c **** }
 400:Drivers/STM32F1xx_HAL_Driver/Src/stm32f1xx_ll_sdmmc.c **** 
 401:Drivers/STM32F1xx_HAL_Driver/Src/stm32f1xx_ll_sdmmc.c **** 
 402:Drivers/STM32F1xx_HAL_Driver/Src/stm32f1xx_ll_sdmmc.c **** /**
 403:Drivers/STM32F1xx_HAL_Driver/Src/stm32f1xx_ll_sdmmc.c ****   * @brief  Return the response received from the card for the last command
 404:Drivers/STM32F1xx_HAL_Driver/Src/stm32f1xx_ll_sdmmc.c ****   * @param  SDIOx: Pointer to SDMMC register base    
 405:Drivers/STM32F1xx_HAL_Driver/Src/stm32f1xx_ll_sdmmc.c ****   * @param  Response: Specifies the SDMMC response register. 
 406:Drivers/STM32F1xx_HAL_Driver/Src/stm32f1xx_ll_sdmmc.c ****   *          This parameter can be one of the following values:
 407:Drivers/STM32F1xx_HAL_Driver/Src/stm32f1xx_ll_sdmmc.c ****   *            @arg SDIO_RESP1: Response Register 1
 408:Drivers/STM32F1xx_HAL_Driver/Src/stm32f1xx_ll_sdmmc.c ****   *            @arg SDIO_RESP2: Response Register 2
 409:Drivers/STM32F1xx_HAL_Driver/Src/stm32f1xx_ll_sdmmc.c ****   *            @arg SDIO_RESP3: Response Register 3
 410:Drivers/STM32F1xx_HAL_Driver/Src/stm32f1xx_ll_sdmmc.c ****   *            @arg SDIO_RESP4: Response Register 4  
 411:Drivers/STM32F1xx_HAL_Driver/Src/stm32f1xx_ll_sdmmc.c ****   * @retval The Corresponding response register value
 412:Drivers/STM32F1xx_HAL_Driver/Src/stm32f1xx_ll_sdmmc.c ****   */
 413:Drivers/STM32F1xx_HAL_Driver/Src/stm32f1xx_ll_sdmmc.c **** uint32_t SDIO_GetResponse(SDIO_TypeDef *SDIOx, uint32_t Response)
 414:Drivers/STM32F1xx_HAL_Driver/Src/stm32f1xx_ll_sdmmc.c **** {
 415:Drivers/STM32F1xx_HAL_Driver/Src/stm32f1xx_ll_sdmmc.c ****   __IO uint32_t tmp = 0U;
 416:Drivers/STM32F1xx_HAL_Driver/Src/stm32f1xx_ll_sdmmc.c **** 
 417:Drivers/STM32F1xx_HAL_Driver/Src/stm32f1xx_ll_sdmmc.c ****   /* Check the parameters */
 418:Drivers/STM32F1xx_HAL_Driver/Src/stm32f1xx_ll_sdmmc.c ****   assert_param(IS_SDIO_RESP(Response));
 419:Drivers/STM32F1xx_HAL_Driver/Src/stm32f1xx_ll_sdmmc.c **** 
 420:Drivers/STM32F1xx_HAL_Driver/Src/stm32f1xx_ll_sdmmc.c ****   /* Get the response */
 421:Drivers/STM32F1xx_HAL_Driver/Src/stm32f1xx_ll_sdmmc.c ****   tmp = (uint32_t)&(SDIOx->RESP1) + Response;
 422:Drivers/STM32F1xx_HAL_Driver/Src/stm32f1xx_ll_sdmmc.c ****   
 423:Drivers/STM32F1xx_HAL_Driver/Src/stm32f1xx_ll_sdmmc.c ****   return (*(__IO uint32_t *) tmp);
 424:Drivers/STM32F1xx_HAL_Driver/Src/stm32f1xx_ll_sdmmc.c **** }  
 425:Drivers/STM32F1xx_HAL_Driver/Src/stm32f1xx_ll_sdmmc.c **** 
 426:Drivers/STM32F1xx_HAL_Driver/Src/stm32f1xx_ll_sdmmc.c **** /**
 427:Drivers/STM32F1xx_HAL_Driver/Src/stm32f1xx_ll_sdmmc.c ****   * @brief  Configure the SDMMC data path according to the specified 
 428:Drivers/STM32F1xx_HAL_Driver/Src/stm32f1xx_ll_sdmmc.c ****   *         parameters in the SDIO_DataInitTypeDef.
 429:Drivers/STM32F1xx_HAL_Driver/Src/stm32f1xx_ll_sdmmc.c ****   * @param  SDIOx: Pointer to SDMMC register base  
 430:Drivers/STM32F1xx_HAL_Driver/Src/stm32f1xx_ll_sdmmc.c ****   * @param  Data : pointer to a SDIO_DataInitTypeDef structure 
 431:Drivers/STM32F1xx_HAL_Driver/Src/stm32f1xx_ll_sdmmc.c ****   *         that contains the configuration information for the SDMMC data.
 432:Drivers/STM32F1xx_HAL_Driver/Src/stm32f1xx_ll_sdmmc.c ****   * @retval HAL status
ARM GAS  /tmp/ccBn9PL3.s 			page 9


 433:Drivers/STM32F1xx_HAL_Driver/Src/stm32f1xx_ll_sdmmc.c ****   */
 434:Drivers/STM32F1xx_HAL_Driver/Src/stm32f1xx_ll_sdmmc.c **** HAL_StatusTypeDef SDIO_ConfigData(SDIO_TypeDef *SDIOx, SDIO_DataInitTypeDef* Data)
 435:Drivers/STM32F1xx_HAL_Driver/Src/stm32f1xx_ll_sdmmc.c **** {
 436:Drivers/STM32F1xx_HAL_Driver/Src/stm32f1xx_ll_sdmmc.c ****   uint32_t tmpreg = 0U;
 437:Drivers/STM32F1xx_HAL_Driver/Src/stm32f1xx_ll_sdmmc.c ****   
 438:Drivers/STM32F1xx_HAL_Driver/Src/stm32f1xx_ll_sdmmc.c ****   /* Check the parameters */
 439:Drivers/STM32F1xx_HAL_Driver/Src/stm32f1xx_ll_sdmmc.c ****   assert_param(IS_SDIO_DATA_LENGTH(Data->DataLength));
 440:Drivers/STM32F1xx_HAL_Driver/Src/stm32f1xx_ll_sdmmc.c ****   assert_param(IS_SDIO_BLOCK_SIZE(Data->DataBlockSize));
 441:Drivers/STM32F1xx_HAL_Driver/Src/stm32f1xx_ll_sdmmc.c ****   assert_param(IS_SDIO_TRANSFER_DIR(Data->TransferDir));
 442:Drivers/STM32F1xx_HAL_Driver/Src/stm32f1xx_ll_sdmmc.c ****   assert_param(IS_SDIO_TRANSFER_MODE(Data->TransferMode));
 443:Drivers/STM32F1xx_HAL_Driver/Src/stm32f1xx_ll_sdmmc.c ****   assert_param(IS_SDIO_DPSM(Data->DPSM));
 444:Drivers/STM32F1xx_HAL_Driver/Src/stm32f1xx_ll_sdmmc.c **** 
 445:Drivers/STM32F1xx_HAL_Driver/Src/stm32f1xx_ll_sdmmc.c ****   /* Set the SDMMC Data TimeOut value */
 446:Drivers/STM32F1xx_HAL_Driver/Src/stm32f1xx_ll_sdmmc.c ****   SDIOx->DTIMER = Data->DataTimeOut;
 447:Drivers/STM32F1xx_HAL_Driver/Src/stm32f1xx_ll_sdmmc.c **** 
 448:Drivers/STM32F1xx_HAL_Driver/Src/stm32f1xx_ll_sdmmc.c ****   /* Set the SDMMC DataLength value */
 449:Drivers/STM32F1xx_HAL_Driver/Src/stm32f1xx_ll_sdmmc.c ****   SDIOx->DLEN = Data->DataLength;
 450:Drivers/STM32F1xx_HAL_Driver/Src/stm32f1xx_ll_sdmmc.c **** 
 451:Drivers/STM32F1xx_HAL_Driver/Src/stm32f1xx_ll_sdmmc.c ****   /* Set the SDMMC data configuration parameters */
 452:Drivers/STM32F1xx_HAL_Driver/Src/stm32f1xx_ll_sdmmc.c ****   tmpreg |= (uint32_t)(Data->DataBlockSize |\
 453:Drivers/STM32F1xx_HAL_Driver/Src/stm32f1xx_ll_sdmmc.c ****                        Data->TransferDir   |\
 454:Drivers/STM32F1xx_HAL_Driver/Src/stm32f1xx_ll_sdmmc.c ****                        Data->TransferMode  |\
 455:Drivers/STM32F1xx_HAL_Driver/Src/stm32f1xx_ll_sdmmc.c ****                        Data->DPSM);
 456:Drivers/STM32F1xx_HAL_Driver/Src/stm32f1xx_ll_sdmmc.c ****   
 457:Drivers/STM32F1xx_HAL_Driver/Src/stm32f1xx_ll_sdmmc.c ****   /* Write to SDMMC DCTRL */
 458:Drivers/STM32F1xx_HAL_Driver/Src/stm32f1xx_ll_sdmmc.c ****   MODIFY_REG(SDIOx->DCTRL, DCTRL_CLEAR_MASK, tmpreg);
 459:Drivers/STM32F1xx_HAL_Driver/Src/stm32f1xx_ll_sdmmc.c **** 
 460:Drivers/STM32F1xx_HAL_Driver/Src/stm32f1xx_ll_sdmmc.c ****   return HAL_OK;
 461:Drivers/STM32F1xx_HAL_Driver/Src/stm32f1xx_ll_sdmmc.c **** 
 462:Drivers/STM32F1xx_HAL_Driver/Src/stm32f1xx_ll_sdmmc.c **** }
 463:Drivers/STM32F1xx_HAL_Driver/Src/stm32f1xx_ll_sdmmc.c **** 
 464:Drivers/STM32F1xx_HAL_Driver/Src/stm32f1xx_ll_sdmmc.c **** /**
 465:Drivers/STM32F1xx_HAL_Driver/Src/stm32f1xx_ll_sdmmc.c ****   * @brief  Returns number of remaining data bytes to be transferred.
 466:Drivers/STM32F1xx_HAL_Driver/Src/stm32f1xx_ll_sdmmc.c ****   * @param  SDIOx: Pointer to SDMMC register base
 467:Drivers/STM32F1xx_HAL_Driver/Src/stm32f1xx_ll_sdmmc.c ****   * @retval Number of remaining data bytes to be transferred
 468:Drivers/STM32F1xx_HAL_Driver/Src/stm32f1xx_ll_sdmmc.c ****   */
 469:Drivers/STM32F1xx_HAL_Driver/Src/stm32f1xx_ll_sdmmc.c **** uint32_t SDIO_GetDataCounter(SDIO_TypeDef *SDIOx)
 470:Drivers/STM32F1xx_HAL_Driver/Src/stm32f1xx_ll_sdmmc.c **** {
 471:Drivers/STM32F1xx_HAL_Driver/Src/stm32f1xx_ll_sdmmc.c ****   return (SDIOx->DCOUNT);
 472:Drivers/STM32F1xx_HAL_Driver/Src/stm32f1xx_ll_sdmmc.c **** }
 473:Drivers/STM32F1xx_HAL_Driver/Src/stm32f1xx_ll_sdmmc.c **** 
 474:Drivers/STM32F1xx_HAL_Driver/Src/stm32f1xx_ll_sdmmc.c **** /**
 475:Drivers/STM32F1xx_HAL_Driver/Src/stm32f1xx_ll_sdmmc.c ****   * @brief  Get the FIFO data
 476:Drivers/STM32F1xx_HAL_Driver/Src/stm32f1xx_ll_sdmmc.c ****   * @param  SDIOx: Pointer to SDMMC register base 
 477:Drivers/STM32F1xx_HAL_Driver/Src/stm32f1xx_ll_sdmmc.c ****   * @retval Data received
 478:Drivers/STM32F1xx_HAL_Driver/Src/stm32f1xx_ll_sdmmc.c ****   */
 479:Drivers/STM32F1xx_HAL_Driver/Src/stm32f1xx_ll_sdmmc.c **** uint32_t SDIO_GetFIFOCount(SDIO_TypeDef *SDIOx)
 480:Drivers/STM32F1xx_HAL_Driver/Src/stm32f1xx_ll_sdmmc.c **** {
 481:Drivers/STM32F1xx_HAL_Driver/Src/stm32f1xx_ll_sdmmc.c ****   return (SDIOx->FIFO);
 482:Drivers/STM32F1xx_HAL_Driver/Src/stm32f1xx_ll_sdmmc.c **** }
 483:Drivers/STM32F1xx_HAL_Driver/Src/stm32f1xx_ll_sdmmc.c **** 
 484:Drivers/STM32F1xx_HAL_Driver/Src/stm32f1xx_ll_sdmmc.c **** /**
 485:Drivers/STM32F1xx_HAL_Driver/Src/stm32f1xx_ll_sdmmc.c ****   * @brief  Sets one of the two options of inserting read wait interval.
 486:Drivers/STM32F1xx_HAL_Driver/Src/stm32f1xx_ll_sdmmc.c ****   * @param  SDIOx: Pointer to SDMMC register base   
 487:Drivers/STM32F1xx_HAL_Driver/Src/stm32f1xx_ll_sdmmc.c ****   * @param  SDIO_ReadWaitMode: SDMMC Read Wait operation mode.
 488:Drivers/STM32F1xx_HAL_Driver/Src/stm32f1xx_ll_sdmmc.c ****   *          This parameter can be:
 489:Drivers/STM32F1xx_HAL_Driver/Src/stm32f1xx_ll_sdmmc.c ****   *            @arg SDIO_READ_WAIT_MODE_CLK: Read Wait control by stopping SDMMCCLK
ARM GAS  /tmp/ccBn9PL3.s 			page 10


 490:Drivers/STM32F1xx_HAL_Driver/Src/stm32f1xx_ll_sdmmc.c ****   *            @arg SDIO_READ_WAIT_MODE_DATA2: Read Wait control using SDMMC_DATA2
 491:Drivers/STM32F1xx_HAL_Driver/Src/stm32f1xx_ll_sdmmc.c ****   * @retval None
 492:Drivers/STM32F1xx_HAL_Driver/Src/stm32f1xx_ll_sdmmc.c ****   */
 493:Drivers/STM32F1xx_HAL_Driver/Src/stm32f1xx_ll_sdmmc.c **** HAL_StatusTypeDef SDIO_SetSDMMCReadWaitMode(SDIO_TypeDef *SDIOx, uint32_t SDIO_ReadWaitMode)
 494:Drivers/STM32F1xx_HAL_Driver/Src/stm32f1xx_ll_sdmmc.c **** {
 495:Drivers/STM32F1xx_HAL_Driver/Src/stm32f1xx_ll_sdmmc.c ****   /* Check the parameters */
 496:Drivers/STM32F1xx_HAL_Driver/Src/stm32f1xx_ll_sdmmc.c ****   assert_param(IS_SDIO_READWAIT_MODE(SDIO_ReadWaitMode));
 497:Drivers/STM32F1xx_HAL_Driver/Src/stm32f1xx_ll_sdmmc.c **** 
 498:Drivers/STM32F1xx_HAL_Driver/Src/stm32f1xx_ll_sdmmc.c ****   /* Set SDMMC read wait mode */
 499:Drivers/STM32F1xx_HAL_Driver/Src/stm32f1xx_ll_sdmmc.c ****   MODIFY_REG(SDIOx->DCTRL, SDIO_DCTRL_RWMOD, SDIO_ReadWaitMode);
 500:Drivers/STM32F1xx_HAL_Driver/Src/stm32f1xx_ll_sdmmc.c ****   
 501:Drivers/STM32F1xx_HAL_Driver/Src/stm32f1xx_ll_sdmmc.c ****   return HAL_OK;  
 502:Drivers/STM32F1xx_HAL_Driver/Src/stm32f1xx_ll_sdmmc.c **** }
 503:Drivers/STM32F1xx_HAL_Driver/Src/stm32f1xx_ll_sdmmc.c **** 
 504:Drivers/STM32F1xx_HAL_Driver/Src/stm32f1xx_ll_sdmmc.c **** /**
 505:Drivers/STM32F1xx_HAL_Driver/Src/stm32f1xx_ll_sdmmc.c ****   * @}
 506:Drivers/STM32F1xx_HAL_Driver/Src/stm32f1xx_ll_sdmmc.c ****   */
 507:Drivers/STM32F1xx_HAL_Driver/Src/stm32f1xx_ll_sdmmc.c **** 
 508:Drivers/STM32F1xx_HAL_Driver/Src/stm32f1xx_ll_sdmmc.c **** 
 509:Drivers/STM32F1xx_HAL_Driver/Src/stm32f1xx_ll_sdmmc.c **** /** @defgroup HAL_SDMMC_LL_Group4 Command management functions 
 510:Drivers/STM32F1xx_HAL_Driver/Src/stm32f1xx_ll_sdmmc.c ****  *  @brief   Data transfers functions 
 511:Drivers/STM32F1xx_HAL_Driver/Src/stm32f1xx_ll_sdmmc.c ****  *
 512:Drivers/STM32F1xx_HAL_Driver/Src/stm32f1xx_ll_sdmmc.c **** @verbatim   
 513:Drivers/STM32F1xx_HAL_Driver/Src/stm32f1xx_ll_sdmmc.c ****  ===============================================================================
 514:Drivers/STM32F1xx_HAL_Driver/Src/stm32f1xx_ll_sdmmc.c ****                    ##### Commands management functions #####
 515:Drivers/STM32F1xx_HAL_Driver/Src/stm32f1xx_ll_sdmmc.c ****  ===============================================================================  
 516:Drivers/STM32F1xx_HAL_Driver/Src/stm32f1xx_ll_sdmmc.c ****     [..]
 517:Drivers/STM32F1xx_HAL_Driver/Src/stm32f1xx_ll_sdmmc.c ****     This subsection provides a set of functions allowing to manage the needed commands.
 518:Drivers/STM32F1xx_HAL_Driver/Src/stm32f1xx_ll_sdmmc.c **** 
 519:Drivers/STM32F1xx_HAL_Driver/Src/stm32f1xx_ll_sdmmc.c **** @endverbatim
 520:Drivers/STM32F1xx_HAL_Driver/Src/stm32f1xx_ll_sdmmc.c ****   * @{
 521:Drivers/STM32F1xx_HAL_Driver/Src/stm32f1xx_ll_sdmmc.c ****   */
 522:Drivers/STM32F1xx_HAL_Driver/Src/stm32f1xx_ll_sdmmc.c **** 
 523:Drivers/STM32F1xx_HAL_Driver/Src/stm32f1xx_ll_sdmmc.c **** /**
 524:Drivers/STM32F1xx_HAL_Driver/Src/stm32f1xx_ll_sdmmc.c ****   * @brief  Send the Data Block Lenght command and check the response
 525:Drivers/STM32F1xx_HAL_Driver/Src/stm32f1xx_ll_sdmmc.c ****   * @param  SDIOx: Pointer to SDMMC register base 
 526:Drivers/STM32F1xx_HAL_Driver/Src/stm32f1xx_ll_sdmmc.c ****   * @retval HAL status
 527:Drivers/STM32F1xx_HAL_Driver/Src/stm32f1xx_ll_sdmmc.c ****   */
 528:Drivers/STM32F1xx_HAL_Driver/Src/stm32f1xx_ll_sdmmc.c **** uint32_t SDMMC_CmdBlockLength(SDIO_TypeDef *SDIOx, uint32_t BlockSize)
 529:Drivers/STM32F1xx_HAL_Driver/Src/stm32f1xx_ll_sdmmc.c **** {
 530:Drivers/STM32F1xx_HAL_Driver/Src/stm32f1xx_ll_sdmmc.c ****   SDIO_CmdInitTypeDef  sdmmc_cmdinit;
 531:Drivers/STM32F1xx_HAL_Driver/Src/stm32f1xx_ll_sdmmc.c ****   uint32_t errorstate = SDMMC_ERROR_NONE;
 532:Drivers/STM32F1xx_HAL_Driver/Src/stm32f1xx_ll_sdmmc.c ****   
 533:Drivers/STM32F1xx_HAL_Driver/Src/stm32f1xx_ll_sdmmc.c ****   /* Set Block Size for Card */ 
 534:Drivers/STM32F1xx_HAL_Driver/Src/stm32f1xx_ll_sdmmc.c ****   sdmmc_cmdinit.Argument         = (uint32_t)BlockSize;
 535:Drivers/STM32F1xx_HAL_Driver/Src/stm32f1xx_ll_sdmmc.c ****   sdmmc_cmdinit.CmdIndex         = SDMMC_CMD_SET_BLOCKLEN;
 536:Drivers/STM32F1xx_HAL_Driver/Src/stm32f1xx_ll_sdmmc.c ****   sdmmc_cmdinit.Response         = SDIO_RESPONSE_SHORT;
 537:Drivers/STM32F1xx_HAL_Driver/Src/stm32f1xx_ll_sdmmc.c ****   sdmmc_cmdinit.WaitForInterrupt = SDIO_WAIT_NO;
 538:Drivers/STM32F1xx_HAL_Driver/Src/stm32f1xx_ll_sdmmc.c ****   sdmmc_cmdinit.CPSM             = SDIO_CPSM_ENABLE;
 539:Drivers/STM32F1xx_HAL_Driver/Src/stm32f1xx_ll_sdmmc.c ****   SDIO_SendCommand(SDIOx, &sdmmc_cmdinit);
 540:Drivers/STM32F1xx_HAL_Driver/Src/stm32f1xx_ll_sdmmc.c ****   
 541:Drivers/STM32F1xx_HAL_Driver/Src/stm32f1xx_ll_sdmmc.c ****   /* Check for error conditions */
 542:Drivers/STM32F1xx_HAL_Driver/Src/stm32f1xx_ll_sdmmc.c ****   errorstate = SDMMC_GetCmdResp1(SDIOx, SDMMC_CMD_SET_BLOCKLEN, SDIO_CMDTIMEOUT);
 543:Drivers/STM32F1xx_HAL_Driver/Src/stm32f1xx_ll_sdmmc.c **** 
 544:Drivers/STM32F1xx_HAL_Driver/Src/stm32f1xx_ll_sdmmc.c ****   return errorstate;
 545:Drivers/STM32F1xx_HAL_Driver/Src/stm32f1xx_ll_sdmmc.c **** }
 546:Drivers/STM32F1xx_HAL_Driver/Src/stm32f1xx_ll_sdmmc.c **** 
ARM GAS  /tmp/ccBn9PL3.s 			page 11


 547:Drivers/STM32F1xx_HAL_Driver/Src/stm32f1xx_ll_sdmmc.c **** /**
 548:Drivers/STM32F1xx_HAL_Driver/Src/stm32f1xx_ll_sdmmc.c ****   * @brief  Send the Read Single Block command and check the response
 549:Drivers/STM32F1xx_HAL_Driver/Src/stm32f1xx_ll_sdmmc.c ****   * @param  SDIOx: Pointer to SDMMC register base 
 550:Drivers/STM32F1xx_HAL_Driver/Src/stm32f1xx_ll_sdmmc.c ****   * @retval HAL status
 551:Drivers/STM32F1xx_HAL_Driver/Src/stm32f1xx_ll_sdmmc.c ****   */
 552:Drivers/STM32F1xx_HAL_Driver/Src/stm32f1xx_ll_sdmmc.c **** uint32_t SDMMC_CmdReadSingleBlock(SDIO_TypeDef *SDIOx, uint32_t ReadAdd)
 553:Drivers/STM32F1xx_HAL_Driver/Src/stm32f1xx_ll_sdmmc.c **** {
 554:Drivers/STM32F1xx_HAL_Driver/Src/stm32f1xx_ll_sdmmc.c ****   SDIO_CmdInitTypeDef  sdmmc_cmdinit;
 555:Drivers/STM32F1xx_HAL_Driver/Src/stm32f1xx_ll_sdmmc.c ****   uint32_t errorstate = SDMMC_ERROR_NONE;
 556:Drivers/STM32F1xx_HAL_Driver/Src/stm32f1xx_ll_sdmmc.c ****   
 557:Drivers/STM32F1xx_HAL_Driver/Src/stm32f1xx_ll_sdmmc.c ****   /* Set Block Size for Card */ 
 558:Drivers/STM32F1xx_HAL_Driver/Src/stm32f1xx_ll_sdmmc.c ****   sdmmc_cmdinit.Argument         = (uint32_t)ReadAdd;
 559:Drivers/STM32F1xx_HAL_Driver/Src/stm32f1xx_ll_sdmmc.c ****   sdmmc_cmdinit.CmdIndex         = SDMMC_CMD_READ_SINGLE_BLOCK;
 560:Drivers/STM32F1xx_HAL_Driver/Src/stm32f1xx_ll_sdmmc.c ****   sdmmc_cmdinit.Response         = SDIO_RESPONSE_SHORT;
 561:Drivers/STM32F1xx_HAL_Driver/Src/stm32f1xx_ll_sdmmc.c ****   sdmmc_cmdinit.WaitForInterrupt = SDIO_WAIT_NO;
 562:Drivers/STM32F1xx_HAL_Driver/Src/stm32f1xx_ll_sdmmc.c ****   sdmmc_cmdinit.CPSM             = SDIO_CPSM_ENABLE;
 563:Drivers/STM32F1xx_HAL_Driver/Src/stm32f1xx_ll_sdmmc.c ****   SDIO_SendCommand(SDIOx, &sdmmc_cmdinit);
 564:Drivers/STM32F1xx_HAL_Driver/Src/stm32f1xx_ll_sdmmc.c ****   
 565:Drivers/STM32F1xx_HAL_Driver/Src/stm32f1xx_ll_sdmmc.c ****   /* Check for error conditions */
 566:Drivers/STM32F1xx_HAL_Driver/Src/stm32f1xx_ll_sdmmc.c ****   errorstate = SDMMC_GetCmdResp1(SDIOx, SDMMC_CMD_READ_SINGLE_BLOCK, SDIO_CMDTIMEOUT);
 567:Drivers/STM32F1xx_HAL_Driver/Src/stm32f1xx_ll_sdmmc.c **** 
 568:Drivers/STM32F1xx_HAL_Driver/Src/stm32f1xx_ll_sdmmc.c ****   return errorstate;
 569:Drivers/STM32F1xx_HAL_Driver/Src/stm32f1xx_ll_sdmmc.c **** }
 570:Drivers/STM32F1xx_HAL_Driver/Src/stm32f1xx_ll_sdmmc.c **** 
 571:Drivers/STM32F1xx_HAL_Driver/Src/stm32f1xx_ll_sdmmc.c **** /**
 572:Drivers/STM32F1xx_HAL_Driver/Src/stm32f1xx_ll_sdmmc.c ****   * @brief  Send the Read Multi Block command and check the response
 573:Drivers/STM32F1xx_HAL_Driver/Src/stm32f1xx_ll_sdmmc.c ****   * @param  SDIOx: Pointer to SDIO register base 
 574:Drivers/STM32F1xx_HAL_Driver/Src/stm32f1xx_ll_sdmmc.c ****   * @retval HAL status
 575:Drivers/STM32F1xx_HAL_Driver/Src/stm32f1xx_ll_sdmmc.c ****   */
 576:Drivers/STM32F1xx_HAL_Driver/Src/stm32f1xx_ll_sdmmc.c **** uint32_t SDMMC_CmdReadMultiBlock(SDIO_TypeDef *SDIOx, uint32_t ReadAdd)
 577:Drivers/STM32F1xx_HAL_Driver/Src/stm32f1xx_ll_sdmmc.c **** {
 578:Drivers/STM32F1xx_HAL_Driver/Src/stm32f1xx_ll_sdmmc.c ****   SDIO_CmdInitTypeDef  sdmmc_cmdinit;
 579:Drivers/STM32F1xx_HAL_Driver/Src/stm32f1xx_ll_sdmmc.c ****   uint32_t errorstate = SDMMC_ERROR_NONE;
 580:Drivers/STM32F1xx_HAL_Driver/Src/stm32f1xx_ll_sdmmc.c ****   
 581:Drivers/STM32F1xx_HAL_Driver/Src/stm32f1xx_ll_sdmmc.c ****   /* Set Block Size for Card */ 
 582:Drivers/STM32F1xx_HAL_Driver/Src/stm32f1xx_ll_sdmmc.c ****   sdmmc_cmdinit.Argument         = (uint32_t)ReadAdd;
 583:Drivers/STM32F1xx_HAL_Driver/Src/stm32f1xx_ll_sdmmc.c ****   sdmmc_cmdinit.CmdIndex         = SDMMC_CMD_READ_MULT_BLOCK;
 584:Drivers/STM32F1xx_HAL_Driver/Src/stm32f1xx_ll_sdmmc.c ****   sdmmc_cmdinit.Response         = SDIO_RESPONSE_SHORT;
 585:Drivers/STM32F1xx_HAL_Driver/Src/stm32f1xx_ll_sdmmc.c ****   sdmmc_cmdinit.WaitForInterrupt = SDIO_WAIT_NO;
 586:Drivers/STM32F1xx_HAL_Driver/Src/stm32f1xx_ll_sdmmc.c ****   sdmmc_cmdinit.CPSM             = SDIO_CPSM_ENABLE;
 587:Drivers/STM32F1xx_HAL_Driver/Src/stm32f1xx_ll_sdmmc.c ****   SDIO_SendCommand(SDIOx, &sdmmc_cmdinit);
 588:Drivers/STM32F1xx_HAL_Driver/Src/stm32f1xx_ll_sdmmc.c ****   
 589:Drivers/STM32F1xx_HAL_Driver/Src/stm32f1xx_ll_sdmmc.c ****   /* Check for error conditions */
 590:Drivers/STM32F1xx_HAL_Driver/Src/stm32f1xx_ll_sdmmc.c ****   errorstate = SDMMC_GetCmdResp1(SDIOx, SDMMC_CMD_READ_MULT_BLOCK, SDIO_CMDTIMEOUT);
 591:Drivers/STM32F1xx_HAL_Driver/Src/stm32f1xx_ll_sdmmc.c **** 
 592:Drivers/STM32F1xx_HAL_Driver/Src/stm32f1xx_ll_sdmmc.c ****   return errorstate;
 593:Drivers/STM32F1xx_HAL_Driver/Src/stm32f1xx_ll_sdmmc.c **** }
 594:Drivers/STM32F1xx_HAL_Driver/Src/stm32f1xx_ll_sdmmc.c **** 
 595:Drivers/STM32F1xx_HAL_Driver/Src/stm32f1xx_ll_sdmmc.c **** /**
 596:Drivers/STM32F1xx_HAL_Driver/Src/stm32f1xx_ll_sdmmc.c ****   * @brief  Send the Write Single Block command and check the response
 597:Drivers/STM32F1xx_HAL_Driver/Src/stm32f1xx_ll_sdmmc.c ****   * @param  SDIOx: Pointer to SDIO register base 
 598:Drivers/STM32F1xx_HAL_Driver/Src/stm32f1xx_ll_sdmmc.c ****   * @retval HAL status
 599:Drivers/STM32F1xx_HAL_Driver/Src/stm32f1xx_ll_sdmmc.c ****   */
 600:Drivers/STM32F1xx_HAL_Driver/Src/stm32f1xx_ll_sdmmc.c **** uint32_t SDMMC_CmdWriteSingleBlock(SDIO_TypeDef *SDIOx, uint32_t WriteAdd)
 601:Drivers/STM32F1xx_HAL_Driver/Src/stm32f1xx_ll_sdmmc.c **** {
 602:Drivers/STM32F1xx_HAL_Driver/Src/stm32f1xx_ll_sdmmc.c ****   SDIO_CmdInitTypeDef  sdmmc_cmdinit;
 603:Drivers/STM32F1xx_HAL_Driver/Src/stm32f1xx_ll_sdmmc.c ****   uint32_t errorstate = SDMMC_ERROR_NONE;
ARM GAS  /tmp/ccBn9PL3.s 			page 12


 604:Drivers/STM32F1xx_HAL_Driver/Src/stm32f1xx_ll_sdmmc.c ****   
 605:Drivers/STM32F1xx_HAL_Driver/Src/stm32f1xx_ll_sdmmc.c ****   /* Set Block Size for Card */ 
 606:Drivers/STM32F1xx_HAL_Driver/Src/stm32f1xx_ll_sdmmc.c ****   sdmmc_cmdinit.Argument         = (uint32_t)WriteAdd;
 607:Drivers/STM32F1xx_HAL_Driver/Src/stm32f1xx_ll_sdmmc.c ****   sdmmc_cmdinit.CmdIndex         = SDMMC_CMD_WRITE_SINGLE_BLOCK;
 608:Drivers/STM32F1xx_HAL_Driver/Src/stm32f1xx_ll_sdmmc.c ****   sdmmc_cmdinit.Response         = SDIO_RESPONSE_SHORT;
 609:Drivers/STM32F1xx_HAL_Driver/Src/stm32f1xx_ll_sdmmc.c ****   sdmmc_cmdinit.WaitForInterrupt = SDIO_WAIT_NO;
 610:Drivers/STM32F1xx_HAL_Driver/Src/stm32f1xx_ll_sdmmc.c ****   sdmmc_cmdinit.CPSM             = SDIO_CPSM_ENABLE;
 611:Drivers/STM32F1xx_HAL_Driver/Src/stm32f1xx_ll_sdmmc.c ****   SDIO_SendCommand(SDIOx, &sdmmc_cmdinit);
 612:Drivers/STM32F1xx_HAL_Driver/Src/stm32f1xx_ll_sdmmc.c ****   
 613:Drivers/STM32F1xx_HAL_Driver/Src/stm32f1xx_ll_sdmmc.c ****   /* Check for error conditions */
 614:Drivers/STM32F1xx_HAL_Driver/Src/stm32f1xx_ll_sdmmc.c ****   errorstate = SDMMC_GetCmdResp1(SDIOx, SDMMC_CMD_WRITE_SINGLE_BLOCK, SDIO_CMDTIMEOUT);
 615:Drivers/STM32F1xx_HAL_Driver/Src/stm32f1xx_ll_sdmmc.c **** 
 616:Drivers/STM32F1xx_HAL_Driver/Src/stm32f1xx_ll_sdmmc.c ****   return errorstate;
 617:Drivers/STM32F1xx_HAL_Driver/Src/stm32f1xx_ll_sdmmc.c **** }
 618:Drivers/STM32F1xx_HAL_Driver/Src/stm32f1xx_ll_sdmmc.c **** 
 619:Drivers/STM32F1xx_HAL_Driver/Src/stm32f1xx_ll_sdmmc.c **** /**
 620:Drivers/STM32F1xx_HAL_Driver/Src/stm32f1xx_ll_sdmmc.c ****   * @brief  Send the Write Multi Block command and check the response
 621:Drivers/STM32F1xx_HAL_Driver/Src/stm32f1xx_ll_sdmmc.c ****   * @param  SDIOx: Pointer to SDIO register base 
 622:Drivers/STM32F1xx_HAL_Driver/Src/stm32f1xx_ll_sdmmc.c ****   * @retval HAL status
 623:Drivers/STM32F1xx_HAL_Driver/Src/stm32f1xx_ll_sdmmc.c ****   */
 624:Drivers/STM32F1xx_HAL_Driver/Src/stm32f1xx_ll_sdmmc.c **** uint32_t SDMMC_CmdWriteMultiBlock(SDIO_TypeDef *SDIOx, uint32_t WriteAdd)
 625:Drivers/STM32F1xx_HAL_Driver/Src/stm32f1xx_ll_sdmmc.c **** {
 626:Drivers/STM32F1xx_HAL_Driver/Src/stm32f1xx_ll_sdmmc.c ****   SDIO_CmdInitTypeDef  sdmmc_cmdinit;
 627:Drivers/STM32F1xx_HAL_Driver/Src/stm32f1xx_ll_sdmmc.c ****   uint32_t errorstate = SDMMC_ERROR_NONE;
 628:Drivers/STM32F1xx_HAL_Driver/Src/stm32f1xx_ll_sdmmc.c ****   
 629:Drivers/STM32F1xx_HAL_Driver/Src/stm32f1xx_ll_sdmmc.c ****   /* Set Block Size for Card */ 
 630:Drivers/STM32F1xx_HAL_Driver/Src/stm32f1xx_ll_sdmmc.c ****   sdmmc_cmdinit.Argument         = (uint32_t)WriteAdd;
 631:Drivers/STM32F1xx_HAL_Driver/Src/stm32f1xx_ll_sdmmc.c ****   sdmmc_cmdinit.CmdIndex         = SDMMC_CMD_WRITE_MULT_BLOCK;
 632:Drivers/STM32F1xx_HAL_Driver/Src/stm32f1xx_ll_sdmmc.c ****   sdmmc_cmdinit.Response         = SDIO_RESPONSE_SHORT;
 633:Drivers/STM32F1xx_HAL_Driver/Src/stm32f1xx_ll_sdmmc.c ****   sdmmc_cmdinit.WaitForInterrupt = SDIO_WAIT_NO;
 634:Drivers/STM32F1xx_HAL_Driver/Src/stm32f1xx_ll_sdmmc.c ****   sdmmc_cmdinit.CPSM             = SDIO_CPSM_ENABLE;
 635:Drivers/STM32F1xx_HAL_Driver/Src/stm32f1xx_ll_sdmmc.c ****   SDIO_SendCommand(SDIOx, &sdmmc_cmdinit);
 636:Drivers/STM32F1xx_HAL_Driver/Src/stm32f1xx_ll_sdmmc.c ****   
 637:Drivers/STM32F1xx_HAL_Driver/Src/stm32f1xx_ll_sdmmc.c ****   /* Check for error conditions */
 638:Drivers/STM32F1xx_HAL_Driver/Src/stm32f1xx_ll_sdmmc.c ****   errorstate = SDMMC_GetCmdResp1(SDIOx, SDMMC_CMD_WRITE_MULT_BLOCK, SDIO_CMDTIMEOUT);
 639:Drivers/STM32F1xx_HAL_Driver/Src/stm32f1xx_ll_sdmmc.c **** 
 640:Drivers/STM32F1xx_HAL_Driver/Src/stm32f1xx_ll_sdmmc.c ****   return errorstate;
 641:Drivers/STM32F1xx_HAL_Driver/Src/stm32f1xx_ll_sdmmc.c **** }
 642:Drivers/STM32F1xx_HAL_Driver/Src/stm32f1xx_ll_sdmmc.c **** 
 643:Drivers/STM32F1xx_HAL_Driver/Src/stm32f1xx_ll_sdmmc.c **** /**
 644:Drivers/STM32F1xx_HAL_Driver/Src/stm32f1xx_ll_sdmmc.c ****   * @brief  Send the Start Address Erase command for SD and check the response
 645:Drivers/STM32F1xx_HAL_Driver/Src/stm32f1xx_ll_sdmmc.c ****   * @param  SDIOx: Pointer to SDIO register base 
 646:Drivers/STM32F1xx_HAL_Driver/Src/stm32f1xx_ll_sdmmc.c ****   * @retval HAL status
 647:Drivers/STM32F1xx_HAL_Driver/Src/stm32f1xx_ll_sdmmc.c ****   */
 648:Drivers/STM32F1xx_HAL_Driver/Src/stm32f1xx_ll_sdmmc.c **** uint32_t SDMMC_CmdSDEraseStartAdd(SDIO_TypeDef *SDIOx, uint32_t StartAdd)
 649:Drivers/STM32F1xx_HAL_Driver/Src/stm32f1xx_ll_sdmmc.c **** {
 650:Drivers/STM32F1xx_HAL_Driver/Src/stm32f1xx_ll_sdmmc.c ****   SDIO_CmdInitTypeDef  sdmmc_cmdinit;
 651:Drivers/STM32F1xx_HAL_Driver/Src/stm32f1xx_ll_sdmmc.c ****   uint32_t errorstate = SDMMC_ERROR_NONE;
 652:Drivers/STM32F1xx_HAL_Driver/Src/stm32f1xx_ll_sdmmc.c ****   
 653:Drivers/STM32F1xx_HAL_Driver/Src/stm32f1xx_ll_sdmmc.c ****   /* Set Block Size for Card */ 
 654:Drivers/STM32F1xx_HAL_Driver/Src/stm32f1xx_ll_sdmmc.c ****   sdmmc_cmdinit.Argument         = (uint32_t)StartAdd;
 655:Drivers/STM32F1xx_HAL_Driver/Src/stm32f1xx_ll_sdmmc.c ****   sdmmc_cmdinit.CmdIndex         = SDMMC_CMD_SD_ERASE_GRP_START;
 656:Drivers/STM32F1xx_HAL_Driver/Src/stm32f1xx_ll_sdmmc.c ****   sdmmc_cmdinit.Response         = SDIO_RESPONSE_SHORT;
 657:Drivers/STM32F1xx_HAL_Driver/Src/stm32f1xx_ll_sdmmc.c ****   sdmmc_cmdinit.WaitForInterrupt = SDIO_WAIT_NO;
 658:Drivers/STM32F1xx_HAL_Driver/Src/stm32f1xx_ll_sdmmc.c ****   sdmmc_cmdinit.CPSM             = SDIO_CPSM_ENABLE;
 659:Drivers/STM32F1xx_HAL_Driver/Src/stm32f1xx_ll_sdmmc.c ****   SDIO_SendCommand(SDIOx, &sdmmc_cmdinit);
 660:Drivers/STM32F1xx_HAL_Driver/Src/stm32f1xx_ll_sdmmc.c ****   
ARM GAS  /tmp/ccBn9PL3.s 			page 13


 661:Drivers/STM32F1xx_HAL_Driver/Src/stm32f1xx_ll_sdmmc.c ****   /* Check for error conditions */
 662:Drivers/STM32F1xx_HAL_Driver/Src/stm32f1xx_ll_sdmmc.c ****   errorstate = SDMMC_GetCmdResp1(SDIOx, SDMMC_CMD_SD_ERASE_GRP_START, SDIO_CMDTIMEOUT);
 663:Drivers/STM32F1xx_HAL_Driver/Src/stm32f1xx_ll_sdmmc.c **** 
 664:Drivers/STM32F1xx_HAL_Driver/Src/stm32f1xx_ll_sdmmc.c ****   return errorstate;
 665:Drivers/STM32F1xx_HAL_Driver/Src/stm32f1xx_ll_sdmmc.c **** }
 666:Drivers/STM32F1xx_HAL_Driver/Src/stm32f1xx_ll_sdmmc.c **** 
 667:Drivers/STM32F1xx_HAL_Driver/Src/stm32f1xx_ll_sdmmc.c **** /**
 668:Drivers/STM32F1xx_HAL_Driver/Src/stm32f1xx_ll_sdmmc.c ****   * @brief  Send the End Address Erase command for SD and check the response
 669:Drivers/STM32F1xx_HAL_Driver/Src/stm32f1xx_ll_sdmmc.c ****   * @param  SDIOx: Pointer to SDIO register base 
 670:Drivers/STM32F1xx_HAL_Driver/Src/stm32f1xx_ll_sdmmc.c ****   * @retval HAL status
 671:Drivers/STM32F1xx_HAL_Driver/Src/stm32f1xx_ll_sdmmc.c ****   */
 672:Drivers/STM32F1xx_HAL_Driver/Src/stm32f1xx_ll_sdmmc.c **** uint32_t SDMMC_CmdSDEraseEndAdd(SDIO_TypeDef *SDIOx, uint32_t EndAdd)
 673:Drivers/STM32F1xx_HAL_Driver/Src/stm32f1xx_ll_sdmmc.c **** {
 674:Drivers/STM32F1xx_HAL_Driver/Src/stm32f1xx_ll_sdmmc.c ****   SDIO_CmdInitTypeDef  sdmmc_cmdinit;
 675:Drivers/STM32F1xx_HAL_Driver/Src/stm32f1xx_ll_sdmmc.c ****   uint32_t errorstate = SDMMC_ERROR_NONE;
 676:Drivers/STM32F1xx_HAL_Driver/Src/stm32f1xx_ll_sdmmc.c ****   
 677:Drivers/STM32F1xx_HAL_Driver/Src/stm32f1xx_ll_sdmmc.c ****   /* Set Block Size for Card */ 
 678:Drivers/STM32F1xx_HAL_Driver/Src/stm32f1xx_ll_sdmmc.c ****   sdmmc_cmdinit.Argument         = (uint32_t)EndAdd;
 679:Drivers/STM32F1xx_HAL_Driver/Src/stm32f1xx_ll_sdmmc.c ****   sdmmc_cmdinit.CmdIndex         = SDMMC_CMD_SD_ERASE_GRP_END;
 680:Drivers/STM32F1xx_HAL_Driver/Src/stm32f1xx_ll_sdmmc.c ****   sdmmc_cmdinit.Response         = SDIO_RESPONSE_SHORT;
 681:Drivers/STM32F1xx_HAL_Driver/Src/stm32f1xx_ll_sdmmc.c ****   sdmmc_cmdinit.WaitForInterrupt = SDIO_WAIT_NO;
 682:Drivers/STM32F1xx_HAL_Driver/Src/stm32f1xx_ll_sdmmc.c ****   sdmmc_cmdinit.CPSM             = SDIO_CPSM_ENABLE;
 683:Drivers/STM32F1xx_HAL_Driver/Src/stm32f1xx_ll_sdmmc.c ****   SDIO_SendCommand(SDIOx, &sdmmc_cmdinit);
 684:Drivers/STM32F1xx_HAL_Driver/Src/stm32f1xx_ll_sdmmc.c ****   
 685:Drivers/STM32F1xx_HAL_Driver/Src/stm32f1xx_ll_sdmmc.c ****   /* Check for error conditions */
 686:Drivers/STM32F1xx_HAL_Driver/Src/stm32f1xx_ll_sdmmc.c ****   errorstate = SDMMC_GetCmdResp1(SDIOx, SDMMC_CMD_SD_ERASE_GRP_END, SDIO_CMDTIMEOUT);
 687:Drivers/STM32F1xx_HAL_Driver/Src/stm32f1xx_ll_sdmmc.c **** 
 688:Drivers/STM32F1xx_HAL_Driver/Src/stm32f1xx_ll_sdmmc.c ****   return errorstate;
 689:Drivers/STM32F1xx_HAL_Driver/Src/stm32f1xx_ll_sdmmc.c **** }
 690:Drivers/STM32F1xx_HAL_Driver/Src/stm32f1xx_ll_sdmmc.c **** 
 691:Drivers/STM32F1xx_HAL_Driver/Src/stm32f1xx_ll_sdmmc.c **** /**
 692:Drivers/STM32F1xx_HAL_Driver/Src/stm32f1xx_ll_sdmmc.c ****   * @brief  Send the Start Address Erase command and check the response
 693:Drivers/STM32F1xx_HAL_Driver/Src/stm32f1xx_ll_sdmmc.c ****   * @param  SDIOx: Pointer to SDIO register base 
 694:Drivers/STM32F1xx_HAL_Driver/Src/stm32f1xx_ll_sdmmc.c ****   * @retval HAL status
 695:Drivers/STM32F1xx_HAL_Driver/Src/stm32f1xx_ll_sdmmc.c ****   */
 696:Drivers/STM32F1xx_HAL_Driver/Src/stm32f1xx_ll_sdmmc.c **** uint32_t SDMMC_CmdEraseStartAdd(SDIO_TypeDef *SDIOx, uint32_t StartAdd)
 697:Drivers/STM32F1xx_HAL_Driver/Src/stm32f1xx_ll_sdmmc.c **** {
 698:Drivers/STM32F1xx_HAL_Driver/Src/stm32f1xx_ll_sdmmc.c ****   SDIO_CmdInitTypeDef  sdmmc_cmdinit;
 699:Drivers/STM32F1xx_HAL_Driver/Src/stm32f1xx_ll_sdmmc.c ****   uint32_t errorstate = SDMMC_ERROR_NONE;
 700:Drivers/STM32F1xx_HAL_Driver/Src/stm32f1xx_ll_sdmmc.c ****   
 701:Drivers/STM32F1xx_HAL_Driver/Src/stm32f1xx_ll_sdmmc.c ****   /* Set Block Size for Card */ 
 702:Drivers/STM32F1xx_HAL_Driver/Src/stm32f1xx_ll_sdmmc.c ****   sdmmc_cmdinit.Argument         = (uint32_t)StartAdd;
 703:Drivers/STM32F1xx_HAL_Driver/Src/stm32f1xx_ll_sdmmc.c ****   sdmmc_cmdinit.CmdIndex         = SDMMC_CMD_ERASE_GRP_START;
 704:Drivers/STM32F1xx_HAL_Driver/Src/stm32f1xx_ll_sdmmc.c ****   sdmmc_cmdinit.Response         = SDIO_RESPONSE_SHORT;
 705:Drivers/STM32F1xx_HAL_Driver/Src/stm32f1xx_ll_sdmmc.c ****   sdmmc_cmdinit.WaitForInterrupt = SDIO_WAIT_NO;
 706:Drivers/STM32F1xx_HAL_Driver/Src/stm32f1xx_ll_sdmmc.c ****   sdmmc_cmdinit.CPSM             = SDIO_CPSM_ENABLE;
 707:Drivers/STM32F1xx_HAL_Driver/Src/stm32f1xx_ll_sdmmc.c ****   SDIO_SendCommand(SDIOx, &sdmmc_cmdinit);
 708:Drivers/STM32F1xx_HAL_Driver/Src/stm32f1xx_ll_sdmmc.c ****   
 709:Drivers/STM32F1xx_HAL_Driver/Src/stm32f1xx_ll_sdmmc.c ****   /* Check for error conditions */
 710:Drivers/STM32F1xx_HAL_Driver/Src/stm32f1xx_ll_sdmmc.c ****   errorstate = SDMMC_GetCmdResp1(SDIOx, SDMMC_CMD_ERASE_GRP_START, SDIO_CMDTIMEOUT);
 711:Drivers/STM32F1xx_HAL_Driver/Src/stm32f1xx_ll_sdmmc.c **** 
 712:Drivers/STM32F1xx_HAL_Driver/Src/stm32f1xx_ll_sdmmc.c ****   return errorstate;
 713:Drivers/STM32F1xx_HAL_Driver/Src/stm32f1xx_ll_sdmmc.c **** }
 714:Drivers/STM32F1xx_HAL_Driver/Src/stm32f1xx_ll_sdmmc.c **** 
 715:Drivers/STM32F1xx_HAL_Driver/Src/stm32f1xx_ll_sdmmc.c **** /**
 716:Drivers/STM32F1xx_HAL_Driver/Src/stm32f1xx_ll_sdmmc.c ****   * @brief  Send the End Address Erase command and check the response
 717:Drivers/STM32F1xx_HAL_Driver/Src/stm32f1xx_ll_sdmmc.c ****   * @param  SDIOx: Pointer to SDIO register base 
ARM GAS  /tmp/ccBn9PL3.s 			page 14


 718:Drivers/STM32F1xx_HAL_Driver/Src/stm32f1xx_ll_sdmmc.c ****   * @retval HAL status
 719:Drivers/STM32F1xx_HAL_Driver/Src/stm32f1xx_ll_sdmmc.c ****   */
 720:Drivers/STM32F1xx_HAL_Driver/Src/stm32f1xx_ll_sdmmc.c **** uint32_t SDMMC_CmdEraseEndAdd(SDIO_TypeDef *SDIOx, uint32_t EndAdd)
 721:Drivers/STM32F1xx_HAL_Driver/Src/stm32f1xx_ll_sdmmc.c **** {
 722:Drivers/STM32F1xx_HAL_Driver/Src/stm32f1xx_ll_sdmmc.c ****   SDIO_CmdInitTypeDef  sdmmc_cmdinit;
 723:Drivers/STM32F1xx_HAL_Driver/Src/stm32f1xx_ll_sdmmc.c ****   uint32_t errorstate = SDMMC_ERROR_NONE;
 724:Drivers/STM32F1xx_HAL_Driver/Src/stm32f1xx_ll_sdmmc.c ****   
 725:Drivers/STM32F1xx_HAL_Driver/Src/stm32f1xx_ll_sdmmc.c ****   /* Set Block Size for Card */ 
 726:Drivers/STM32F1xx_HAL_Driver/Src/stm32f1xx_ll_sdmmc.c ****   sdmmc_cmdinit.Argument         = (uint32_t)EndAdd;
 727:Drivers/STM32F1xx_HAL_Driver/Src/stm32f1xx_ll_sdmmc.c ****   sdmmc_cmdinit.CmdIndex         = SDMMC_CMD_ERASE_GRP_END;
 728:Drivers/STM32F1xx_HAL_Driver/Src/stm32f1xx_ll_sdmmc.c ****   sdmmc_cmdinit.Response         = SDIO_RESPONSE_SHORT;
 729:Drivers/STM32F1xx_HAL_Driver/Src/stm32f1xx_ll_sdmmc.c ****   sdmmc_cmdinit.WaitForInterrupt = SDIO_WAIT_NO;
 730:Drivers/STM32F1xx_HAL_Driver/Src/stm32f1xx_ll_sdmmc.c ****   sdmmc_cmdinit.CPSM             = SDIO_CPSM_ENABLE;
 731:Drivers/STM32F1xx_HAL_Driver/Src/stm32f1xx_ll_sdmmc.c ****   SDIO_SendCommand(SDIOx, &sdmmc_cmdinit);
 732:Drivers/STM32F1xx_HAL_Driver/Src/stm32f1xx_ll_sdmmc.c ****   
 733:Drivers/STM32F1xx_HAL_Driver/Src/stm32f1xx_ll_sdmmc.c ****   /* Check for error conditions */
 734:Drivers/STM32F1xx_HAL_Driver/Src/stm32f1xx_ll_sdmmc.c ****   errorstate = SDMMC_GetCmdResp1(SDIOx, SDMMC_CMD_ERASE_GRP_END, SDIO_CMDTIMEOUT);
 735:Drivers/STM32F1xx_HAL_Driver/Src/stm32f1xx_ll_sdmmc.c **** 
 736:Drivers/STM32F1xx_HAL_Driver/Src/stm32f1xx_ll_sdmmc.c ****   return errorstate;
 737:Drivers/STM32F1xx_HAL_Driver/Src/stm32f1xx_ll_sdmmc.c **** }
 738:Drivers/STM32F1xx_HAL_Driver/Src/stm32f1xx_ll_sdmmc.c **** 
 739:Drivers/STM32F1xx_HAL_Driver/Src/stm32f1xx_ll_sdmmc.c **** /**
 740:Drivers/STM32F1xx_HAL_Driver/Src/stm32f1xx_ll_sdmmc.c ****   * @brief  Send the Erase command and check the response
 741:Drivers/STM32F1xx_HAL_Driver/Src/stm32f1xx_ll_sdmmc.c ****   * @param  SDIOx: Pointer to SDIO register base 
 742:Drivers/STM32F1xx_HAL_Driver/Src/stm32f1xx_ll_sdmmc.c ****   * @retval HAL status
 743:Drivers/STM32F1xx_HAL_Driver/Src/stm32f1xx_ll_sdmmc.c ****   */
 744:Drivers/STM32F1xx_HAL_Driver/Src/stm32f1xx_ll_sdmmc.c **** uint32_t SDMMC_CmdErase(SDIO_TypeDef *SDIOx)
 745:Drivers/STM32F1xx_HAL_Driver/Src/stm32f1xx_ll_sdmmc.c **** {
 746:Drivers/STM32F1xx_HAL_Driver/Src/stm32f1xx_ll_sdmmc.c ****   SDIO_CmdInitTypeDef  sdmmc_cmdinit;
 747:Drivers/STM32F1xx_HAL_Driver/Src/stm32f1xx_ll_sdmmc.c ****   uint32_t errorstate = SDMMC_ERROR_NONE;
 748:Drivers/STM32F1xx_HAL_Driver/Src/stm32f1xx_ll_sdmmc.c ****   
 749:Drivers/STM32F1xx_HAL_Driver/Src/stm32f1xx_ll_sdmmc.c ****   /* Set Block Size for Card */ 
 750:Drivers/STM32F1xx_HAL_Driver/Src/stm32f1xx_ll_sdmmc.c ****   sdmmc_cmdinit.Argument         = 0U;
 751:Drivers/STM32F1xx_HAL_Driver/Src/stm32f1xx_ll_sdmmc.c ****   sdmmc_cmdinit.CmdIndex         = SDMMC_CMD_ERASE;
 752:Drivers/STM32F1xx_HAL_Driver/Src/stm32f1xx_ll_sdmmc.c ****   sdmmc_cmdinit.Response         = SDIO_RESPONSE_SHORT;
 753:Drivers/STM32F1xx_HAL_Driver/Src/stm32f1xx_ll_sdmmc.c ****   sdmmc_cmdinit.WaitForInterrupt = SDIO_WAIT_NO;
 754:Drivers/STM32F1xx_HAL_Driver/Src/stm32f1xx_ll_sdmmc.c ****   sdmmc_cmdinit.CPSM             = SDIO_CPSM_ENABLE;
 755:Drivers/STM32F1xx_HAL_Driver/Src/stm32f1xx_ll_sdmmc.c ****   SDIO_SendCommand(SDIOx, &sdmmc_cmdinit);
 756:Drivers/STM32F1xx_HAL_Driver/Src/stm32f1xx_ll_sdmmc.c ****   
 757:Drivers/STM32F1xx_HAL_Driver/Src/stm32f1xx_ll_sdmmc.c ****   /* Check for error conditions */
 758:Drivers/STM32F1xx_HAL_Driver/Src/stm32f1xx_ll_sdmmc.c ****   errorstate = SDMMC_GetCmdResp1(SDIOx, SDMMC_CMD_ERASE, SDIO_MAXERASETIMEOUT);
 759:Drivers/STM32F1xx_HAL_Driver/Src/stm32f1xx_ll_sdmmc.c **** 
 760:Drivers/STM32F1xx_HAL_Driver/Src/stm32f1xx_ll_sdmmc.c ****   return errorstate;
 761:Drivers/STM32F1xx_HAL_Driver/Src/stm32f1xx_ll_sdmmc.c **** }
 762:Drivers/STM32F1xx_HAL_Driver/Src/stm32f1xx_ll_sdmmc.c **** 
 763:Drivers/STM32F1xx_HAL_Driver/Src/stm32f1xx_ll_sdmmc.c **** /**
 764:Drivers/STM32F1xx_HAL_Driver/Src/stm32f1xx_ll_sdmmc.c ****   * @brief  Send the Stop Transfer command and check the response.
 765:Drivers/STM32F1xx_HAL_Driver/Src/stm32f1xx_ll_sdmmc.c ****   * @param  SDIOx: Pointer to SDIO register base 
 766:Drivers/STM32F1xx_HAL_Driver/Src/stm32f1xx_ll_sdmmc.c ****   * @retval HAL status
 767:Drivers/STM32F1xx_HAL_Driver/Src/stm32f1xx_ll_sdmmc.c ****   */
 768:Drivers/STM32F1xx_HAL_Driver/Src/stm32f1xx_ll_sdmmc.c **** uint32_t SDMMC_CmdStopTransfer(SDIO_TypeDef *SDIOx)
 769:Drivers/STM32F1xx_HAL_Driver/Src/stm32f1xx_ll_sdmmc.c **** {
 770:Drivers/STM32F1xx_HAL_Driver/Src/stm32f1xx_ll_sdmmc.c ****   SDIO_CmdInitTypeDef  sdmmc_cmdinit;
 771:Drivers/STM32F1xx_HAL_Driver/Src/stm32f1xx_ll_sdmmc.c ****   uint32_t errorstate = SDMMC_ERROR_NONE;
 772:Drivers/STM32F1xx_HAL_Driver/Src/stm32f1xx_ll_sdmmc.c ****   
 773:Drivers/STM32F1xx_HAL_Driver/Src/stm32f1xx_ll_sdmmc.c ****   /* Send CMD12 STOP_TRANSMISSION  */
 774:Drivers/STM32F1xx_HAL_Driver/Src/stm32f1xx_ll_sdmmc.c ****   sdmmc_cmdinit.Argument         = 0U;
ARM GAS  /tmp/ccBn9PL3.s 			page 15


 775:Drivers/STM32F1xx_HAL_Driver/Src/stm32f1xx_ll_sdmmc.c ****   sdmmc_cmdinit.CmdIndex         = SDMMC_CMD_STOP_TRANSMISSION;
 776:Drivers/STM32F1xx_HAL_Driver/Src/stm32f1xx_ll_sdmmc.c ****   sdmmc_cmdinit.Response         = SDIO_RESPONSE_SHORT;
 777:Drivers/STM32F1xx_HAL_Driver/Src/stm32f1xx_ll_sdmmc.c ****   sdmmc_cmdinit.WaitForInterrupt = SDIO_WAIT_NO;
 778:Drivers/STM32F1xx_HAL_Driver/Src/stm32f1xx_ll_sdmmc.c ****   sdmmc_cmdinit.CPSM             = SDIO_CPSM_ENABLE;
 779:Drivers/STM32F1xx_HAL_Driver/Src/stm32f1xx_ll_sdmmc.c ****   SDIO_SendCommand(SDIOx, &sdmmc_cmdinit);
 780:Drivers/STM32F1xx_HAL_Driver/Src/stm32f1xx_ll_sdmmc.c ****   
 781:Drivers/STM32F1xx_HAL_Driver/Src/stm32f1xx_ll_sdmmc.c ****   /* Check for error conditions */
 782:Drivers/STM32F1xx_HAL_Driver/Src/stm32f1xx_ll_sdmmc.c ****   errorstate = SDMMC_GetCmdResp1(SDIOx, SDMMC_CMD_STOP_TRANSMISSION, 100000000U);
 783:Drivers/STM32F1xx_HAL_Driver/Src/stm32f1xx_ll_sdmmc.c **** 
 784:Drivers/STM32F1xx_HAL_Driver/Src/stm32f1xx_ll_sdmmc.c ****   return errorstate;
 785:Drivers/STM32F1xx_HAL_Driver/Src/stm32f1xx_ll_sdmmc.c **** }
 786:Drivers/STM32F1xx_HAL_Driver/Src/stm32f1xx_ll_sdmmc.c **** 
 787:Drivers/STM32F1xx_HAL_Driver/Src/stm32f1xx_ll_sdmmc.c **** /**
 788:Drivers/STM32F1xx_HAL_Driver/Src/stm32f1xx_ll_sdmmc.c ****   * @brief  Send the Select Deselect command and check the response.
 789:Drivers/STM32F1xx_HAL_Driver/Src/stm32f1xx_ll_sdmmc.c ****   * @param  SDIOx: Pointer to SDIO register base 
 790:Drivers/STM32F1xx_HAL_Driver/Src/stm32f1xx_ll_sdmmc.c ****   * @param  addr: Address of the card to be selected  
 791:Drivers/STM32F1xx_HAL_Driver/Src/stm32f1xx_ll_sdmmc.c ****   * @retval HAL status
 792:Drivers/STM32F1xx_HAL_Driver/Src/stm32f1xx_ll_sdmmc.c ****   */
 793:Drivers/STM32F1xx_HAL_Driver/Src/stm32f1xx_ll_sdmmc.c **** uint32_t SDMMC_CmdSelDesel(SDIO_TypeDef *SDIOx, uint64_t Addr)
 794:Drivers/STM32F1xx_HAL_Driver/Src/stm32f1xx_ll_sdmmc.c **** {
 795:Drivers/STM32F1xx_HAL_Driver/Src/stm32f1xx_ll_sdmmc.c ****   SDIO_CmdInitTypeDef  sdmmc_cmdinit;
 796:Drivers/STM32F1xx_HAL_Driver/Src/stm32f1xx_ll_sdmmc.c ****   uint32_t errorstate = SDMMC_ERROR_NONE;
 797:Drivers/STM32F1xx_HAL_Driver/Src/stm32f1xx_ll_sdmmc.c ****   
 798:Drivers/STM32F1xx_HAL_Driver/Src/stm32f1xx_ll_sdmmc.c ****   /* Send CMD7 SDMMC_SEL_DESEL_CARD */
 799:Drivers/STM32F1xx_HAL_Driver/Src/stm32f1xx_ll_sdmmc.c ****   sdmmc_cmdinit.Argument         = (uint32_t)Addr;
 800:Drivers/STM32F1xx_HAL_Driver/Src/stm32f1xx_ll_sdmmc.c ****   sdmmc_cmdinit.CmdIndex         = SDMMC_CMD_SEL_DESEL_CARD;
 801:Drivers/STM32F1xx_HAL_Driver/Src/stm32f1xx_ll_sdmmc.c ****   sdmmc_cmdinit.Response         = SDIO_RESPONSE_SHORT;
 802:Drivers/STM32F1xx_HAL_Driver/Src/stm32f1xx_ll_sdmmc.c ****   sdmmc_cmdinit.WaitForInterrupt = SDIO_WAIT_NO;
 803:Drivers/STM32F1xx_HAL_Driver/Src/stm32f1xx_ll_sdmmc.c ****   sdmmc_cmdinit.CPSM             = SDIO_CPSM_ENABLE;
 804:Drivers/STM32F1xx_HAL_Driver/Src/stm32f1xx_ll_sdmmc.c ****   SDIO_SendCommand(SDIOx, &sdmmc_cmdinit);
 805:Drivers/STM32F1xx_HAL_Driver/Src/stm32f1xx_ll_sdmmc.c ****   
 806:Drivers/STM32F1xx_HAL_Driver/Src/stm32f1xx_ll_sdmmc.c ****   /* Check for error conditions */
 807:Drivers/STM32F1xx_HAL_Driver/Src/stm32f1xx_ll_sdmmc.c ****   errorstate = SDMMC_GetCmdResp1(SDIOx, SDMMC_CMD_SEL_DESEL_CARD, SDIO_CMDTIMEOUT);
 808:Drivers/STM32F1xx_HAL_Driver/Src/stm32f1xx_ll_sdmmc.c **** 
 809:Drivers/STM32F1xx_HAL_Driver/Src/stm32f1xx_ll_sdmmc.c ****   return errorstate;
 810:Drivers/STM32F1xx_HAL_Driver/Src/stm32f1xx_ll_sdmmc.c **** }
 811:Drivers/STM32F1xx_HAL_Driver/Src/stm32f1xx_ll_sdmmc.c **** 
 812:Drivers/STM32F1xx_HAL_Driver/Src/stm32f1xx_ll_sdmmc.c **** /**
 813:Drivers/STM32F1xx_HAL_Driver/Src/stm32f1xx_ll_sdmmc.c ****   * @brief  Send the Go Idle State command and check the response.
 814:Drivers/STM32F1xx_HAL_Driver/Src/stm32f1xx_ll_sdmmc.c ****   * @param  SDIOx: Pointer to SDIO register base 
 815:Drivers/STM32F1xx_HAL_Driver/Src/stm32f1xx_ll_sdmmc.c ****   * @retval HAL status
 816:Drivers/STM32F1xx_HAL_Driver/Src/stm32f1xx_ll_sdmmc.c ****   */
 817:Drivers/STM32F1xx_HAL_Driver/Src/stm32f1xx_ll_sdmmc.c **** uint32_t SDMMC_CmdGoIdleState(SDIO_TypeDef *SDIOx)
 818:Drivers/STM32F1xx_HAL_Driver/Src/stm32f1xx_ll_sdmmc.c **** {
 819:Drivers/STM32F1xx_HAL_Driver/Src/stm32f1xx_ll_sdmmc.c ****   SDIO_CmdInitTypeDef  sdmmc_cmdinit;
 820:Drivers/STM32F1xx_HAL_Driver/Src/stm32f1xx_ll_sdmmc.c ****   uint32_t errorstate = SDMMC_ERROR_NONE;
 821:Drivers/STM32F1xx_HAL_Driver/Src/stm32f1xx_ll_sdmmc.c ****   
 822:Drivers/STM32F1xx_HAL_Driver/Src/stm32f1xx_ll_sdmmc.c ****   sdmmc_cmdinit.Argument         = 0U;
 823:Drivers/STM32F1xx_HAL_Driver/Src/stm32f1xx_ll_sdmmc.c ****   sdmmc_cmdinit.CmdIndex         = SDMMC_CMD_GO_IDLE_STATE;
 824:Drivers/STM32F1xx_HAL_Driver/Src/stm32f1xx_ll_sdmmc.c ****   sdmmc_cmdinit.Response         = SDIO_RESPONSE_NO;
 825:Drivers/STM32F1xx_HAL_Driver/Src/stm32f1xx_ll_sdmmc.c ****   sdmmc_cmdinit.WaitForInterrupt = SDIO_WAIT_NO;
 826:Drivers/STM32F1xx_HAL_Driver/Src/stm32f1xx_ll_sdmmc.c ****   sdmmc_cmdinit.CPSM             = SDIO_CPSM_ENABLE;
 827:Drivers/STM32F1xx_HAL_Driver/Src/stm32f1xx_ll_sdmmc.c ****   SDIO_SendCommand(SDIOx, &sdmmc_cmdinit);
 828:Drivers/STM32F1xx_HAL_Driver/Src/stm32f1xx_ll_sdmmc.c ****   
 829:Drivers/STM32F1xx_HAL_Driver/Src/stm32f1xx_ll_sdmmc.c ****   /* Check for error conditions */
 830:Drivers/STM32F1xx_HAL_Driver/Src/stm32f1xx_ll_sdmmc.c ****   errorstate = SDMMC_GetCmdError(SDIOx);
 831:Drivers/STM32F1xx_HAL_Driver/Src/stm32f1xx_ll_sdmmc.c **** 
ARM GAS  /tmp/ccBn9PL3.s 			page 16


 832:Drivers/STM32F1xx_HAL_Driver/Src/stm32f1xx_ll_sdmmc.c ****   return errorstate;
 833:Drivers/STM32F1xx_HAL_Driver/Src/stm32f1xx_ll_sdmmc.c **** }
 834:Drivers/STM32F1xx_HAL_Driver/Src/stm32f1xx_ll_sdmmc.c **** 
 835:Drivers/STM32F1xx_HAL_Driver/Src/stm32f1xx_ll_sdmmc.c **** /**
 836:Drivers/STM32F1xx_HAL_Driver/Src/stm32f1xx_ll_sdmmc.c ****   * @brief  Send the Operating Condition command and check the response.
 837:Drivers/STM32F1xx_HAL_Driver/Src/stm32f1xx_ll_sdmmc.c ****   * @param  SDIOx: Pointer to SDIO register base 
 838:Drivers/STM32F1xx_HAL_Driver/Src/stm32f1xx_ll_sdmmc.c ****   * @retval HAL status
 839:Drivers/STM32F1xx_HAL_Driver/Src/stm32f1xx_ll_sdmmc.c ****   */
 840:Drivers/STM32F1xx_HAL_Driver/Src/stm32f1xx_ll_sdmmc.c **** uint32_t SDMMC_CmdOperCond(SDIO_TypeDef *SDIOx)
 841:Drivers/STM32F1xx_HAL_Driver/Src/stm32f1xx_ll_sdmmc.c **** {
 842:Drivers/STM32F1xx_HAL_Driver/Src/stm32f1xx_ll_sdmmc.c ****   SDIO_CmdInitTypeDef  sdmmc_cmdinit;
 843:Drivers/STM32F1xx_HAL_Driver/Src/stm32f1xx_ll_sdmmc.c ****   uint32_t errorstate = SDMMC_ERROR_NONE;
 844:Drivers/STM32F1xx_HAL_Driver/Src/stm32f1xx_ll_sdmmc.c ****   
 845:Drivers/STM32F1xx_HAL_Driver/Src/stm32f1xx_ll_sdmmc.c ****   /* Send CMD8 to verify SD card interface operating condition */
 846:Drivers/STM32F1xx_HAL_Driver/Src/stm32f1xx_ll_sdmmc.c ****   /* Argument: - [31:12]: Reserved (shall be set to '0')
 847:Drivers/STM32F1xx_HAL_Driver/Src/stm32f1xx_ll_sdmmc.c ****   - [11:8]: Supply Voltage (VHS) 0x1 (Range: 2.7-3.6 V)
 848:Drivers/STM32F1xx_HAL_Driver/Src/stm32f1xx_ll_sdmmc.c ****   - [7:0]: Check Pattern (recommended 0xAA) */
 849:Drivers/STM32F1xx_HAL_Driver/Src/stm32f1xx_ll_sdmmc.c ****   /* CMD Response: R7 */
 850:Drivers/STM32F1xx_HAL_Driver/Src/stm32f1xx_ll_sdmmc.c ****   sdmmc_cmdinit.Argument         = SDMMC_CHECK_PATTERN;
 851:Drivers/STM32F1xx_HAL_Driver/Src/stm32f1xx_ll_sdmmc.c ****   sdmmc_cmdinit.CmdIndex         = SDMMC_CMD_HS_SEND_EXT_CSD;
 852:Drivers/STM32F1xx_HAL_Driver/Src/stm32f1xx_ll_sdmmc.c ****   sdmmc_cmdinit.Response         = SDIO_RESPONSE_SHORT;
 853:Drivers/STM32F1xx_HAL_Driver/Src/stm32f1xx_ll_sdmmc.c ****   sdmmc_cmdinit.WaitForInterrupt = SDIO_WAIT_NO;
 854:Drivers/STM32F1xx_HAL_Driver/Src/stm32f1xx_ll_sdmmc.c ****   sdmmc_cmdinit.CPSM             = SDIO_CPSM_ENABLE;
 855:Drivers/STM32F1xx_HAL_Driver/Src/stm32f1xx_ll_sdmmc.c ****   SDIO_SendCommand(SDIOx, &sdmmc_cmdinit);
 856:Drivers/STM32F1xx_HAL_Driver/Src/stm32f1xx_ll_sdmmc.c ****   
 857:Drivers/STM32F1xx_HAL_Driver/Src/stm32f1xx_ll_sdmmc.c ****   /* Check for error conditions */
 858:Drivers/STM32F1xx_HAL_Driver/Src/stm32f1xx_ll_sdmmc.c ****   errorstate = SDMMC_GetCmdResp7(SDIOx);
 859:Drivers/STM32F1xx_HAL_Driver/Src/stm32f1xx_ll_sdmmc.c **** 
 860:Drivers/STM32F1xx_HAL_Driver/Src/stm32f1xx_ll_sdmmc.c ****   return errorstate;
 861:Drivers/STM32F1xx_HAL_Driver/Src/stm32f1xx_ll_sdmmc.c **** }
 862:Drivers/STM32F1xx_HAL_Driver/Src/stm32f1xx_ll_sdmmc.c **** 
 863:Drivers/STM32F1xx_HAL_Driver/Src/stm32f1xx_ll_sdmmc.c **** /**
 864:Drivers/STM32F1xx_HAL_Driver/Src/stm32f1xx_ll_sdmmc.c ****   * @brief  Send the Application command to verify that that the next command 
 865:Drivers/STM32F1xx_HAL_Driver/Src/stm32f1xx_ll_sdmmc.c ****   *         is an application specific com-mand rather than a standard command
 866:Drivers/STM32F1xx_HAL_Driver/Src/stm32f1xx_ll_sdmmc.c ****   *         and check the response.
 867:Drivers/STM32F1xx_HAL_Driver/Src/stm32f1xx_ll_sdmmc.c ****   * @param  SDIOx: Pointer to SDIO register base 
 868:Drivers/STM32F1xx_HAL_Driver/Src/stm32f1xx_ll_sdmmc.c ****   * @retval HAL status
 869:Drivers/STM32F1xx_HAL_Driver/Src/stm32f1xx_ll_sdmmc.c ****   */
 870:Drivers/STM32F1xx_HAL_Driver/Src/stm32f1xx_ll_sdmmc.c **** uint32_t SDMMC_CmdAppCommand(SDIO_TypeDef *SDIOx, uint32_t Argument)
 871:Drivers/STM32F1xx_HAL_Driver/Src/stm32f1xx_ll_sdmmc.c **** {
 872:Drivers/STM32F1xx_HAL_Driver/Src/stm32f1xx_ll_sdmmc.c ****   SDIO_CmdInitTypeDef  sdmmc_cmdinit;
 873:Drivers/STM32F1xx_HAL_Driver/Src/stm32f1xx_ll_sdmmc.c ****   uint32_t errorstate = SDMMC_ERROR_NONE;
 874:Drivers/STM32F1xx_HAL_Driver/Src/stm32f1xx_ll_sdmmc.c ****   
 875:Drivers/STM32F1xx_HAL_Driver/Src/stm32f1xx_ll_sdmmc.c ****   sdmmc_cmdinit.Argument         = (uint32_t)Argument;
 876:Drivers/STM32F1xx_HAL_Driver/Src/stm32f1xx_ll_sdmmc.c ****   sdmmc_cmdinit.CmdIndex         = SDMMC_CMD_APP_CMD;
 877:Drivers/STM32F1xx_HAL_Driver/Src/stm32f1xx_ll_sdmmc.c ****   sdmmc_cmdinit.Response         = SDIO_RESPONSE_SHORT;
 878:Drivers/STM32F1xx_HAL_Driver/Src/stm32f1xx_ll_sdmmc.c ****   sdmmc_cmdinit.WaitForInterrupt = SDIO_WAIT_NO;
 879:Drivers/STM32F1xx_HAL_Driver/Src/stm32f1xx_ll_sdmmc.c ****   sdmmc_cmdinit.CPSM             = SDIO_CPSM_ENABLE;
 880:Drivers/STM32F1xx_HAL_Driver/Src/stm32f1xx_ll_sdmmc.c ****   SDIO_SendCommand(SDIOx, &sdmmc_cmdinit);
 881:Drivers/STM32F1xx_HAL_Driver/Src/stm32f1xx_ll_sdmmc.c ****   
 882:Drivers/STM32F1xx_HAL_Driver/Src/stm32f1xx_ll_sdmmc.c ****   /* Check for error conditions */
 883:Drivers/STM32F1xx_HAL_Driver/Src/stm32f1xx_ll_sdmmc.c ****   /* If there is a HAL_ERROR, it is a MMC card, else
 884:Drivers/STM32F1xx_HAL_Driver/Src/stm32f1xx_ll_sdmmc.c ****   it is a SD card: SD card 2.0 (voltage range mismatch)
 885:Drivers/STM32F1xx_HAL_Driver/Src/stm32f1xx_ll_sdmmc.c ****      or SD card 1.x */
 886:Drivers/STM32F1xx_HAL_Driver/Src/stm32f1xx_ll_sdmmc.c ****   errorstate = SDMMC_GetCmdResp1(SDIOx, SDMMC_CMD_APP_CMD, SDIO_CMDTIMEOUT);
 887:Drivers/STM32F1xx_HAL_Driver/Src/stm32f1xx_ll_sdmmc.c **** 
 888:Drivers/STM32F1xx_HAL_Driver/Src/stm32f1xx_ll_sdmmc.c ****   return errorstate;
ARM GAS  /tmp/ccBn9PL3.s 			page 17


 889:Drivers/STM32F1xx_HAL_Driver/Src/stm32f1xx_ll_sdmmc.c **** }
 890:Drivers/STM32F1xx_HAL_Driver/Src/stm32f1xx_ll_sdmmc.c **** 
 891:Drivers/STM32F1xx_HAL_Driver/Src/stm32f1xx_ll_sdmmc.c **** /**
 892:Drivers/STM32F1xx_HAL_Driver/Src/stm32f1xx_ll_sdmmc.c ****   * @brief  Send the command asking the accessed card to send its operating 
 893:Drivers/STM32F1xx_HAL_Driver/Src/stm32f1xx_ll_sdmmc.c ****   *         condition register (OCR)
 894:Drivers/STM32F1xx_HAL_Driver/Src/stm32f1xx_ll_sdmmc.c ****   * @param  SDIOx: Pointer to SDIO register base 
 895:Drivers/STM32F1xx_HAL_Driver/Src/stm32f1xx_ll_sdmmc.c ****   * @retval HAL status
 896:Drivers/STM32F1xx_HAL_Driver/Src/stm32f1xx_ll_sdmmc.c ****   */
 897:Drivers/STM32F1xx_HAL_Driver/Src/stm32f1xx_ll_sdmmc.c **** uint32_t SDMMC_CmdAppOperCommand(SDIO_TypeDef *SDIOx, uint32_t SdType)
 898:Drivers/STM32F1xx_HAL_Driver/Src/stm32f1xx_ll_sdmmc.c **** {
 899:Drivers/STM32F1xx_HAL_Driver/Src/stm32f1xx_ll_sdmmc.c ****   SDIO_CmdInitTypeDef  sdmmc_cmdinit;
 900:Drivers/STM32F1xx_HAL_Driver/Src/stm32f1xx_ll_sdmmc.c ****   uint32_t errorstate = SDMMC_ERROR_NONE;
 901:Drivers/STM32F1xx_HAL_Driver/Src/stm32f1xx_ll_sdmmc.c ****   
 902:Drivers/STM32F1xx_HAL_Driver/Src/stm32f1xx_ll_sdmmc.c ****   sdmmc_cmdinit.Argument         = SDMMC_VOLTAGE_WINDOW_SD | SdType;
 903:Drivers/STM32F1xx_HAL_Driver/Src/stm32f1xx_ll_sdmmc.c ****   sdmmc_cmdinit.CmdIndex         = SDMMC_CMD_SD_APP_OP_COND;
 904:Drivers/STM32F1xx_HAL_Driver/Src/stm32f1xx_ll_sdmmc.c ****   sdmmc_cmdinit.Response         = SDIO_RESPONSE_SHORT;
 905:Drivers/STM32F1xx_HAL_Driver/Src/stm32f1xx_ll_sdmmc.c ****   sdmmc_cmdinit.WaitForInterrupt = SDIO_WAIT_NO;
 906:Drivers/STM32F1xx_HAL_Driver/Src/stm32f1xx_ll_sdmmc.c ****   sdmmc_cmdinit.CPSM             = SDIO_CPSM_ENABLE;
 907:Drivers/STM32F1xx_HAL_Driver/Src/stm32f1xx_ll_sdmmc.c ****   SDIO_SendCommand(SDIOx, &sdmmc_cmdinit);
 908:Drivers/STM32F1xx_HAL_Driver/Src/stm32f1xx_ll_sdmmc.c ****   
 909:Drivers/STM32F1xx_HAL_Driver/Src/stm32f1xx_ll_sdmmc.c ****   /* Check for error conditions */
 910:Drivers/STM32F1xx_HAL_Driver/Src/stm32f1xx_ll_sdmmc.c ****   errorstate = SDMMC_GetCmdResp3(SDIOx);
 911:Drivers/STM32F1xx_HAL_Driver/Src/stm32f1xx_ll_sdmmc.c **** 
 912:Drivers/STM32F1xx_HAL_Driver/Src/stm32f1xx_ll_sdmmc.c ****   return errorstate;
 913:Drivers/STM32F1xx_HAL_Driver/Src/stm32f1xx_ll_sdmmc.c **** }
 914:Drivers/STM32F1xx_HAL_Driver/Src/stm32f1xx_ll_sdmmc.c **** 
 915:Drivers/STM32F1xx_HAL_Driver/Src/stm32f1xx_ll_sdmmc.c **** /**
 916:Drivers/STM32F1xx_HAL_Driver/Src/stm32f1xx_ll_sdmmc.c ****   * @brief  Send the Bus Width command and check the response.
 917:Drivers/STM32F1xx_HAL_Driver/Src/stm32f1xx_ll_sdmmc.c ****   * @param  SDIOx: Pointer to SDIO register base 
 918:Drivers/STM32F1xx_HAL_Driver/Src/stm32f1xx_ll_sdmmc.c ****   * @retval HAL status
 919:Drivers/STM32F1xx_HAL_Driver/Src/stm32f1xx_ll_sdmmc.c ****   */
 920:Drivers/STM32F1xx_HAL_Driver/Src/stm32f1xx_ll_sdmmc.c **** uint32_t SDMMC_CmdBusWidth(SDIO_TypeDef *SDIOx, uint32_t BusWidth)
 921:Drivers/STM32F1xx_HAL_Driver/Src/stm32f1xx_ll_sdmmc.c **** {
 922:Drivers/STM32F1xx_HAL_Driver/Src/stm32f1xx_ll_sdmmc.c ****   SDIO_CmdInitTypeDef  sdmmc_cmdinit;
 923:Drivers/STM32F1xx_HAL_Driver/Src/stm32f1xx_ll_sdmmc.c ****   uint32_t errorstate = SDMMC_ERROR_NONE;
 924:Drivers/STM32F1xx_HAL_Driver/Src/stm32f1xx_ll_sdmmc.c ****   
 925:Drivers/STM32F1xx_HAL_Driver/Src/stm32f1xx_ll_sdmmc.c ****   sdmmc_cmdinit.Argument         = (uint32_t)BusWidth;
 926:Drivers/STM32F1xx_HAL_Driver/Src/stm32f1xx_ll_sdmmc.c ****   sdmmc_cmdinit.CmdIndex         = SDMMC_CMD_APP_SD_SET_BUSWIDTH;
 927:Drivers/STM32F1xx_HAL_Driver/Src/stm32f1xx_ll_sdmmc.c ****   sdmmc_cmdinit.Response         = SDIO_RESPONSE_SHORT;
 928:Drivers/STM32F1xx_HAL_Driver/Src/stm32f1xx_ll_sdmmc.c ****   sdmmc_cmdinit.WaitForInterrupt = SDIO_WAIT_NO;
 929:Drivers/STM32F1xx_HAL_Driver/Src/stm32f1xx_ll_sdmmc.c ****   sdmmc_cmdinit.CPSM             = SDIO_CPSM_ENABLE;
 930:Drivers/STM32F1xx_HAL_Driver/Src/stm32f1xx_ll_sdmmc.c ****   SDIO_SendCommand(SDIOx, &sdmmc_cmdinit);
 931:Drivers/STM32F1xx_HAL_Driver/Src/stm32f1xx_ll_sdmmc.c ****   
 932:Drivers/STM32F1xx_HAL_Driver/Src/stm32f1xx_ll_sdmmc.c ****   /* Check for error conditions */
 933:Drivers/STM32F1xx_HAL_Driver/Src/stm32f1xx_ll_sdmmc.c ****   errorstate = SDMMC_GetCmdResp1(SDIOx, SDMMC_CMD_APP_SD_SET_BUSWIDTH, SDIO_CMDTIMEOUT);
 934:Drivers/STM32F1xx_HAL_Driver/Src/stm32f1xx_ll_sdmmc.c **** 
 935:Drivers/STM32F1xx_HAL_Driver/Src/stm32f1xx_ll_sdmmc.c ****   return errorstate;
 936:Drivers/STM32F1xx_HAL_Driver/Src/stm32f1xx_ll_sdmmc.c **** }
 937:Drivers/STM32F1xx_HAL_Driver/Src/stm32f1xx_ll_sdmmc.c **** 
 938:Drivers/STM32F1xx_HAL_Driver/Src/stm32f1xx_ll_sdmmc.c **** /**
 939:Drivers/STM32F1xx_HAL_Driver/Src/stm32f1xx_ll_sdmmc.c ****   * @brief  Send the Send SCR command and check the response.
 940:Drivers/STM32F1xx_HAL_Driver/Src/stm32f1xx_ll_sdmmc.c ****   * @param  SDIOx: Pointer to SDMMC register base 
 941:Drivers/STM32F1xx_HAL_Driver/Src/stm32f1xx_ll_sdmmc.c ****   * @retval HAL status
 942:Drivers/STM32F1xx_HAL_Driver/Src/stm32f1xx_ll_sdmmc.c ****   */
 943:Drivers/STM32F1xx_HAL_Driver/Src/stm32f1xx_ll_sdmmc.c **** uint32_t SDMMC_CmdSendSCR(SDIO_TypeDef *SDIOx)
 944:Drivers/STM32F1xx_HAL_Driver/Src/stm32f1xx_ll_sdmmc.c **** {
 945:Drivers/STM32F1xx_HAL_Driver/Src/stm32f1xx_ll_sdmmc.c ****   SDIO_CmdInitTypeDef  sdmmc_cmdinit;
ARM GAS  /tmp/ccBn9PL3.s 			page 18


 946:Drivers/STM32F1xx_HAL_Driver/Src/stm32f1xx_ll_sdmmc.c ****   uint32_t errorstate = SDMMC_ERROR_NONE;
 947:Drivers/STM32F1xx_HAL_Driver/Src/stm32f1xx_ll_sdmmc.c ****   
 948:Drivers/STM32F1xx_HAL_Driver/Src/stm32f1xx_ll_sdmmc.c ****   /* Send CMD51 SD_APP_SEND_SCR */
 949:Drivers/STM32F1xx_HAL_Driver/Src/stm32f1xx_ll_sdmmc.c ****   sdmmc_cmdinit.Argument         = 0U;
 950:Drivers/STM32F1xx_HAL_Driver/Src/stm32f1xx_ll_sdmmc.c ****   sdmmc_cmdinit.CmdIndex         = SDMMC_CMD_SD_APP_SEND_SCR;
 951:Drivers/STM32F1xx_HAL_Driver/Src/stm32f1xx_ll_sdmmc.c ****   sdmmc_cmdinit.Response         = SDIO_RESPONSE_SHORT;
 952:Drivers/STM32F1xx_HAL_Driver/Src/stm32f1xx_ll_sdmmc.c ****   sdmmc_cmdinit.WaitForInterrupt = SDIO_WAIT_NO;
 953:Drivers/STM32F1xx_HAL_Driver/Src/stm32f1xx_ll_sdmmc.c ****   sdmmc_cmdinit.CPSM             = SDIO_CPSM_ENABLE;
 954:Drivers/STM32F1xx_HAL_Driver/Src/stm32f1xx_ll_sdmmc.c ****   SDIO_SendCommand(SDIOx, &sdmmc_cmdinit);
 955:Drivers/STM32F1xx_HAL_Driver/Src/stm32f1xx_ll_sdmmc.c ****   
 956:Drivers/STM32F1xx_HAL_Driver/Src/stm32f1xx_ll_sdmmc.c ****   /* Check for error conditions */
 957:Drivers/STM32F1xx_HAL_Driver/Src/stm32f1xx_ll_sdmmc.c ****   errorstate = SDMMC_GetCmdResp1(SDIOx, SDMMC_CMD_SD_APP_SEND_SCR, SDIO_CMDTIMEOUT);
 958:Drivers/STM32F1xx_HAL_Driver/Src/stm32f1xx_ll_sdmmc.c **** 
 959:Drivers/STM32F1xx_HAL_Driver/Src/stm32f1xx_ll_sdmmc.c ****   return errorstate;
 960:Drivers/STM32F1xx_HAL_Driver/Src/stm32f1xx_ll_sdmmc.c **** }
 961:Drivers/STM32F1xx_HAL_Driver/Src/stm32f1xx_ll_sdmmc.c **** 
 962:Drivers/STM32F1xx_HAL_Driver/Src/stm32f1xx_ll_sdmmc.c **** /**
 963:Drivers/STM32F1xx_HAL_Driver/Src/stm32f1xx_ll_sdmmc.c ****   * @brief  Send the Send CID command and check the response.
 964:Drivers/STM32F1xx_HAL_Driver/Src/stm32f1xx_ll_sdmmc.c ****   * @param  SDIOx: Pointer to SDIO register base 
 965:Drivers/STM32F1xx_HAL_Driver/Src/stm32f1xx_ll_sdmmc.c ****   * @retval HAL status
 966:Drivers/STM32F1xx_HAL_Driver/Src/stm32f1xx_ll_sdmmc.c ****   */
 967:Drivers/STM32F1xx_HAL_Driver/Src/stm32f1xx_ll_sdmmc.c **** uint32_t SDMMC_CmdSendCID(SDIO_TypeDef *SDIOx)
 968:Drivers/STM32F1xx_HAL_Driver/Src/stm32f1xx_ll_sdmmc.c **** {
 969:Drivers/STM32F1xx_HAL_Driver/Src/stm32f1xx_ll_sdmmc.c ****   SDIO_CmdInitTypeDef  sdmmc_cmdinit;
 970:Drivers/STM32F1xx_HAL_Driver/Src/stm32f1xx_ll_sdmmc.c ****   uint32_t errorstate = SDMMC_ERROR_NONE;
 971:Drivers/STM32F1xx_HAL_Driver/Src/stm32f1xx_ll_sdmmc.c ****   
 972:Drivers/STM32F1xx_HAL_Driver/Src/stm32f1xx_ll_sdmmc.c ****   /* Send CMD2 ALL_SEND_CID */
 973:Drivers/STM32F1xx_HAL_Driver/Src/stm32f1xx_ll_sdmmc.c ****   sdmmc_cmdinit.Argument         = 0U;
 974:Drivers/STM32F1xx_HAL_Driver/Src/stm32f1xx_ll_sdmmc.c ****   sdmmc_cmdinit.CmdIndex         = SDMMC_CMD_ALL_SEND_CID;
 975:Drivers/STM32F1xx_HAL_Driver/Src/stm32f1xx_ll_sdmmc.c ****   sdmmc_cmdinit.Response         = SDIO_RESPONSE_LONG;
 976:Drivers/STM32F1xx_HAL_Driver/Src/stm32f1xx_ll_sdmmc.c ****   sdmmc_cmdinit.WaitForInterrupt = SDIO_WAIT_NO;
 977:Drivers/STM32F1xx_HAL_Driver/Src/stm32f1xx_ll_sdmmc.c ****   sdmmc_cmdinit.CPSM             = SDIO_CPSM_ENABLE;
 978:Drivers/STM32F1xx_HAL_Driver/Src/stm32f1xx_ll_sdmmc.c ****   SDIO_SendCommand(SDIOx, &sdmmc_cmdinit);
 979:Drivers/STM32F1xx_HAL_Driver/Src/stm32f1xx_ll_sdmmc.c ****   
 980:Drivers/STM32F1xx_HAL_Driver/Src/stm32f1xx_ll_sdmmc.c ****   /* Check for error conditions */
 981:Drivers/STM32F1xx_HAL_Driver/Src/stm32f1xx_ll_sdmmc.c ****   errorstate = SDMMC_GetCmdResp2(SDIOx);
 982:Drivers/STM32F1xx_HAL_Driver/Src/stm32f1xx_ll_sdmmc.c **** 
 983:Drivers/STM32F1xx_HAL_Driver/Src/stm32f1xx_ll_sdmmc.c ****   return errorstate;
 984:Drivers/STM32F1xx_HAL_Driver/Src/stm32f1xx_ll_sdmmc.c **** }
 985:Drivers/STM32F1xx_HAL_Driver/Src/stm32f1xx_ll_sdmmc.c **** 
 986:Drivers/STM32F1xx_HAL_Driver/Src/stm32f1xx_ll_sdmmc.c **** /**
 987:Drivers/STM32F1xx_HAL_Driver/Src/stm32f1xx_ll_sdmmc.c ****   * @brief  Send the Send CSD command and check the response.
 988:Drivers/STM32F1xx_HAL_Driver/Src/stm32f1xx_ll_sdmmc.c ****   * @param  SDIOx: Pointer to SDIO register base 
 989:Drivers/STM32F1xx_HAL_Driver/Src/stm32f1xx_ll_sdmmc.c ****   * @retval HAL status
 990:Drivers/STM32F1xx_HAL_Driver/Src/stm32f1xx_ll_sdmmc.c ****   */
 991:Drivers/STM32F1xx_HAL_Driver/Src/stm32f1xx_ll_sdmmc.c **** uint32_t SDMMC_CmdSendCSD(SDIO_TypeDef *SDIOx, uint32_t Argument)
 992:Drivers/STM32F1xx_HAL_Driver/Src/stm32f1xx_ll_sdmmc.c **** {
 993:Drivers/STM32F1xx_HAL_Driver/Src/stm32f1xx_ll_sdmmc.c ****   SDIO_CmdInitTypeDef  sdmmc_cmdinit;
 994:Drivers/STM32F1xx_HAL_Driver/Src/stm32f1xx_ll_sdmmc.c ****   uint32_t errorstate = SDMMC_ERROR_NONE;
 995:Drivers/STM32F1xx_HAL_Driver/Src/stm32f1xx_ll_sdmmc.c ****   
 996:Drivers/STM32F1xx_HAL_Driver/Src/stm32f1xx_ll_sdmmc.c ****   /* Send CMD9 SEND_CSD */
 997:Drivers/STM32F1xx_HAL_Driver/Src/stm32f1xx_ll_sdmmc.c ****   sdmmc_cmdinit.Argument         = (uint32_t)Argument;
 998:Drivers/STM32F1xx_HAL_Driver/Src/stm32f1xx_ll_sdmmc.c ****   sdmmc_cmdinit.CmdIndex         = SDMMC_CMD_SEND_CSD;
 999:Drivers/STM32F1xx_HAL_Driver/Src/stm32f1xx_ll_sdmmc.c ****   sdmmc_cmdinit.Response         = SDIO_RESPONSE_LONG;
1000:Drivers/STM32F1xx_HAL_Driver/Src/stm32f1xx_ll_sdmmc.c ****   sdmmc_cmdinit.WaitForInterrupt = SDIO_WAIT_NO;
1001:Drivers/STM32F1xx_HAL_Driver/Src/stm32f1xx_ll_sdmmc.c ****   sdmmc_cmdinit.CPSM             = SDIO_CPSM_ENABLE;
1002:Drivers/STM32F1xx_HAL_Driver/Src/stm32f1xx_ll_sdmmc.c ****   SDIO_SendCommand(SDIOx, &sdmmc_cmdinit);
ARM GAS  /tmp/ccBn9PL3.s 			page 19


1003:Drivers/STM32F1xx_HAL_Driver/Src/stm32f1xx_ll_sdmmc.c ****   
1004:Drivers/STM32F1xx_HAL_Driver/Src/stm32f1xx_ll_sdmmc.c ****   /* Check for error conditions */
1005:Drivers/STM32F1xx_HAL_Driver/Src/stm32f1xx_ll_sdmmc.c ****   errorstate = SDMMC_GetCmdResp2(SDIOx);
1006:Drivers/STM32F1xx_HAL_Driver/Src/stm32f1xx_ll_sdmmc.c **** 
1007:Drivers/STM32F1xx_HAL_Driver/Src/stm32f1xx_ll_sdmmc.c ****   return errorstate;
1008:Drivers/STM32F1xx_HAL_Driver/Src/stm32f1xx_ll_sdmmc.c **** }
1009:Drivers/STM32F1xx_HAL_Driver/Src/stm32f1xx_ll_sdmmc.c **** 
1010:Drivers/STM32F1xx_HAL_Driver/Src/stm32f1xx_ll_sdmmc.c **** /**
1011:Drivers/STM32F1xx_HAL_Driver/Src/stm32f1xx_ll_sdmmc.c ****   * @brief  Send the Send CSD command and check the response.
1012:Drivers/STM32F1xx_HAL_Driver/Src/stm32f1xx_ll_sdmmc.c ****   * @param  SDIOx: Pointer to SDIO register base 
1013:Drivers/STM32F1xx_HAL_Driver/Src/stm32f1xx_ll_sdmmc.c ****   * @retval HAL status
1014:Drivers/STM32F1xx_HAL_Driver/Src/stm32f1xx_ll_sdmmc.c ****   */
1015:Drivers/STM32F1xx_HAL_Driver/Src/stm32f1xx_ll_sdmmc.c **** uint32_t SDMMC_CmdSetRelAdd(SDIO_TypeDef *SDIOx, uint16_t *pRCA)
1016:Drivers/STM32F1xx_HAL_Driver/Src/stm32f1xx_ll_sdmmc.c **** {
1017:Drivers/STM32F1xx_HAL_Driver/Src/stm32f1xx_ll_sdmmc.c ****   SDIO_CmdInitTypeDef  sdmmc_cmdinit;
1018:Drivers/STM32F1xx_HAL_Driver/Src/stm32f1xx_ll_sdmmc.c ****   uint32_t errorstate = SDMMC_ERROR_NONE;
1019:Drivers/STM32F1xx_HAL_Driver/Src/stm32f1xx_ll_sdmmc.c ****   
1020:Drivers/STM32F1xx_HAL_Driver/Src/stm32f1xx_ll_sdmmc.c ****   /* Send CMD3 SD_CMD_SET_REL_ADDR */
1021:Drivers/STM32F1xx_HAL_Driver/Src/stm32f1xx_ll_sdmmc.c ****   sdmmc_cmdinit.Argument         = 0U;
1022:Drivers/STM32F1xx_HAL_Driver/Src/stm32f1xx_ll_sdmmc.c ****   sdmmc_cmdinit.CmdIndex         = SDMMC_CMD_SET_REL_ADDR;
1023:Drivers/STM32F1xx_HAL_Driver/Src/stm32f1xx_ll_sdmmc.c ****   sdmmc_cmdinit.Response         = SDIO_RESPONSE_SHORT;
1024:Drivers/STM32F1xx_HAL_Driver/Src/stm32f1xx_ll_sdmmc.c ****   sdmmc_cmdinit.WaitForInterrupt = SDIO_WAIT_NO;
1025:Drivers/STM32F1xx_HAL_Driver/Src/stm32f1xx_ll_sdmmc.c ****   sdmmc_cmdinit.CPSM             = SDIO_CPSM_ENABLE;
1026:Drivers/STM32F1xx_HAL_Driver/Src/stm32f1xx_ll_sdmmc.c ****   SDIO_SendCommand(SDIOx, &sdmmc_cmdinit);
1027:Drivers/STM32F1xx_HAL_Driver/Src/stm32f1xx_ll_sdmmc.c ****   
1028:Drivers/STM32F1xx_HAL_Driver/Src/stm32f1xx_ll_sdmmc.c ****   /* Check for error conditions */
1029:Drivers/STM32F1xx_HAL_Driver/Src/stm32f1xx_ll_sdmmc.c ****   errorstate = SDMMC_GetCmdResp6(SDIOx, SDMMC_CMD_SET_REL_ADDR, pRCA);
1030:Drivers/STM32F1xx_HAL_Driver/Src/stm32f1xx_ll_sdmmc.c **** 
1031:Drivers/STM32F1xx_HAL_Driver/Src/stm32f1xx_ll_sdmmc.c ****   return errorstate;
1032:Drivers/STM32F1xx_HAL_Driver/Src/stm32f1xx_ll_sdmmc.c **** }
1033:Drivers/STM32F1xx_HAL_Driver/Src/stm32f1xx_ll_sdmmc.c **** 
1034:Drivers/STM32F1xx_HAL_Driver/Src/stm32f1xx_ll_sdmmc.c **** /**
1035:Drivers/STM32F1xx_HAL_Driver/Src/stm32f1xx_ll_sdmmc.c ****   * @brief  Send the Status command and check the response.
1036:Drivers/STM32F1xx_HAL_Driver/Src/stm32f1xx_ll_sdmmc.c ****   * @param  SDIOx: Pointer to SDIO register base 
1037:Drivers/STM32F1xx_HAL_Driver/Src/stm32f1xx_ll_sdmmc.c ****   * @retval HAL status
1038:Drivers/STM32F1xx_HAL_Driver/Src/stm32f1xx_ll_sdmmc.c ****   */
1039:Drivers/STM32F1xx_HAL_Driver/Src/stm32f1xx_ll_sdmmc.c **** uint32_t SDMMC_CmdSendStatus(SDIO_TypeDef *SDIOx, uint32_t Argument)
1040:Drivers/STM32F1xx_HAL_Driver/Src/stm32f1xx_ll_sdmmc.c **** {
1041:Drivers/STM32F1xx_HAL_Driver/Src/stm32f1xx_ll_sdmmc.c ****   SDIO_CmdInitTypeDef  sdmmc_cmdinit;
1042:Drivers/STM32F1xx_HAL_Driver/Src/stm32f1xx_ll_sdmmc.c ****   uint32_t errorstate = SDMMC_ERROR_NONE;
1043:Drivers/STM32F1xx_HAL_Driver/Src/stm32f1xx_ll_sdmmc.c ****   
1044:Drivers/STM32F1xx_HAL_Driver/Src/stm32f1xx_ll_sdmmc.c ****   sdmmc_cmdinit.Argument         = (uint32_t)Argument;
1045:Drivers/STM32F1xx_HAL_Driver/Src/stm32f1xx_ll_sdmmc.c ****   sdmmc_cmdinit.CmdIndex         = SDMMC_CMD_SEND_STATUS;
1046:Drivers/STM32F1xx_HAL_Driver/Src/stm32f1xx_ll_sdmmc.c ****   sdmmc_cmdinit.Response         = SDIO_RESPONSE_SHORT;
1047:Drivers/STM32F1xx_HAL_Driver/Src/stm32f1xx_ll_sdmmc.c ****   sdmmc_cmdinit.WaitForInterrupt = SDIO_WAIT_NO;
1048:Drivers/STM32F1xx_HAL_Driver/Src/stm32f1xx_ll_sdmmc.c ****   sdmmc_cmdinit.CPSM             = SDIO_CPSM_ENABLE;
1049:Drivers/STM32F1xx_HAL_Driver/Src/stm32f1xx_ll_sdmmc.c ****   SDIO_SendCommand(SDIOx, &sdmmc_cmdinit);
1050:Drivers/STM32F1xx_HAL_Driver/Src/stm32f1xx_ll_sdmmc.c ****   
1051:Drivers/STM32F1xx_HAL_Driver/Src/stm32f1xx_ll_sdmmc.c ****   /* Check for error conditions */
1052:Drivers/STM32F1xx_HAL_Driver/Src/stm32f1xx_ll_sdmmc.c ****   errorstate = SDMMC_GetCmdResp1(SDIOx, SDMMC_CMD_SEND_STATUS, SDIO_CMDTIMEOUT);
1053:Drivers/STM32F1xx_HAL_Driver/Src/stm32f1xx_ll_sdmmc.c **** 
1054:Drivers/STM32F1xx_HAL_Driver/Src/stm32f1xx_ll_sdmmc.c ****   return errorstate;
1055:Drivers/STM32F1xx_HAL_Driver/Src/stm32f1xx_ll_sdmmc.c **** }
1056:Drivers/STM32F1xx_HAL_Driver/Src/stm32f1xx_ll_sdmmc.c **** 
1057:Drivers/STM32F1xx_HAL_Driver/Src/stm32f1xx_ll_sdmmc.c **** /**
1058:Drivers/STM32F1xx_HAL_Driver/Src/stm32f1xx_ll_sdmmc.c ****   * @brief  Send the Status register command and check the response.
1059:Drivers/STM32F1xx_HAL_Driver/Src/stm32f1xx_ll_sdmmc.c ****   * @param  SDIOx: Pointer to SDIO register base 
ARM GAS  /tmp/ccBn9PL3.s 			page 20


1060:Drivers/STM32F1xx_HAL_Driver/Src/stm32f1xx_ll_sdmmc.c ****   * @retval HAL status
1061:Drivers/STM32F1xx_HAL_Driver/Src/stm32f1xx_ll_sdmmc.c ****   */
1062:Drivers/STM32F1xx_HAL_Driver/Src/stm32f1xx_ll_sdmmc.c **** uint32_t SDMMC_CmdStatusRegister(SDIO_TypeDef *SDIOx)
1063:Drivers/STM32F1xx_HAL_Driver/Src/stm32f1xx_ll_sdmmc.c **** {
1064:Drivers/STM32F1xx_HAL_Driver/Src/stm32f1xx_ll_sdmmc.c ****   SDIO_CmdInitTypeDef  sdmmc_cmdinit;
1065:Drivers/STM32F1xx_HAL_Driver/Src/stm32f1xx_ll_sdmmc.c ****   uint32_t errorstate = SDMMC_ERROR_NONE;
1066:Drivers/STM32F1xx_HAL_Driver/Src/stm32f1xx_ll_sdmmc.c ****   
1067:Drivers/STM32F1xx_HAL_Driver/Src/stm32f1xx_ll_sdmmc.c ****   sdmmc_cmdinit.Argument         = 0U;
1068:Drivers/STM32F1xx_HAL_Driver/Src/stm32f1xx_ll_sdmmc.c ****   sdmmc_cmdinit.CmdIndex         = SDMMC_CMD_SD_APP_STATUS;
1069:Drivers/STM32F1xx_HAL_Driver/Src/stm32f1xx_ll_sdmmc.c ****   sdmmc_cmdinit.Response         = SDIO_RESPONSE_SHORT;
1070:Drivers/STM32F1xx_HAL_Driver/Src/stm32f1xx_ll_sdmmc.c ****   sdmmc_cmdinit.WaitForInterrupt = SDIO_WAIT_NO;
1071:Drivers/STM32F1xx_HAL_Driver/Src/stm32f1xx_ll_sdmmc.c ****   sdmmc_cmdinit.CPSM             = SDIO_CPSM_ENABLE;
1072:Drivers/STM32F1xx_HAL_Driver/Src/stm32f1xx_ll_sdmmc.c ****   SDIO_SendCommand(SDIOx, &sdmmc_cmdinit);
1073:Drivers/STM32F1xx_HAL_Driver/Src/stm32f1xx_ll_sdmmc.c ****   
1074:Drivers/STM32F1xx_HAL_Driver/Src/stm32f1xx_ll_sdmmc.c ****   /* Check for error conditions */
1075:Drivers/STM32F1xx_HAL_Driver/Src/stm32f1xx_ll_sdmmc.c ****   errorstate = SDMMC_GetCmdResp1(SDIOx, SDMMC_CMD_SD_APP_STATUS, SDIO_CMDTIMEOUT);
1076:Drivers/STM32F1xx_HAL_Driver/Src/stm32f1xx_ll_sdmmc.c **** 
1077:Drivers/STM32F1xx_HAL_Driver/Src/stm32f1xx_ll_sdmmc.c ****   return errorstate;
1078:Drivers/STM32F1xx_HAL_Driver/Src/stm32f1xx_ll_sdmmc.c **** }
1079:Drivers/STM32F1xx_HAL_Driver/Src/stm32f1xx_ll_sdmmc.c **** 
1080:Drivers/STM32F1xx_HAL_Driver/Src/stm32f1xx_ll_sdmmc.c **** /**
1081:Drivers/STM32F1xx_HAL_Driver/Src/stm32f1xx_ll_sdmmc.c ****   * @brief  Sends host capacity support information and activates the card's 
1082:Drivers/STM32F1xx_HAL_Driver/Src/stm32f1xx_ll_sdmmc.c ****   *         initialization process. Send SDMMC_CMD_SEND_OP_COND command
1083:Drivers/STM32F1xx_HAL_Driver/Src/stm32f1xx_ll_sdmmc.c ****   * @param  SDIOx: Pointer to SDIO register base 
1084:Drivers/STM32F1xx_HAL_Driver/Src/stm32f1xx_ll_sdmmc.c ****   * @parame Argument: Argument used for the command
1085:Drivers/STM32F1xx_HAL_Driver/Src/stm32f1xx_ll_sdmmc.c ****   * @retval HAL status
1086:Drivers/STM32F1xx_HAL_Driver/Src/stm32f1xx_ll_sdmmc.c ****   */
1087:Drivers/STM32F1xx_HAL_Driver/Src/stm32f1xx_ll_sdmmc.c **** uint32_t SDMMC_CmdOpCondition(SDIO_TypeDef *SDIOx, uint32_t Argument)
1088:Drivers/STM32F1xx_HAL_Driver/Src/stm32f1xx_ll_sdmmc.c **** {
1089:Drivers/STM32F1xx_HAL_Driver/Src/stm32f1xx_ll_sdmmc.c ****   SDIO_CmdInitTypeDef  sdmmc_cmdinit;
1090:Drivers/STM32F1xx_HAL_Driver/Src/stm32f1xx_ll_sdmmc.c ****   uint32_t errorstate = SDMMC_ERROR_NONE;
1091:Drivers/STM32F1xx_HAL_Driver/Src/stm32f1xx_ll_sdmmc.c ****   
1092:Drivers/STM32F1xx_HAL_Driver/Src/stm32f1xx_ll_sdmmc.c ****   sdmmc_cmdinit.Argument         = Argument;
1093:Drivers/STM32F1xx_HAL_Driver/Src/stm32f1xx_ll_sdmmc.c ****   sdmmc_cmdinit.CmdIndex         = SDMMC_CMD_SEND_OP_COND;
1094:Drivers/STM32F1xx_HAL_Driver/Src/stm32f1xx_ll_sdmmc.c ****   sdmmc_cmdinit.Response         = SDIO_RESPONSE_SHORT;
1095:Drivers/STM32F1xx_HAL_Driver/Src/stm32f1xx_ll_sdmmc.c ****   sdmmc_cmdinit.WaitForInterrupt = SDIO_WAIT_NO;
1096:Drivers/STM32F1xx_HAL_Driver/Src/stm32f1xx_ll_sdmmc.c ****   sdmmc_cmdinit.CPSM             = SDIO_CPSM_ENABLE;
1097:Drivers/STM32F1xx_HAL_Driver/Src/stm32f1xx_ll_sdmmc.c ****   SDIO_SendCommand(SDIOx, &sdmmc_cmdinit);
1098:Drivers/STM32F1xx_HAL_Driver/Src/stm32f1xx_ll_sdmmc.c ****   
1099:Drivers/STM32F1xx_HAL_Driver/Src/stm32f1xx_ll_sdmmc.c ****   /* Check for error conditions */
1100:Drivers/STM32F1xx_HAL_Driver/Src/stm32f1xx_ll_sdmmc.c ****   errorstate = SDMMC_GetCmdResp3(SDIOx);
1101:Drivers/STM32F1xx_HAL_Driver/Src/stm32f1xx_ll_sdmmc.c **** 
1102:Drivers/STM32F1xx_HAL_Driver/Src/stm32f1xx_ll_sdmmc.c ****   return errorstate;
1103:Drivers/STM32F1xx_HAL_Driver/Src/stm32f1xx_ll_sdmmc.c **** }
1104:Drivers/STM32F1xx_HAL_Driver/Src/stm32f1xx_ll_sdmmc.c **** 
1105:Drivers/STM32F1xx_HAL_Driver/Src/stm32f1xx_ll_sdmmc.c **** /**
1106:Drivers/STM32F1xx_HAL_Driver/Src/stm32f1xx_ll_sdmmc.c ****   * @brief  Checks switchable function and switch card function. SDMMC_CMD_HS_SWITCH comand
1107:Drivers/STM32F1xx_HAL_Driver/Src/stm32f1xx_ll_sdmmc.c ****   * @param  SDIOx: Pointer to SDIO register base 
1108:Drivers/STM32F1xx_HAL_Driver/Src/stm32f1xx_ll_sdmmc.c ****   * @parame Argument: Argument used for the command
1109:Drivers/STM32F1xx_HAL_Driver/Src/stm32f1xx_ll_sdmmc.c ****   * @retval HAL status
1110:Drivers/STM32F1xx_HAL_Driver/Src/stm32f1xx_ll_sdmmc.c ****   */
1111:Drivers/STM32F1xx_HAL_Driver/Src/stm32f1xx_ll_sdmmc.c **** uint32_t SDMMC_CmdSwitch(SDIO_TypeDef *SDIOx, uint32_t Argument)
1112:Drivers/STM32F1xx_HAL_Driver/Src/stm32f1xx_ll_sdmmc.c **** {
1113:Drivers/STM32F1xx_HAL_Driver/Src/stm32f1xx_ll_sdmmc.c ****   SDIO_CmdInitTypeDef  sdmmc_cmdinit;
1114:Drivers/STM32F1xx_HAL_Driver/Src/stm32f1xx_ll_sdmmc.c ****   uint32_t errorstate = SDMMC_ERROR_NONE;
1115:Drivers/STM32F1xx_HAL_Driver/Src/stm32f1xx_ll_sdmmc.c ****   
1116:Drivers/STM32F1xx_HAL_Driver/Src/stm32f1xx_ll_sdmmc.c ****   sdmmc_cmdinit.Argument         = Argument;
ARM GAS  /tmp/ccBn9PL3.s 			page 21


1117:Drivers/STM32F1xx_HAL_Driver/Src/stm32f1xx_ll_sdmmc.c ****   sdmmc_cmdinit.CmdIndex         = SDMMC_CMD_HS_SWITCH;
1118:Drivers/STM32F1xx_HAL_Driver/Src/stm32f1xx_ll_sdmmc.c ****   sdmmc_cmdinit.Response         = SDIO_RESPONSE_SHORT;
1119:Drivers/STM32F1xx_HAL_Driver/Src/stm32f1xx_ll_sdmmc.c ****   sdmmc_cmdinit.WaitForInterrupt = SDIO_WAIT_NO;
1120:Drivers/STM32F1xx_HAL_Driver/Src/stm32f1xx_ll_sdmmc.c ****   sdmmc_cmdinit.CPSM             = SDIO_CPSM_ENABLE;
1121:Drivers/STM32F1xx_HAL_Driver/Src/stm32f1xx_ll_sdmmc.c ****   SDIO_SendCommand(SDIOx, &sdmmc_cmdinit);
1122:Drivers/STM32F1xx_HAL_Driver/Src/stm32f1xx_ll_sdmmc.c ****   
1123:Drivers/STM32F1xx_HAL_Driver/Src/stm32f1xx_ll_sdmmc.c ****   /* Check for error conditions */
1124:Drivers/STM32F1xx_HAL_Driver/Src/stm32f1xx_ll_sdmmc.c ****   errorstate = SDMMC_GetCmdResp1(SDIOx, SDMMC_CMD_HS_SWITCH, SDIO_CMDTIMEOUT);
1125:Drivers/STM32F1xx_HAL_Driver/Src/stm32f1xx_ll_sdmmc.c **** 
1126:Drivers/STM32F1xx_HAL_Driver/Src/stm32f1xx_ll_sdmmc.c ****   return errorstate;
1127:Drivers/STM32F1xx_HAL_Driver/Src/stm32f1xx_ll_sdmmc.c **** }
1128:Drivers/STM32F1xx_HAL_Driver/Src/stm32f1xx_ll_sdmmc.c **** 
1129:Drivers/STM32F1xx_HAL_Driver/Src/stm32f1xx_ll_sdmmc.c **** /**
1130:Drivers/STM32F1xx_HAL_Driver/Src/stm32f1xx_ll_sdmmc.c ****   * @}
1131:Drivers/STM32F1xx_HAL_Driver/Src/stm32f1xx_ll_sdmmc.c ****   */
1132:Drivers/STM32F1xx_HAL_Driver/Src/stm32f1xx_ll_sdmmc.c **** 
1133:Drivers/STM32F1xx_HAL_Driver/Src/stm32f1xx_ll_sdmmc.c **** /* Private function ----------------------------------------------------------*/  
1134:Drivers/STM32F1xx_HAL_Driver/Src/stm32f1xx_ll_sdmmc.c **** /** @addtogroup SD_Private_Functions
1135:Drivers/STM32F1xx_HAL_Driver/Src/stm32f1xx_ll_sdmmc.c ****   * @{
1136:Drivers/STM32F1xx_HAL_Driver/Src/stm32f1xx_ll_sdmmc.c ****   */
1137:Drivers/STM32F1xx_HAL_Driver/Src/stm32f1xx_ll_sdmmc.c ****     
1138:Drivers/STM32F1xx_HAL_Driver/Src/stm32f1xx_ll_sdmmc.c **** /**
1139:Drivers/STM32F1xx_HAL_Driver/Src/stm32f1xx_ll_sdmmc.c ****   * @brief  Checks for error conditions for CMD0.
1140:Drivers/STM32F1xx_HAL_Driver/Src/stm32f1xx_ll_sdmmc.c ****   * @param  hsd: SD handle
1141:Drivers/STM32F1xx_HAL_Driver/Src/stm32f1xx_ll_sdmmc.c ****   * @retval SD Card error state
1142:Drivers/STM32F1xx_HAL_Driver/Src/stm32f1xx_ll_sdmmc.c ****   */
1143:Drivers/STM32F1xx_HAL_Driver/Src/stm32f1xx_ll_sdmmc.c **** static uint32_t SDMMC_GetCmdError(SDIO_TypeDef *SDIOx)
1144:Drivers/STM32F1xx_HAL_Driver/Src/stm32f1xx_ll_sdmmc.c **** {
  26              		.loc 1 1144 0
  27              		.cfi_startproc
  28              		@ args = 0, pretend = 0, frame = 0
  29              		@ frame_needed = 0, uses_anonymous_args = 0
  30              		@ link register save eliminated.
  31              	.LVL0:
1145:Drivers/STM32F1xx_HAL_Driver/Src/stm32f1xx_ll_sdmmc.c ****   /* 8 is the number of required instructions cycles for the below loop statement.
1146:Drivers/STM32F1xx_HAL_Driver/Src/stm32f1xx_ll_sdmmc.c ****   The SDMMC_CMDTIMEOUT is expressed in ms */
1147:Drivers/STM32F1xx_HAL_Driver/Src/stm32f1xx_ll_sdmmc.c ****   register uint32_t count = SDIO_CMDTIMEOUT * (SystemCoreClock / 8U /1000U);
  32              		.loc 1 1147 0
  33 0000 0C4B     		ldr	r3, .L5
  34 0002 1B68     		ldr	r3, [r3]
  35 0004 0C4A     		ldr	r2, .L5+4
  36 0006 A2FB0323 		umull	r2, r3, r2, r3
  37 000a 5A0A     		lsrs	r2, r3, #9
  38 000c 41F28833 		movw	r3, #5000
  39 0010 03FB02F3 		mul	r3, r3, r2
  40              	.LVL1:
  41              	.L3:
1148:Drivers/STM32F1xx_HAL_Driver/Src/stm32f1xx_ll_sdmmc.c ****   
1149:Drivers/STM32F1xx_HAL_Driver/Src/stm32f1xx_ll_sdmmc.c ****   do
1150:Drivers/STM32F1xx_HAL_Driver/Src/stm32f1xx_ll_sdmmc.c ****   {
1151:Drivers/STM32F1xx_HAL_Driver/Src/stm32f1xx_ll_sdmmc.c ****     if (count-- == 0U)
  42              		.loc 1 1151 0
  43 0014 5A1E     		subs	r2, r3, #1
  44              	.LVL2:
  45 0016 4BB1     		cbz	r3, .L4
1152:Drivers/STM32F1xx_HAL_Driver/Src/stm32f1xx_ll_sdmmc.c ****     {
1153:Drivers/STM32F1xx_HAL_Driver/Src/stm32f1xx_ll_sdmmc.c ****       return SDMMC_ERROR_TIMEOUT;
ARM GAS  /tmp/ccBn9PL3.s 			page 22


1154:Drivers/STM32F1xx_HAL_Driver/Src/stm32f1xx_ll_sdmmc.c ****     }
1155:Drivers/STM32F1xx_HAL_Driver/Src/stm32f1xx_ll_sdmmc.c ****     
1156:Drivers/STM32F1xx_HAL_Driver/Src/stm32f1xx_ll_sdmmc.c ****   }while(!__SDIO_GET_FLAG(SDIOx, SDIO_FLAG_CMDSENT));
  46              		.loc 1 1156 0
  47 0018 416B     		ldr	r1, [r0, #52]
1151:Drivers/STM32F1xx_HAL_Driver/Src/stm32f1xx_ll_sdmmc.c ****     {
  48              		.loc 1 1151 0
  49 001a 1346     		mov	r3, r2
  50              		.loc 1 1156 0
  51 001c 11F0800F 		tst	r1, #128
  52 0020 F8D0     		beq	.L3
1157:Drivers/STM32F1xx_HAL_Driver/Src/stm32f1xx_ll_sdmmc.c ****   
1158:Drivers/STM32F1xx_HAL_Driver/Src/stm32f1xx_ll_sdmmc.c ****   /* Clear all the static flags */
1159:Drivers/STM32F1xx_HAL_Driver/Src/stm32f1xx_ll_sdmmc.c ****   __SDIO_CLEAR_FLAG(SDIOx, SDIO_STATIC_FLAGS);
  53              		.loc 1 1159 0
  54 0022 40F2FF53 		movw	r3, #1535
  55 0026 8363     		str	r3, [r0, #56]
1160:Drivers/STM32F1xx_HAL_Driver/Src/stm32f1xx_ll_sdmmc.c ****   
1161:Drivers/STM32F1xx_HAL_Driver/Src/stm32f1xx_ll_sdmmc.c ****   return SDMMC_ERROR_NONE;
  56              		.loc 1 1161 0
  57 0028 0020     		movs	r0, #0
  58              	.LVL3:
  59 002a 7047     		bx	lr
  60              	.LVL4:
  61              	.L4:
1153:Drivers/STM32F1xx_HAL_Driver/Src/stm32f1xx_ll_sdmmc.c ****     }
  62              		.loc 1 1153 0
  63 002c 4FF00040 		mov	r0, #-2147483648
  64              	.LVL5:
1162:Drivers/STM32F1xx_HAL_Driver/Src/stm32f1xx_ll_sdmmc.c **** }
  65              		.loc 1 1162 0
  66 0030 7047     		bx	lr
  67              	.L6:
  68 0032 00BF     		.align	2
  69              	.L5:
  70 0034 00000000 		.word	SystemCoreClock
  71 0038 D34D6210 		.word	274877907
  72              		.cfi_endproc
  73              	.LFE101:
  75              		.section	.text.SDMMC_GetCmdResp2,"ax",%progbits
  76              		.align	2
  77              		.thumb
  78              		.thumb_func
  80              	SDMMC_GetCmdResp2:
  81              	.LFB103:
1163:Drivers/STM32F1xx_HAL_Driver/Src/stm32f1xx_ll_sdmmc.c **** 
1164:Drivers/STM32F1xx_HAL_Driver/Src/stm32f1xx_ll_sdmmc.c **** /**
1165:Drivers/STM32F1xx_HAL_Driver/Src/stm32f1xx_ll_sdmmc.c ****   * @brief  Checks for error conditions for R1 response.
1166:Drivers/STM32F1xx_HAL_Driver/Src/stm32f1xx_ll_sdmmc.c ****   * @param  hsd: SD handle
1167:Drivers/STM32F1xx_HAL_Driver/Src/stm32f1xx_ll_sdmmc.c ****   * @param  SD_CMD: The sent command index  
1168:Drivers/STM32F1xx_HAL_Driver/Src/stm32f1xx_ll_sdmmc.c ****   * @retval SD Card error state
1169:Drivers/STM32F1xx_HAL_Driver/Src/stm32f1xx_ll_sdmmc.c ****   */
1170:Drivers/STM32F1xx_HAL_Driver/Src/stm32f1xx_ll_sdmmc.c **** static uint32_t SDMMC_GetCmdResp1(SDIO_TypeDef *SDIOx, uint8_t SD_CMD, uint32_t Timeout)
1171:Drivers/STM32F1xx_HAL_Driver/Src/stm32f1xx_ll_sdmmc.c **** {
1172:Drivers/STM32F1xx_HAL_Driver/Src/stm32f1xx_ll_sdmmc.c ****   uint32_t response_r1;
1173:Drivers/STM32F1xx_HAL_Driver/Src/stm32f1xx_ll_sdmmc.c ****   
1174:Drivers/STM32F1xx_HAL_Driver/Src/stm32f1xx_ll_sdmmc.c ****   /* 8 is the number of required instructions cycles for the below loop statement.
ARM GAS  /tmp/ccBn9PL3.s 			page 23


1175:Drivers/STM32F1xx_HAL_Driver/Src/stm32f1xx_ll_sdmmc.c ****   The Timeout is expressed in ms */
1176:Drivers/STM32F1xx_HAL_Driver/Src/stm32f1xx_ll_sdmmc.c ****   register uint32_t count = Timeout * (SystemCoreClock / 8U /1000U);
1177:Drivers/STM32F1xx_HAL_Driver/Src/stm32f1xx_ll_sdmmc.c ****   
1178:Drivers/STM32F1xx_HAL_Driver/Src/stm32f1xx_ll_sdmmc.c ****   do
1179:Drivers/STM32F1xx_HAL_Driver/Src/stm32f1xx_ll_sdmmc.c ****   {
1180:Drivers/STM32F1xx_HAL_Driver/Src/stm32f1xx_ll_sdmmc.c ****     if (count-- == 0U)
1181:Drivers/STM32F1xx_HAL_Driver/Src/stm32f1xx_ll_sdmmc.c ****     {
1182:Drivers/STM32F1xx_HAL_Driver/Src/stm32f1xx_ll_sdmmc.c ****       return SDMMC_ERROR_TIMEOUT;
1183:Drivers/STM32F1xx_HAL_Driver/Src/stm32f1xx_ll_sdmmc.c ****     }
1184:Drivers/STM32F1xx_HAL_Driver/Src/stm32f1xx_ll_sdmmc.c ****     
1185:Drivers/STM32F1xx_HAL_Driver/Src/stm32f1xx_ll_sdmmc.c ****   }while(!__SDIO_GET_FLAG(SDIOx, SDIO_FLAG_CCRCFAIL | SDIO_FLAG_CMDREND | SDIO_FLAG_CTIMEOUT));
1186:Drivers/STM32F1xx_HAL_Driver/Src/stm32f1xx_ll_sdmmc.c ****   
1187:Drivers/STM32F1xx_HAL_Driver/Src/stm32f1xx_ll_sdmmc.c ****   if(__SDIO_GET_FLAG(SDIOx, SDIO_FLAG_CTIMEOUT))
1188:Drivers/STM32F1xx_HAL_Driver/Src/stm32f1xx_ll_sdmmc.c ****   {
1189:Drivers/STM32F1xx_HAL_Driver/Src/stm32f1xx_ll_sdmmc.c ****     __SDIO_CLEAR_FLAG(SDIOx, SDIO_FLAG_CTIMEOUT);
1190:Drivers/STM32F1xx_HAL_Driver/Src/stm32f1xx_ll_sdmmc.c ****     
1191:Drivers/STM32F1xx_HAL_Driver/Src/stm32f1xx_ll_sdmmc.c ****     return SDMMC_ERROR_CMD_RSP_TIMEOUT;
1192:Drivers/STM32F1xx_HAL_Driver/Src/stm32f1xx_ll_sdmmc.c ****   }
1193:Drivers/STM32F1xx_HAL_Driver/Src/stm32f1xx_ll_sdmmc.c ****   else if(__SDIO_GET_FLAG(SDIOx, SDIO_FLAG_CCRCFAIL))
1194:Drivers/STM32F1xx_HAL_Driver/Src/stm32f1xx_ll_sdmmc.c ****   {
1195:Drivers/STM32F1xx_HAL_Driver/Src/stm32f1xx_ll_sdmmc.c ****     __SDIO_CLEAR_FLAG(SDIOx, SDIO_FLAG_CCRCFAIL);
1196:Drivers/STM32F1xx_HAL_Driver/Src/stm32f1xx_ll_sdmmc.c ****     
1197:Drivers/STM32F1xx_HAL_Driver/Src/stm32f1xx_ll_sdmmc.c ****     return SDMMC_ERROR_CMD_CRC_FAIL;
1198:Drivers/STM32F1xx_HAL_Driver/Src/stm32f1xx_ll_sdmmc.c ****   }
1199:Drivers/STM32F1xx_HAL_Driver/Src/stm32f1xx_ll_sdmmc.c ****   
1200:Drivers/STM32F1xx_HAL_Driver/Src/stm32f1xx_ll_sdmmc.c ****   /* Check response received is of desired command */
1201:Drivers/STM32F1xx_HAL_Driver/Src/stm32f1xx_ll_sdmmc.c ****   if(SDIO_GetCommandResponse(SDIOx) != SD_CMD)
1202:Drivers/STM32F1xx_HAL_Driver/Src/stm32f1xx_ll_sdmmc.c ****   {
1203:Drivers/STM32F1xx_HAL_Driver/Src/stm32f1xx_ll_sdmmc.c ****     return SDMMC_ERROR_CMD_CRC_FAIL;
1204:Drivers/STM32F1xx_HAL_Driver/Src/stm32f1xx_ll_sdmmc.c ****   }
1205:Drivers/STM32F1xx_HAL_Driver/Src/stm32f1xx_ll_sdmmc.c ****   
1206:Drivers/STM32F1xx_HAL_Driver/Src/stm32f1xx_ll_sdmmc.c ****   /* Clear all the static flags */
1207:Drivers/STM32F1xx_HAL_Driver/Src/stm32f1xx_ll_sdmmc.c ****   __SDIO_CLEAR_FLAG(SDIOx, SDIO_STATIC_FLAGS);
1208:Drivers/STM32F1xx_HAL_Driver/Src/stm32f1xx_ll_sdmmc.c ****   
1209:Drivers/STM32F1xx_HAL_Driver/Src/stm32f1xx_ll_sdmmc.c ****   /* We have received response, retrieve it for analysis  */
1210:Drivers/STM32F1xx_HAL_Driver/Src/stm32f1xx_ll_sdmmc.c ****   response_r1 = SDIO_GetResponse(SDIOx, SDIO_RESP1);
1211:Drivers/STM32F1xx_HAL_Driver/Src/stm32f1xx_ll_sdmmc.c ****   
1212:Drivers/STM32F1xx_HAL_Driver/Src/stm32f1xx_ll_sdmmc.c ****   if((response_r1 & SDMMC_OCR_ERRORBITS) == SDMMC_ALLZERO)
1213:Drivers/STM32F1xx_HAL_Driver/Src/stm32f1xx_ll_sdmmc.c ****   {
1214:Drivers/STM32F1xx_HAL_Driver/Src/stm32f1xx_ll_sdmmc.c ****     return SDMMC_ERROR_NONE;
1215:Drivers/STM32F1xx_HAL_Driver/Src/stm32f1xx_ll_sdmmc.c ****   }
1216:Drivers/STM32F1xx_HAL_Driver/Src/stm32f1xx_ll_sdmmc.c ****   else if((response_r1 & SDMMC_OCR_ADDR_OUT_OF_RANGE) == SDMMC_OCR_ADDR_OUT_OF_RANGE)
1217:Drivers/STM32F1xx_HAL_Driver/Src/stm32f1xx_ll_sdmmc.c ****   {
1218:Drivers/STM32F1xx_HAL_Driver/Src/stm32f1xx_ll_sdmmc.c ****     return SDMMC_ERROR_ADDR_OUT_OF_RANGE;
1219:Drivers/STM32F1xx_HAL_Driver/Src/stm32f1xx_ll_sdmmc.c ****   }
1220:Drivers/STM32F1xx_HAL_Driver/Src/stm32f1xx_ll_sdmmc.c ****   else if((response_r1 & SDMMC_OCR_ADDR_MISALIGNED) == SDMMC_OCR_ADDR_MISALIGNED)
1221:Drivers/STM32F1xx_HAL_Driver/Src/stm32f1xx_ll_sdmmc.c ****   {
1222:Drivers/STM32F1xx_HAL_Driver/Src/stm32f1xx_ll_sdmmc.c ****     return SDMMC_ERROR_ADDR_MISALIGNED;
1223:Drivers/STM32F1xx_HAL_Driver/Src/stm32f1xx_ll_sdmmc.c ****   }
1224:Drivers/STM32F1xx_HAL_Driver/Src/stm32f1xx_ll_sdmmc.c ****   else if((response_r1 & SDMMC_OCR_BLOCK_LEN_ERR) == SDMMC_OCR_BLOCK_LEN_ERR)
1225:Drivers/STM32F1xx_HAL_Driver/Src/stm32f1xx_ll_sdmmc.c ****   {
1226:Drivers/STM32F1xx_HAL_Driver/Src/stm32f1xx_ll_sdmmc.c ****     return SDMMC_ERROR_BLOCK_LEN_ERR;
1227:Drivers/STM32F1xx_HAL_Driver/Src/stm32f1xx_ll_sdmmc.c ****   }
1228:Drivers/STM32F1xx_HAL_Driver/Src/stm32f1xx_ll_sdmmc.c ****   else if((response_r1 & SDMMC_OCR_ERASE_SEQ_ERR) == SDMMC_OCR_ERASE_SEQ_ERR)
1229:Drivers/STM32F1xx_HAL_Driver/Src/stm32f1xx_ll_sdmmc.c ****   {
1230:Drivers/STM32F1xx_HAL_Driver/Src/stm32f1xx_ll_sdmmc.c ****     return SDMMC_ERROR_ERASE_SEQ_ERR;
1231:Drivers/STM32F1xx_HAL_Driver/Src/stm32f1xx_ll_sdmmc.c ****   }
ARM GAS  /tmp/ccBn9PL3.s 			page 24


1232:Drivers/STM32F1xx_HAL_Driver/Src/stm32f1xx_ll_sdmmc.c ****   else if((response_r1 & SDMMC_OCR_BAD_ERASE_PARAM) == SDMMC_OCR_BAD_ERASE_PARAM)
1233:Drivers/STM32F1xx_HAL_Driver/Src/stm32f1xx_ll_sdmmc.c ****   {
1234:Drivers/STM32F1xx_HAL_Driver/Src/stm32f1xx_ll_sdmmc.c ****     return SDMMC_ERROR_BAD_ERASE_PARAM;
1235:Drivers/STM32F1xx_HAL_Driver/Src/stm32f1xx_ll_sdmmc.c ****   }
1236:Drivers/STM32F1xx_HAL_Driver/Src/stm32f1xx_ll_sdmmc.c ****   else if((response_r1 & SDMMC_OCR_WRITE_PROT_VIOLATION) == SDMMC_OCR_WRITE_PROT_VIOLATION)
1237:Drivers/STM32F1xx_HAL_Driver/Src/stm32f1xx_ll_sdmmc.c ****   {
1238:Drivers/STM32F1xx_HAL_Driver/Src/stm32f1xx_ll_sdmmc.c ****     return SDMMC_ERROR_WRITE_PROT_VIOLATION;
1239:Drivers/STM32F1xx_HAL_Driver/Src/stm32f1xx_ll_sdmmc.c ****   }
1240:Drivers/STM32F1xx_HAL_Driver/Src/stm32f1xx_ll_sdmmc.c ****   else if((response_r1 & SDMMC_OCR_LOCK_UNLOCK_FAILED) == SDMMC_OCR_LOCK_UNLOCK_FAILED)
1241:Drivers/STM32F1xx_HAL_Driver/Src/stm32f1xx_ll_sdmmc.c ****   {
1242:Drivers/STM32F1xx_HAL_Driver/Src/stm32f1xx_ll_sdmmc.c ****     return SDMMC_ERROR_LOCK_UNLOCK_FAILED;
1243:Drivers/STM32F1xx_HAL_Driver/Src/stm32f1xx_ll_sdmmc.c ****   }
1244:Drivers/STM32F1xx_HAL_Driver/Src/stm32f1xx_ll_sdmmc.c ****   else if((response_r1 & SDMMC_OCR_COM_CRC_FAILED) == SDMMC_OCR_COM_CRC_FAILED)
1245:Drivers/STM32F1xx_HAL_Driver/Src/stm32f1xx_ll_sdmmc.c ****   {
1246:Drivers/STM32F1xx_HAL_Driver/Src/stm32f1xx_ll_sdmmc.c ****     return SDMMC_ERROR_COM_CRC_FAILED;
1247:Drivers/STM32F1xx_HAL_Driver/Src/stm32f1xx_ll_sdmmc.c ****   }
1248:Drivers/STM32F1xx_HAL_Driver/Src/stm32f1xx_ll_sdmmc.c ****   else if((response_r1 & SDMMC_OCR_ILLEGAL_CMD) == SDMMC_OCR_ILLEGAL_CMD)
1249:Drivers/STM32F1xx_HAL_Driver/Src/stm32f1xx_ll_sdmmc.c ****   {
1250:Drivers/STM32F1xx_HAL_Driver/Src/stm32f1xx_ll_sdmmc.c ****     return SDMMC_ERROR_ILLEGAL_CMD;
1251:Drivers/STM32F1xx_HAL_Driver/Src/stm32f1xx_ll_sdmmc.c ****   }
1252:Drivers/STM32F1xx_HAL_Driver/Src/stm32f1xx_ll_sdmmc.c ****   else if((response_r1 & SDMMC_OCR_CARD_ECC_FAILED) == SDMMC_OCR_CARD_ECC_FAILED)
1253:Drivers/STM32F1xx_HAL_Driver/Src/stm32f1xx_ll_sdmmc.c ****   {
1254:Drivers/STM32F1xx_HAL_Driver/Src/stm32f1xx_ll_sdmmc.c ****     return SDMMC_ERROR_CARD_ECC_FAILED;
1255:Drivers/STM32F1xx_HAL_Driver/Src/stm32f1xx_ll_sdmmc.c ****   }
1256:Drivers/STM32F1xx_HAL_Driver/Src/stm32f1xx_ll_sdmmc.c ****   else if((response_r1 & SDMMC_OCR_CC_ERROR) == SDMMC_OCR_CC_ERROR)
1257:Drivers/STM32F1xx_HAL_Driver/Src/stm32f1xx_ll_sdmmc.c ****   {
1258:Drivers/STM32F1xx_HAL_Driver/Src/stm32f1xx_ll_sdmmc.c ****     return SDMMC_ERROR_CC_ERR;
1259:Drivers/STM32F1xx_HAL_Driver/Src/stm32f1xx_ll_sdmmc.c ****   }
1260:Drivers/STM32F1xx_HAL_Driver/Src/stm32f1xx_ll_sdmmc.c ****   else if((response_r1 & SDMMC_OCR_STREAM_READ_UNDERRUN) == SDMMC_OCR_STREAM_READ_UNDERRUN)
1261:Drivers/STM32F1xx_HAL_Driver/Src/stm32f1xx_ll_sdmmc.c ****   {
1262:Drivers/STM32F1xx_HAL_Driver/Src/stm32f1xx_ll_sdmmc.c ****     return SDMMC_ERROR_STREAM_READ_UNDERRUN;
1263:Drivers/STM32F1xx_HAL_Driver/Src/stm32f1xx_ll_sdmmc.c ****   }
1264:Drivers/STM32F1xx_HAL_Driver/Src/stm32f1xx_ll_sdmmc.c ****   else if((response_r1 & SDMMC_OCR_STREAM_WRITE_OVERRUN) == SDMMC_OCR_STREAM_WRITE_OVERRUN)
1265:Drivers/STM32F1xx_HAL_Driver/Src/stm32f1xx_ll_sdmmc.c ****   {
1266:Drivers/STM32F1xx_HAL_Driver/Src/stm32f1xx_ll_sdmmc.c ****     return SDMMC_ERROR_STREAM_WRITE_OVERRUN;
1267:Drivers/STM32F1xx_HAL_Driver/Src/stm32f1xx_ll_sdmmc.c ****   }
1268:Drivers/STM32F1xx_HAL_Driver/Src/stm32f1xx_ll_sdmmc.c ****   else if((response_r1 & SDMMC_OCR_CID_CSD_OVERWRITE) == SDMMC_OCR_CID_CSD_OVERWRITE)
1269:Drivers/STM32F1xx_HAL_Driver/Src/stm32f1xx_ll_sdmmc.c ****   {
1270:Drivers/STM32F1xx_HAL_Driver/Src/stm32f1xx_ll_sdmmc.c ****     return SDMMC_ERROR_CID_CSD_OVERWRITE;
1271:Drivers/STM32F1xx_HAL_Driver/Src/stm32f1xx_ll_sdmmc.c ****   }
1272:Drivers/STM32F1xx_HAL_Driver/Src/stm32f1xx_ll_sdmmc.c ****   else if((response_r1 & SDMMC_OCR_WP_ERASE_SKIP) == SDMMC_OCR_WP_ERASE_SKIP)
1273:Drivers/STM32F1xx_HAL_Driver/Src/stm32f1xx_ll_sdmmc.c ****   {
1274:Drivers/STM32F1xx_HAL_Driver/Src/stm32f1xx_ll_sdmmc.c ****     return SDMMC_ERROR_WP_ERASE_SKIP;
1275:Drivers/STM32F1xx_HAL_Driver/Src/stm32f1xx_ll_sdmmc.c ****   }
1276:Drivers/STM32F1xx_HAL_Driver/Src/stm32f1xx_ll_sdmmc.c ****   else if((response_r1 & SDMMC_OCR_CARD_ECC_DISABLED) == SDMMC_OCR_CARD_ECC_DISABLED)
1277:Drivers/STM32F1xx_HAL_Driver/Src/stm32f1xx_ll_sdmmc.c ****   {
1278:Drivers/STM32F1xx_HAL_Driver/Src/stm32f1xx_ll_sdmmc.c ****     return SDMMC_ERROR_CARD_ECC_DISABLED;
1279:Drivers/STM32F1xx_HAL_Driver/Src/stm32f1xx_ll_sdmmc.c ****   }
1280:Drivers/STM32F1xx_HAL_Driver/Src/stm32f1xx_ll_sdmmc.c ****   else if((response_r1 & SDMMC_OCR_ERASE_RESET) == SDMMC_OCR_ERASE_RESET)
1281:Drivers/STM32F1xx_HAL_Driver/Src/stm32f1xx_ll_sdmmc.c ****   {
1282:Drivers/STM32F1xx_HAL_Driver/Src/stm32f1xx_ll_sdmmc.c ****     return SDMMC_ERROR_ERASE_RESET;
1283:Drivers/STM32F1xx_HAL_Driver/Src/stm32f1xx_ll_sdmmc.c ****   }
1284:Drivers/STM32F1xx_HAL_Driver/Src/stm32f1xx_ll_sdmmc.c ****   else if((response_r1 & SDMMC_OCR_AKE_SEQ_ERROR) == SDMMC_OCR_AKE_SEQ_ERROR)
1285:Drivers/STM32F1xx_HAL_Driver/Src/stm32f1xx_ll_sdmmc.c ****   {
1286:Drivers/STM32F1xx_HAL_Driver/Src/stm32f1xx_ll_sdmmc.c ****     return SDMMC_ERROR_AKE_SEQ_ERR;
1287:Drivers/STM32F1xx_HAL_Driver/Src/stm32f1xx_ll_sdmmc.c ****   }
1288:Drivers/STM32F1xx_HAL_Driver/Src/stm32f1xx_ll_sdmmc.c ****   else
ARM GAS  /tmp/ccBn9PL3.s 			page 25


1289:Drivers/STM32F1xx_HAL_Driver/Src/stm32f1xx_ll_sdmmc.c ****   {
1290:Drivers/STM32F1xx_HAL_Driver/Src/stm32f1xx_ll_sdmmc.c ****     return SDMMC_ERROR_GENERAL_UNKNOWN_ERR;
1291:Drivers/STM32F1xx_HAL_Driver/Src/stm32f1xx_ll_sdmmc.c ****   }
1292:Drivers/STM32F1xx_HAL_Driver/Src/stm32f1xx_ll_sdmmc.c **** }
1293:Drivers/STM32F1xx_HAL_Driver/Src/stm32f1xx_ll_sdmmc.c **** 
1294:Drivers/STM32F1xx_HAL_Driver/Src/stm32f1xx_ll_sdmmc.c **** /**
1295:Drivers/STM32F1xx_HAL_Driver/Src/stm32f1xx_ll_sdmmc.c ****   * @brief  Checks for error conditions for R2 (CID or CSD) response.
1296:Drivers/STM32F1xx_HAL_Driver/Src/stm32f1xx_ll_sdmmc.c ****   * @param  hsd: SD handle
1297:Drivers/STM32F1xx_HAL_Driver/Src/stm32f1xx_ll_sdmmc.c ****   * @retval SD Card error state
1298:Drivers/STM32F1xx_HAL_Driver/Src/stm32f1xx_ll_sdmmc.c ****   */
1299:Drivers/STM32F1xx_HAL_Driver/Src/stm32f1xx_ll_sdmmc.c **** static uint32_t SDMMC_GetCmdResp2(SDIO_TypeDef *SDIOx)
1300:Drivers/STM32F1xx_HAL_Driver/Src/stm32f1xx_ll_sdmmc.c **** {
  82              		.loc 1 1300 0
  83              		.cfi_startproc
  84              		@ args = 0, pretend = 0, frame = 0
  85              		@ frame_needed = 0, uses_anonymous_args = 0
  86              		@ link register save eliminated.
  87              	.LVL6:
  88 0000 10B4     		push	{r4}
  89              	.LCFI0:
  90              		.cfi_def_cfa_offset 4
  91              		.cfi_offset 4, -4
  92 0002 0446     		mov	r4, r0
1301:Drivers/STM32F1xx_HAL_Driver/Src/stm32f1xx_ll_sdmmc.c ****   /* 8 is the number of required instructions cycles for the below loop statement.
1302:Drivers/STM32F1xx_HAL_Driver/Src/stm32f1xx_ll_sdmmc.c ****   The SDMMC_CMDTIMEOUT is expressed in ms */
1303:Drivers/STM32F1xx_HAL_Driver/Src/stm32f1xx_ll_sdmmc.c ****   register uint32_t count = SDIO_CMDTIMEOUT * (SystemCoreClock / 8U /1000U);
  93              		.loc 1 1303 0
  94 0004 134B     		ldr	r3, .L14
  95 0006 1B68     		ldr	r3, [r3]
  96 0008 134A     		ldr	r2, .L14+4
  97 000a A2FB0323 		umull	r2, r3, r2, r3
  98 000e 5A0A     		lsrs	r2, r3, #9
  99 0010 41F28833 		movw	r3, #5000
 100 0014 03FB02F3 		mul	r3, r3, r2
 101              	.LVL7:
 102              	.L9:
1304:Drivers/STM32F1xx_HAL_Driver/Src/stm32f1xx_ll_sdmmc.c ****   
1305:Drivers/STM32F1xx_HAL_Driver/Src/stm32f1xx_ll_sdmmc.c ****   do
1306:Drivers/STM32F1xx_HAL_Driver/Src/stm32f1xx_ll_sdmmc.c ****   {
1307:Drivers/STM32F1xx_HAL_Driver/Src/stm32f1xx_ll_sdmmc.c ****     if (count-- == 0U)
 103              		.loc 1 1307 0
 104 0018 5A1E     		subs	r2, r3, #1
 105              	.LVL8:
 106 001a B3B1     		cbz	r3, .L12
1308:Drivers/STM32F1xx_HAL_Driver/Src/stm32f1xx_ll_sdmmc.c ****     {
1309:Drivers/STM32F1xx_HAL_Driver/Src/stm32f1xx_ll_sdmmc.c ****       return SDMMC_ERROR_TIMEOUT;
1310:Drivers/STM32F1xx_HAL_Driver/Src/stm32f1xx_ll_sdmmc.c ****     }
1311:Drivers/STM32F1xx_HAL_Driver/Src/stm32f1xx_ll_sdmmc.c ****     
1312:Drivers/STM32F1xx_HAL_Driver/Src/stm32f1xx_ll_sdmmc.c ****   }while(!__SDIO_GET_FLAG(SDIOx, SDIO_FLAG_CCRCFAIL | SDIO_FLAG_CMDREND | SDIO_FLAG_CTIMEOUT));
 107              		.loc 1 1312 0
 108 001c 616B     		ldr	r1, [r4, #52]
1307:Drivers/STM32F1xx_HAL_Driver/Src/stm32f1xx_ll_sdmmc.c ****     {
 109              		.loc 1 1307 0
 110 001e 1346     		mov	r3, r2
 111              		.loc 1 1312 0
 112 0020 11F0450F 		tst	r1, #69
 113 0024 F8D0     		beq	.L9
ARM GAS  /tmp/ccBn9PL3.s 			page 26


1313:Drivers/STM32F1xx_HAL_Driver/Src/stm32f1xx_ll_sdmmc.c ****     
1314:Drivers/STM32F1xx_HAL_Driver/Src/stm32f1xx_ll_sdmmc.c ****   if (__SDIO_GET_FLAG(SDIOx, SDIO_FLAG_CTIMEOUT))
 114              		.loc 1 1314 0
 115 0026 636B     		ldr	r3, [r4, #52]
 116 0028 13F0040F 		tst	r3, #4
 117 002c 02D0     		beq	.L10
1315:Drivers/STM32F1xx_HAL_Driver/Src/stm32f1xx_ll_sdmmc.c ****   {
1316:Drivers/STM32F1xx_HAL_Driver/Src/stm32f1xx_ll_sdmmc.c ****     __SDIO_CLEAR_FLAG(SDIOx, SDIO_FLAG_CTIMEOUT);
 118              		.loc 1 1316 0
 119 002e 0420     		movs	r0, #4
 120              	.LVL9:
 121 0030 A063     		str	r0, [r4, #56]
1317:Drivers/STM32F1xx_HAL_Driver/Src/stm32f1xx_ll_sdmmc.c ****     
1318:Drivers/STM32F1xx_HAL_Driver/Src/stm32f1xx_ll_sdmmc.c ****     return SDMMC_ERROR_CMD_RSP_TIMEOUT;
 122              		.loc 1 1318 0
 123 0032 0CE0     		b	.L8
 124              	.LVL10:
 125              	.L10:
1319:Drivers/STM32F1xx_HAL_Driver/Src/stm32f1xx_ll_sdmmc.c ****   }
1320:Drivers/STM32F1xx_HAL_Driver/Src/stm32f1xx_ll_sdmmc.c ****   else if (__SDIO_GET_FLAG(SDIOx, SDIO_FLAG_CCRCFAIL))
 126              		.loc 1 1320 0
 127 0034 606B     		ldr	r0, [r4, #52]
 128              	.LVL11:
 129 0036 10F00100 		ands	r0, r0, #1
 130 003a 02D0     		beq	.L11
1321:Drivers/STM32F1xx_HAL_Driver/Src/stm32f1xx_ll_sdmmc.c ****   {
1322:Drivers/STM32F1xx_HAL_Driver/Src/stm32f1xx_ll_sdmmc.c ****     __SDIO_CLEAR_FLAG(SDIOx, SDIO_FLAG_CCRCFAIL);
 131              		.loc 1 1322 0
 132 003c 0120     		movs	r0, #1
 133 003e A063     		str	r0, [r4, #56]
1323:Drivers/STM32F1xx_HAL_Driver/Src/stm32f1xx_ll_sdmmc.c ****     
1324:Drivers/STM32F1xx_HAL_Driver/Src/stm32f1xx_ll_sdmmc.c ****     return SDMMC_ERROR_CMD_CRC_FAIL;
 134              		.loc 1 1324 0
 135 0040 05E0     		b	.L8
 136              	.L11:
1325:Drivers/STM32F1xx_HAL_Driver/Src/stm32f1xx_ll_sdmmc.c ****   }
1326:Drivers/STM32F1xx_HAL_Driver/Src/stm32f1xx_ll_sdmmc.c ****   else
1327:Drivers/STM32F1xx_HAL_Driver/Src/stm32f1xx_ll_sdmmc.c ****   {
1328:Drivers/STM32F1xx_HAL_Driver/Src/stm32f1xx_ll_sdmmc.c ****     /* No error flag set */
1329:Drivers/STM32F1xx_HAL_Driver/Src/stm32f1xx_ll_sdmmc.c ****     /* Clear all the static flags */
1330:Drivers/STM32F1xx_HAL_Driver/Src/stm32f1xx_ll_sdmmc.c ****     __SDIO_CLEAR_FLAG(SDIOx, SDIO_STATIC_FLAGS);
 137              		.loc 1 1330 0
 138 0042 40F2FF53 		movw	r3, #1535
 139 0046 A363     		str	r3, [r4, #56]
1331:Drivers/STM32F1xx_HAL_Driver/Src/stm32f1xx_ll_sdmmc.c ****   }
1332:Drivers/STM32F1xx_HAL_Driver/Src/stm32f1xx_ll_sdmmc.c **** 
1333:Drivers/STM32F1xx_HAL_Driver/Src/stm32f1xx_ll_sdmmc.c ****   return SDMMC_ERROR_NONE;
 140              		.loc 1 1333 0
 141 0048 01E0     		b	.L8
 142              	.LVL12:
 143              	.L12:
1309:Drivers/STM32F1xx_HAL_Driver/Src/stm32f1xx_ll_sdmmc.c ****     }
 144              		.loc 1 1309 0
 145 004a 4FF00040 		mov	r0, #-2147483648
 146              	.LVL13:
 147              	.L8:
1334:Drivers/STM32F1xx_HAL_Driver/Src/stm32f1xx_ll_sdmmc.c **** }
ARM GAS  /tmp/ccBn9PL3.s 			page 27


 148              		.loc 1 1334 0
 149 004e 5DF8044B 		ldr	r4, [sp], #4
 150              	.LCFI1:
 151              		.cfi_restore 4
 152              		.cfi_def_cfa_offset 0
 153              	.LVL14:
 154 0052 7047     		bx	lr
 155              	.L15:
 156              		.align	2
 157              	.L14:
 158 0054 00000000 		.word	SystemCoreClock
 159 0058 D34D6210 		.word	274877907
 160              		.cfi_endproc
 161              	.LFE103:
 163              		.section	.text.SDMMC_GetCmdResp3,"ax",%progbits
 164              		.align	2
 165              		.thumb
 166              		.thumb_func
 168              	SDMMC_GetCmdResp3:
 169              	.LFB104:
1335:Drivers/STM32F1xx_HAL_Driver/Src/stm32f1xx_ll_sdmmc.c **** 
1336:Drivers/STM32F1xx_HAL_Driver/Src/stm32f1xx_ll_sdmmc.c **** /**
1337:Drivers/STM32F1xx_HAL_Driver/Src/stm32f1xx_ll_sdmmc.c ****   * @brief  Checks for error conditions for R3 (OCR) response.
1338:Drivers/STM32F1xx_HAL_Driver/Src/stm32f1xx_ll_sdmmc.c ****   * @param  hsd: SD handle
1339:Drivers/STM32F1xx_HAL_Driver/Src/stm32f1xx_ll_sdmmc.c ****   * @retval SD Card error state
1340:Drivers/STM32F1xx_HAL_Driver/Src/stm32f1xx_ll_sdmmc.c ****   */
1341:Drivers/STM32F1xx_HAL_Driver/Src/stm32f1xx_ll_sdmmc.c **** static uint32_t SDMMC_GetCmdResp3(SDIO_TypeDef *SDIOx)
1342:Drivers/STM32F1xx_HAL_Driver/Src/stm32f1xx_ll_sdmmc.c **** {
 170              		.loc 1 1342 0
 171              		.cfi_startproc
 172              		@ args = 0, pretend = 0, frame = 0
 173              		@ frame_needed = 0, uses_anonymous_args = 0
 174              		@ link register save eliminated.
 175              	.LVL15:
 176 0000 10B4     		push	{r4}
 177              	.LCFI2:
 178              		.cfi_def_cfa_offset 4
 179              		.cfi_offset 4, -4
 180 0002 0446     		mov	r4, r0
1343:Drivers/STM32F1xx_HAL_Driver/Src/stm32f1xx_ll_sdmmc.c ****   /* 8 is the number of required instructions cycles for the below loop statement.
1344:Drivers/STM32F1xx_HAL_Driver/Src/stm32f1xx_ll_sdmmc.c ****   The SDMMC_CMDTIMEOUT is expressed in ms */
1345:Drivers/STM32F1xx_HAL_Driver/Src/stm32f1xx_ll_sdmmc.c ****   register uint32_t count = SDIO_CMDTIMEOUT * (SystemCoreClock / 8U /1000U);
 181              		.loc 1 1345 0
 182 0004 104B     		ldr	r3, .L22
 183 0006 1B68     		ldr	r3, [r3]
 184 0008 104A     		ldr	r2, .L22+4
 185 000a A2FB0323 		umull	r2, r3, r2, r3
 186 000e 5A0A     		lsrs	r2, r3, #9
 187 0010 41F28833 		movw	r3, #5000
 188 0014 03FB02F3 		mul	r3, r3, r2
 189              	.LVL16:
 190              	.L18:
1346:Drivers/STM32F1xx_HAL_Driver/Src/stm32f1xx_ll_sdmmc.c ****   
1347:Drivers/STM32F1xx_HAL_Driver/Src/stm32f1xx_ll_sdmmc.c ****   do
1348:Drivers/STM32F1xx_HAL_Driver/Src/stm32f1xx_ll_sdmmc.c ****   {
1349:Drivers/STM32F1xx_HAL_Driver/Src/stm32f1xx_ll_sdmmc.c ****     if (count-- == 0U)
 191              		.loc 1 1349 0
ARM GAS  /tmp/ccBn9PL3.s 			page 28


 192 0018 5A1E     		subs	r2, r3, #1
 193              	.LVL17:
 194 001a 7BB1     		cbz	r3, .L20
1350:Drivers/STM32F1xx_HAL_Driver/Src/stm32f1xx_ll_sdmmc.c ****     {
1351:Drivers/STM32F1xx_HAL_Driver/Src/stm32f1xx_ll_sdmmc.c ****       return SDMMC_ERROR_TIMEOUT;
1352:Drivers/STM32F1xx_HAL_Driver/Src/stm32f1xx_ll_sdmmc.c ****     }
1353:Drivers/STM32F1xx_HAL_Driver/Src/stm32f1xx_ll_sdmmc.c ****     
1354:Drivers/STM32F1xx_HAL_Driver/Src/stm32f1xx_ll_sdmmc.c ****   }while(!__SDIO_GET_FLAG(SDIOx, SDIO_FLAG_CCRCFAIL | SDIO_FLAG_CMDREND | SDIO_FLAG_CTIMEOUT));
 195              		.loc 1 1354 0
 196 001c 616B     		ldr	r1, [r4, #52]
1349:Drivers/STM32F1xx_HAL_Driver/Src/stm32f1xx_ll_sdmmc.c ****     {
 197              		.loc 1 1349 0
 198 001e 1346     		mov	r3, r2
 199              		.loc 1 1354 0
 200 0020 11F0450F 		tst	r1, #69
 201 0024 F8D0     		beq	.L18
1355:Drivers/STM32F1xx_HAL_Driver/Src/stm32f1xx_ll_sdmmc.c ****   
1356:Drivers/STM32F1xx_HAL_Driver/Src/stm32f1xx_ll_sdmmc.c ****   if(__SDIO_GET_FLAG(SDIOx, SDIO_FLAG_CTIMEOUT))
 202              		.loc 1 1356 0
 203 0026 606B     		ldr	r0, [r4, #52]
 204              	.LVL18:
 205 0028 10F00400 		ands	r0, r0, #4
 206 002c 02D0     		beq	.L19
1357:Drivers/STM32F1xx_HAL_Driver/Src/stm32f1xx_ll_sdmmc.c ****   {
1358:Drivers/STM32F1xx_HAL_Driver/Src/stm32f1xx_ll_sdmmc.c ****     __SDIO_CLEAR_FLAG(SDIOx, SDIO_FLAG_CTIMEOUT);
 207              		.loc 1 1358 0
 208 002e 0420     		movs	r0, #4
 209 0030 A063     		str	r0, [r4, #56]
1359:Drivers/STM32F1xx_HAL_Driver/Src/stm32f1xx_ll_sdmmc.c ****     
1360:Drivers/STM32F1xx_HAL_Driver/Src/stm32f1xx_ll_sdmmc.c ****     return SDMMC_ERROR_CMD_RSP_TIMEOUT;
 210              		.loc 1 1360 0
 211 0032 05E0     		b	.L17
 212              	.L19:
1361:Drivers/STM32F1xx_HAL_Driver/Src/stm32f1xx_ll_sdmmc.c ****   }
1362:Drivers/STM32F1xx_HAL_Driver/Src/stm32f1xx_ll_sdmmc.c ****   else
1363:Drivers/STM32F1xx_HAL_Driver/Src/stm32f1xx_ll_sdmmc.c ****  
1364:Drivers/STM32F1xx_HAL_Driver/Src/stm32f1xx_ll_sdmmc.c ****   {  
1365:Drivers/STM32F1xx_HAL_Driver/Src/stm32f1xx_ll_sdmmc.c ****     /* Clear all the static flags */
1366:Drivers/STM32F1xx_HAL_Driver/Src/stm32f1xx_ll_sdmmc.c ****     __SDIO_CLEAR_FLAG(SDIOx, SDIO_STATIC_FLAGS);
 213              		.loc 1 1366 0
 214 0034 40F2FF53 		movw	r3, #1535
 215 0038 A363     		str	r3, [r4, #56]
1367:Drivers/STM32F1xx_HAL_Driver/Src/stm32f1xx_ll_sdmmc.c ****   }
1368:Drivers/STM32F1xx_HAL_Driver/Src/stm32f1xx_ll_sdmmc.c ****   
1369:Drivers/STM32F1xx_HAL_Driver/Src/stm32f1xx_ll_sdmmc.c ****   return SDMMC_ERROR_NONE;
 216              		.loc 1 1369 0
 217 003a 01E0     		b	.L17
 218              	.LVL19:
 219              	.L20:
1351:Drivers/STM32F1xx_HAL_Driver/Src/stm32f1xx_ll_sdmmc.c ****     }
 220              		.loc 1 1351 0
 221 003c 4FF00040 		mov	r0, #-2147483648
 222              	.LVL20:
 223              	.L17:
1370:Drivers/STM32F1xx_HAL_Driver/Src/stm32f1xx_ll_sdmmc.c **** }
 224              		.loc 1 1370 0
 225 0040 5DF8044B 		ldr	r4, [sp], #4
ARM GAS  /tmp/ccBn9PL3.s 			page 29


 226              	.LCFI3:
 227              		.cfi_restore 4
 228              		.cfi_def_cfa_offset 0
 229              	.LVL21:
 230 0044 7047     		bx	lr
 231              	.L23:
 232 0046 00BF     		.align	2
 233              	.L22:
 234 0048 00000000 		.word	SystemCoreClock
 235 004c D34D6210 		.word	274877907
 236              		.cfi_endproc
 237              	.LFE104:
 239              		.section	.text.SDMMC_GetCmdResp7,"ax",%progbits
 240              		.align	2
 241              		.thumb
 242              		.thumb_func
 244              	SDMMC_GetCmdResp7:
 245              	.LFB106:
1371:Drivers/STM32F1xx_HAL_Driver/Src/stm32f1xx_ll_sdmmc.c **** 
1372:Drivers/STM32F1xx_HAL_Driver/Src/stm32f1xx_ll_sdmmc.c **** /**
1373:Drivers/STM32F1xx_HAL_Driver/Src/stm32f1xx_ll_sdmmc.c ****   * @brief  Checks for error conditions for R6 (RCA) response.
1374:Drivers/STM32F1xx_HAL_Driver/Src/stm32f1xx_ll_sdmmc.c ****   * @param  hsd: SD handle
1375:Drivers/STM32F1xx_HAL_Driver/Src/stm32f1xx_ll_sdmmc.c ****   * @param  SD_CMD: The sent command index
1376:Drivers/STM32F1xx_HAL_Driver/Src/stm32f1xx_ll_sdmmc.c ****   * @param  pRCA: Pointer to the variable that will contain the SD card relative 
1377:Drivers/STM32F1xx_HAL_Driver/Src/stm32f1xx_ll_sdmmc.c ****   *         address RCA   
1378:Drivers/STM32F1xx_HAL_Driver/Src/stm32f1xx_ll_sdmmc.c ****   * @retval SD Card error state
1379:Drivers/STM32F1xx_HAL_Driver/Src/stm32f1xx_ll_sdmmc.c ****   */
1380:Drivers/STM32F1xx_HAL_Driver/Src/stm32f1xx_ll_sdmmc.c **** static uint32_t SDMMC_GetCmdResp6(SDIO_TypeDef *SDIOx, uint8_t SD_CMD, uint16_t *pRCA)
1381:Drivers/STM32F1xx_HAL_Driver/Src/stm32f1xx_ll_sdmmc.c **** {
1382:Drivers/STM32F1xx_HAL_Driver/Src/stm32f1xx_ll_sdmmc.c ****   uint32_t response_r1;
1383:Drivers/STM32F1xx_HAL_Driver/Src/stm32f1xx_ll_sdmmc.c **** 
1384:Drivers/STM32F1xx_HAL_Driver/Src/stm32f1xx_ll_sdmmc.c ****   /* 8 is the number of required instructions cycles for the below loop statement.
1385:Drivers/STM32F1xx_HAL_Driver/Src/stm32f1xx_ll_sdmmc.c ****   The SDMMC_CMDTIMEOUT is expressed in ms */
1386:Drivers/STM32F1xx_HAL_Driver/Src/stm32f1xx_ll_sdmmc.c ****   register uint32_t count = SDIO_CMDTIMEOUT * (SystemCoreClock / 8U /1000U);
1387:Drivers/STM32F1xx_HAL_Driver/Src/stm32f1xx_ll_sdmmc.c ****   
1388:Drivers/STM32F1xx_HAL_Driver/Src/stm32f1xx_ll_sdmmc.c ****   do
1389:Drivers/STM32F1xx_HAL_Driver/Src/stm32f1xx_ll_sdmmc.c ****   {
1390:Drivers/STM32F1xx_HAL_Driver/Src/stm32f1xx_ll_sdmmc.c ****     if (count-- == 0U)
1391:Drivers/STM32F1xx_HAL_Driver/Src/stm32f1xx_ll_sdmmc.c ****     {
1392:Drivers/STM32F1xx_HAL_Driver/Src/stm32f1xx_ll_sdmmc.c ****       return SDMMC_ERROR_TIMEOUT;
1393:Drivers/STM32F1xx_HAL_Driver/Src/stm32f1xx_ll_sdmmc.c ****     }
1394:Drivers/STM32F1xx_HAL_Driver/Src/stm32f1xx_ll_sdmmc.c ****     
1395:Drivers/STM32F1xx_HAL_Driver/Src/stm32f1xx_ll_sdmmc.c ****   }while(!__SDIO_GET_FLAG(SDIOx, SDIO_FLAG_CCRCFAIL | SDIO_FLAG_CMDREND | SDIO_FLAG_CTIMEOUT));
1396:Drivers/STM32F1xx_HAL_Driver/Src/stm32f1xx_ll_sdmmc.c ****   
1397:Drivers/STM32F1xx_HAL_Driver/Src/stm32f1xx_ll_sdmmc.c ****   if(__SDIO_GET_FLAG(SDIOx, SDIO_FLAG_CTIMEOUT))
1398:Drivers/STM32F1xx_HAL_Driver/Src/stm32f1xx_ll_sdmmc.c ****   {
1399:Drivers/STM32F1xx_HAL_Driver/Src/stm32f1xx_ll_sdmmc.c ****     __SDIO_CLEAR_FLAG(SDIOx, SDIO_FLAG_CTIMEOUT);
1400:Drivers/STM32F1xx_HAL_Driver/Src/stm32f1xx_ll_sdmmc.c ****     
1401:Drivers/STM32F1xx_HAL_Driver/Src/stm32f1xx_ll_sdmmc.c ****     return SDMMC_ERROR_CMD_RSP_TIMEOUT;
1402:Drivers/STM32F1xx_HAL_Driver/Src/stm32f1xx_ll_sdmmc.c ****   }
1403:Drivers/STM32F1xx_HAL_Driver/Src/stm32f1xx_ll_sdmmc.c ****   else if(__SDIO_GET_FLAG(SDIOx, SDIO_FLAG_CCRCFAIL))
1404:Drivers/STM32F1xx_HAL_Driver/Src/stm32f1xx_ll_sdmmc.c ****   {
1405:Drivers/STM32F1xx_HAL_Driver/Src/stm32f1xx_ll_sdmmc.c ****     __SDIO_CLEAR_FLAG(SDIOx, SDIO_FLAG_CCRCFAIL);
1406:Drivers/STM32F1xx_HAL_Driver/Src/stm32f1xx_ll_sdmmc.c ****     
1407:Drivers/STM32F1xx_HAL_Driver/Src/stm32f1xx_ll_sdmmc.c ****     return SDMMC_ERROR_CMD_CRC_FAIL;
1408:Drivers/STM32F1xx_HAL_Driver/Src/stm32f1xx_ll_sdmmc.c ****   }
1409:Drivers/STM32F1xx_HAL_Driver/Src/stm32f1xx_ll_sdmmc.c ****   
ARM GAS  /tmp/ccBn9PL3.s 			page 30


1410:Drivers/STM32F1xx_HAL_Driver/Src/stm32f1xx_ll_sdmmc.c ****   /* Check response received is of desired command */
1411:Drivers/STM32F1xx_HAL_Driver/Src/stm32f1xx_ll_sdmmc.c ****   if(SDIO_GetCommandResponse(SDIOx) != SD_CMD)
1412:Drivers/STM32F1xx_HAL_Driver/Src/stm32f1xx_ll_sdmmc.c ****   {
1413:Drivers/STM32F1xx_HAL_Driver/Src/stm32f1xx_ll_sdmmc.c ****     return SDMMC_ERROR_CMD_CRC_FAIL;
1414:Drivers/STM32F1xx_HAL_Driver/Src/stm32f1xx_ll_sdmmc.c ****   }
1415:Drivers/STM32F1xx_HAL_Driver/Src/stm32f1xx_ll_sdmmc.c ****   
1416:Drivers/STM32F1xx_HAL_Driver/Src/stm32f1xx_ll_sdmmc.c ****   /* Clear all the static flags */
1417:Drivers/STM32F1xx_HAL_Driver/Src/stm32f1xx_ll_sdmmc.c ****   __SDIO_CLEAR_FLAG(SDIOx, SDIO_STATIC_FLAGS);
1418:Drivers/STM32F1xx_HAL_Driver/Src/stm32f1xx_ll_sdmmc.c ****   
1419:Drivers/STM32F1xx_HAL_Driver/Src/stm32f1xx_ll_sdmmc.c ****   /* We have received response, retrieve it.  */
1420:Drivers/STM32F1xx_HAL_Driver/Src/stm32f1xx_ll_sdmmc.c ****   response_r1 = SDIO_GetResponse(SDIOx, SDIO_RESP1);
1421:Drivers/STM32F1xx_HAL_Driver/Src/stm32f1xx_ll_sdmmc.c ****   
1422:Drivers/STM32F1xx_HAL_Driver/Src/stm32f1xx_ll_sdmmc.c ****   if((response_r1 & (SDMMC_R6_GENERAL_UNKNOWN_ERROR | SDMMC_R6_ILLEGAL_CMD | SDMMC_R6_COM_CRC_FAILE
1423:Drivers/STM32F1xx_HAL_Driver/Src/stm32f1xx_ll_sdmmc.c ****   {
1424:Drivers/STM32F1xx_HAL_Driver/Src/stm32f1xx_ll_sdmmc.c ****     *pRCA = (uint16_t) (response_r1 >> 16);
1425:Drivers/STM32F1xx_HAL_Driver/Src/stm32f1xx_ll_sdmmc.c ****     
1426:Drivers/STM32F1xx_HAL_Driver/Src/stm32f1xx_ll_sdmmc.c ****     return SDMMC_ERROR_NONE;
1427:Drivers/STM32F1xx_HAL_Driver/Src/stm32f1xx_ll_sdmmc.c ****   }
1428:Drivers/STM32F1xx_HAL_Driver/Src/stm32f1xx_ll_sdmmc.c ****   else if((response_r1 & SDMMC_R6_ILLEGAL_CMD) == SDMMC_R6_ILLEGAL_CMD)
1429:Drivers/STM32F1xx_HAL_Driver/Src/stm32f1xx_ll_sdmmc.c ****   {
1430:Drivers/STM32F1xx_HAL_Driver/Src/stm32f1xx_ll_sdmmc.c ****     return SDMMC_ERROR_ILLEGAL_CMD;
1431:Drivers/STM32F1xx_HAL_Driver/Src/stm32f1xx_ll_sdmmc.c ****   }
1432:Drivers/STM32F1xx_HAL_Driver/Src/stm32f1xx_ll_sdmmc.c ****   else if((response_r1 & SDMMC_R6_COM_CRC_FAILED) == SDMMC_R6_COM_CRC_FAILED)
1433:Drivers/STM32F1xx_HAL_Driver/Src/stm32f1xx_ll_sdmmc.c ****   {
1434:Drivers/STM32F1xx_HAL_Driver/Src/stm32f1xx_ll_sdmmc.c ****     return SDMMC_ERROR_COM_CRC_FAILED;
1435:Drivers/STM32F1xx_HAL_Driver/Src/stm32f1xx_ll_sdmmc.c ****   }
1436:Drivers/STM32F1xx_HAL_Driver/Src/stm32f1xx_ll_sdmmc.c ****   else
1437:Drivers/STM32F1xx_HAL_Driver/Src/stm32f1xx_ll_sdmmc.c ****   {
1438:Drivers/STM32F1xx_HAL_Driver/Src/stm32f1xx_ll_sdmmc.c ****     return SDMMC_ERROR_GENERAL_UNKNOWN_ERR;
1439:Drivers/STM32F1xx_HAL_Driver/Src/stm32f1xx_ll_sdmmc.c ****   }
1440:Drivers/STM32F1xx_HAL_Driver/Src/stm32f1xx_ll_sdmmc.c **** }
1441:Drivers/STM32F1xx_HAL_Driver/Src/stm32f1xx_ll_sdmmc.c **** 
1442:Drivers/STM32F1xx_HAL_Driver/Src/stm32f1xx_ll_sdmmc.c **** /**
1443:Drivers/STM32F1xx_HAL_Driver/Src/stm32f1xx_ll_sdmmc.c ****   * @brief  Checks for error conditions for R7 response.
1444:Drivers/STM32F1xx_HAL_Driver/Src/stm32f1xx_ll_sdmmc.c ****   * @param  hsd: SD handle
1445:Drivers/STM32F1xx_HAL_Driver/Src/stm32f1xx_ll_sdmmc.c ****   * @retval SD Card error state
1446:Drivers/STM32F1xx_HAL_Driver/Src/stm32f1xx_ll_sdmmc.c ****   */
1447:Drivers/STM32F1xx_HAL_Driver/Src/stm32f1xx_ll_sdmmc.c **** static uint32_t SDMMC_GetCmdResp7(SDIO_TypeDef *SDIOx)
1448:Drivers/STM32F1xx_HAL_Driver/Src/stm32f1xx_ll_sdmmc.c **** {
 246              		.loc 1 1448 0
 247              		.cfi_startproc
 248              		@ args = 0, pretend = 0, frame = 0
 249              		@ frame_needed = 0, uses_anonymous_args = 0
 250              		@ link register save eliminated.
 251              	.LVL22:
1449:Drivers/STM32F1xx_HAL_Driver/Src/stm32f1xx_ll_sdmmc.c ****   /* 8 is the number of required instructions cycles for the below loop statement.
1450:Drivers/STM32F1xx_HAL_Driver/Src/stm32f1xx_ll_sdmmc.c ****   The SDIO_CMDTIMEOUT is expressed in ms */
1451:Drivers/STM32F1xx_HAL_Driver/Src/stm32f1xx_ll_sdmmc.c ****   register uint32_t count = SDIO_CMDTIMEOUT * (SystemCoreClock / 8U /1000U);
 252              		.loc 1 1451 0
 253 0000 124B     		ldr	r3, .L29
 254 0002 1B68     		ldr	r3, [r3]
 255 0004 124A     		ldr	r2, .L29+4
 256 0006 A2FB0323 		umull	r2, r3, r2, r3
 257 000a 5A0A     		lsrs	r2, r3, #9
 258 000c 41F28833 		movw	r3, #5000
 259 0010 03FB02F3 		mul	r3, r3, r2
 260              	.LVL23:
ARM GAS  /tmp/ccBn9PL3.s 			page 31


 261              	.L26:
1452:Drivers/STM32F1xx_HAL_Driver/Src/stm32f1xx_ll_sdmmc.c ****   
1453:Drivers/STM32F1xx_HAL_Driver/Src/stm32f1xx_ll_sdmmc.c ****   do
1454:Drivers/STM32F1xx_HAL_Driver/Src/stm32f1xx_ll_sdmmc.c ****   {
1455:Drivers/STM32F1xx_HAL_Driver/Src/stm32f1xx_ll_sdmmc.c ****     if (count-- == 0U)
 262              		.loc 1 1455 0
 263 0014 5A1E     		subs	r2, r3, #1
 264              	.LVL24:
 265 0016 A3B1     		cbz	r3, .L28
1456:Drivers/STM32F1xx_HAL_Driver/Src/stm32f1xx_ll_sdmmc.c ****     {
1457:Drivers/STM32F1xx_HAL_Driver/Src/stm32f1xx_ll_sdmmc.c ****       return SDMMC_ERROR_TIMEOUT;
1458:Drivers/STM32F1xx_HAL_Driver/Src/stm32f1xx_ll_sdmmc.c ****     }
1459:Drivers/STM32F1xx_HAL_Driver/Src/stm32f1xx_ll_sdmmc.c ****     
1460:Drivers/STM32F1xx_HAL_Driver/Src/stm32f1xx_ll_sdmmc.c ****   }while(!__SDIO_GET_FLAG(SDIOx, SDIO_FLAG_CCRCFAIL | SDIO_FLAG_CMDREND | SDIO_FLAG_CTIMEOUT));
 266              		.loc 1 1460 0
 267 0018 416B     		ldr	r1, [r0, #52]
1455:Drivers/STM32F1xx_HAL_Driver/Src/stm32f1xx_ll_sdmmc.c ****     {
 268              		.loc 1 1455 0
 269 001a 1346     		mov	r3, r2
 270              		.loc 1 1460 0
 271 001c 11F0450F 		tst	r1, #69
 272 0020 F8D0     		beq	.L26
1461:Drivers/STM32F1xx_HAL_Driver/Src/stm32f1xx_ll_sdmmc.c **** 
1462:Drivers/STM32F1xx_HAL_Driver/Src/stm32f1xx_ll_sdmmc.c ****   if(__SDIO_GET_FLAG(SDIOx, SDIO_FLAG_CTIMEOUT))
 273              		.loc 1 1462 0
 274 0022 436B     		ldr	r3, [r0, #52]
 275 0024 13F00402 		ands	r2, r3, #4
 276              	.LVL25:
 277 0028 03D0     		beq	.L27
1463:Drivers/STM32F1xx_HAL_Driver/Src/stm32f1xx_ll_sdmmc.c ****   {
1464:Drivers/STM32F1xx_HAL_Driver/Src/stm32f1xx_ll_sdmmc.c ****     /* Card is SD V2.0 compliant */
1465:Drivers/STM32F1xx_HAL_Driver/Src/stm32f1xx_ll_sdmmc.c ****     __SDIO_CLEAR_FLAG(SDIOx, SDIO_FLAG_CMDREND);
 278              		.loc 1 1465 0
 279 002a 4023     		movs	r3, #64
 280 002c 8363     		str	r3, [r0, #56]
1466:Drivers/STM32F1xx_HAL_Driver/Src/stm32f1xx_ll_sdmmc.c ****     
1467:Drivers/STM32F1xx_HAL_Driver/Src/stm32f1xx_ll_sdmmc.c ****     return SDMMC_ERROR_CMD_RSP_TIMEOUT;
 281              		.loc 1 1467 0
 282 002e 0423     		movs	r3, #4
 283 0030 09E0     		b	.L25
 284              	.L27:
1468:Drivers/STM32F1xx_HAL_Driver/Src/stm32f1xx_ll_sdmmc.c ****   }
1469:Drivers/STM32F1xx_HAL_Driver/Src/stm32f1xx_ll_sdmmc.c ****   
1470:Drivers/STM32F1xx_HAL_Driver/Src/stm32f1xx_ll_sdmmc.c ****   if(__SDIO_GET_FLAG(SDIOx, SDIO_FLAG_CMDREND))
 285              		.loc 1 1470 0
 286 0032 436B     		ldr	r3, [r0, #52]
 287 0034 13F04003 		ands	r3, r3, #64
 288 0038 05D0     		beq	.L25
1471:Drivers/STM32F1xx_HAL_Driver/Src/stm32f1xx_ll_sdmmc.c ****   {
1472:Drivers/STM32F1xx_HAL_Driver/Src/stm32f1xx_ll_sdmmc.c ****     /* Card is SD V2.0 compliant */
1473:Drivers/STM32F1xx_HAL_Driver/Src/stm32f1xx_ll_sdmmc.c ****     __SDIO_CLEAR_FLAG(SDIOx, SDIO_FLAG_CMDREND);
 289              		.loc 1 1473 0
 290 003a 4023     		movs	r3, #64
 291 003c 8363     		str	r3, [r0, #56]
1474:Drivers/STM32F1xx_HAL_Driver/Src/stm32f1xx_ll_sdmmc.c ****   }
1475:Drivers/STM32F1xx_HAL_Driver/Src/stm32f1xx_ll_sdmmc.c ****   
1476:Drivers/STM32F1xx_HAL_Driver/Src/stm32f1xx_ll_sdmmc.c ****   return SDMMC_ERROR_NONE;
ARM GAS  /tmp/ccBn9PL3.s 			page 32


 292              		.loc 1 1476 0
 293 003e 1346     		mov	r3, r2
 294 0040 01E0     		b	.L25
 295              	.LVL26:
 296              	.L28:
1457:Drivers/STM32F1xx_HAL_Driver/Src/stm32f1xx_ll_sdmmc.c ****     }
 297              		.loc 1 1457 0
 298 0042 4FF00043 		mov	r3, #-2147483648
 299              	.LVL27:
 300              	.L25:
1477:Drivers/STM32F1xx_HAL_Driver/Src/stm32f1xx_ll_sdmmc.c ****   
1478:Drivers/STM32F1xx_HAL_Driver/Src/stm32f1xx_ll_sdmmc.c **** }
 301              		.loc 1 1478 0
 302 0046 1846     		mov	r0, r3
 303              	.LVL28:
 304 0048 7047     		bx	lr
 305              	.L30:
 306 004a 00BF     		.align	2
 307              	.L29:
 308 004c 00000000 		.word	SystemCoreClock
 309 0050 D34D6210 		.word	274877907
 310              		.cfi_endproc
 311              	.LFE106:
 313              		.section	.text.SDIO_Init,"ax",%progbits
 314              		.align	2
 315              		.global	SDIO_Init
 316              		.thumb
 317              		.thumb_func
 319              	SDIO_Init:
 320              	.LFB63:
 227:Drivers/STM32F1xx_HAL_Driver/Src/stm32f1xx_ll_sdmmc.c ****   uint32_t tmpreg = 0U;
 321              		.loc 1 227 0
 322              		.cfi_startproc
 323              		@ args = 28, pretend = 16, frame = 0
 324              		@ frame_needed = 0, uses_anonymous_args = 0
 325              		@ link register save eliminated.
 326              	.LVL29:
 327 0000 84B0     		sub	sp, sp, #16
 328              	.LCFI4:
 329              		.cfi_def_cfa_offset 16
 330 0002 10B4     		push	{r4}
 331              	.LCFI5:
 332              		.cfi_def_cfa_offset 20
 333              		.cfi_offset 4, -20
 334 0004 02AC     		add	r4, sp, #8
 335 0006 84E80E00 		stmia	r4, {r1, r2, r3}
 336              	.LVL30:
 241:Drivers/STM32F1xx_HAL_Driver/Src/stm32f1xx_ll_sdmmc.c ****              Init.ClockPowerSave      |\
 337              		.loc 1 241 0
 338 000a 039B     		ldr	r3, [sp, #12]
 240:Drivers/STM32F1xx_HAL_Driver/Src/stm32f1xx_ll_sdmmc.c ****              Init.ClockBypass         |\
 339              		.loc 1 240 0
 340 000c 1943     		orrs	r1, r1, r3
 242:Drivers/STM32F1xx_HAL_Driver/Src/stm32f1xx_ll_sdmmc.c ****              Init.BusWide             |\
 341              		.loc 1 242 0
 342 000e 049B     		ldr	r3, [sp, #16]
 241:Drivers/STM32F1xx_HAL_Driver/Src/stm32f1xx_ll_sdmmc.c ****              Init.ClockPowerSave      |\
ARM GAS  /tmp/ccBn9PL3.s 			page 33


 343              		.loc 1 241 0
 344 0010 1943     		orrs	r1, r1, r3
 243:Drivers/STM32F1xx_HAL_Driver/Src/stm32f1xx_ll_sdmmc.c ****              Init.HardwareFlowControl |\
 345              		.loc 1 243 0
 346 0012 059B     		ldr	r3, [sp, #20]
 242:Drivers/STM32F1xx_HAL_Driver/Src/stm32f1xx_ll_sdmmc.c ****              Init.BusWide             |\
 347              		.loc 1 242 0
 348 0014 1943     		orrs	r1, r1, r3
 244:Drivers/STM32F1xx_HAL_Driver/Src/stm32f1xx_ll_sdmmc.c ****              Init.ClockDiv
 349              		.loc 1 244 0
 350 0016 069B     		ldr	r3, [sp, #24]
 243:Drivers/STM32F1xx_HAL_Driver/Src/stm32f1xx_ll_sdmmc.c ****              Init.HardwareFlowControl |\
 351              		.loc 1 243 0
 352 0018 1943     		orrs	r1, r1, r3
 245:Drivers/STM32F1xx_HAL_Driver/Src/stm32f1xx_ll_sdmmc.c ****              ); 
 353              		.loc 1 245 0
 354 001a 079B     		ldr	r3, [sp, #28]
 244:Drivers/STM32F1xx_HAL_Driver/Src/stm32f1xx_ll_sdmmc.c ****              Init.ClockDiv
 355              		.loc 1 244 0
 356 001c 1943     		orrs	r1, r1, r3
 357              	.LVL31:
 249:Drivers/STM32F1xx_HAL_Driver/Src/stm32f1xx_ll_sdmmc.c **** 
 358              		.loc 1 249 0
 359 001e 4268     		ldr	r2, [r0, #4]
 360 0020 22F4FD43 		bic	r3, r2, #32384
 361 0024 23F07F03 		bic	r3, r3, #127
 362 0028 0B43     		orrs	r3, r3, r1
 363 002a 4360     		str	r3, [r0, #4]
 252:Drivers/STM32F1xx_HAL_Driver/Src/stm32f1xx_ll_sdmmc.c **** 
 364              		.loc 1 252 0
 365 002c 0020     		movs	r0, #0
 366              	.LVL32:
 367 002e 5DF8044B 		ldr	r4, [sp], #4
 368              	.LCFI6:
 369              		.cfi_restore 4
 370              		.cfi_def_cfa_offset 16
 371 0032 04B0     		add	sp, sp, #16
 372              	.LCFI7:
 373              		.cfi_def_cfa_offset 0
 374 0034 7047     		bx	lr
 375              		.cfi_endproc
 376              	.LFE63:
 378 0036 00BF     		.section	.text.SDIO_ReadFIFO,"ax",%progbits
 379              		.align	2
 380              		.global	SDIO_ReadFIFO
 381              		.thumb
 382              		.thumb_func
 384              	SDIO_ReadFIFO:
 385              	.LFB64:
 280:Drivers/STM32F1xx_HAL_Driver/Src/stm32f1xx_ll_sdmmc.c ****   /* Read data from Rx FIFO */ 
 386              		.loc 1 280 0
 387              		.cfi_startproc
 388              		@ args = 0, pretend = 0, frame = 0
 389              		@ frame_needed = 0, uses_anonymous_args = 0
 390              		@ link register save eliminated.
 391              	.LVL33:
 282:Drivers/STM32F1xx_HAL_Driver/Src/stm32f1xx_ll_sdmmc.c **** }
ARM GAS  /tmp/ccBn9PL3.s 			page 34


 392              		.loc 1 282 0
 393 0000 D0F88000 		ldr	r0, [r0, #128]
 394              	.LVL34:
 283:Drivers/STM32F1xx_HAL_Driver/Src/stm32f1xx_ll_sdmmc.c **** 
 395              		.loc 1 283 0
 396 0004 7047     		bx	lr
 397              		.cfi_endproc
 398              	.LFE64:
 400 0006 00BF     		.section	.text.SDIO_WriteFIFO,"ax",%progbits
 401              		.align	2
 402              		.global	SDIO_WriteFIFO
 403              		.thumb
 404              		.thumb_func
 406              	SDIO_WriteFIFO:
 407              	.LFB65:
 292:Drivers/STM32F1xx_HAL_Driver/Src/stm32f1xx_ll_sdmmc.c ****   /* Write data to FIFO */ 
 408              		.loc 1 292 0
 409              		.cfi_startproc
 410              		@ args = 0, pretend = 0, frame = 0
 411              		@ frame_needed = 0, uses_anonymous_args = 0
 412              		@ link register save eliminated.
 413              	.LVL35:
 294:Drivers/STM32F1xx_HAL_Driver/Src/stm32f1xx_ll_sdmmc.c **** 
 414              		.loc 1 294 0
 415 0000 0B68     		ldr	r3, [r1]
 416 0002 C0F88030 		str	r3, [r0, #128]
 297:Drivers/STM32F1xx_HAL_Driver/Src/stm32f1xx_ll_sdmmc.c **** 
 417              		.loc 1 297 0
 418 0006 0020     		movs	r0, #0
 419              	.LVL36:
 420 0008 7047     		bx	lr
 421              		.cfi_endproc
 422              	.LFE65:
 424 000a 00BF     		.section	.text.SDIO_PowerState_ON,"ax",%progbits
 425              		.align	2
 426              		.global	SDIO_PowerState_ON
 427              		.thumb
 428              		.thumb_func
 430              	SDIO_PowerState_ON:
 431              	.LFB66:
 324:Drivers/STM32F1xx_HAL_Driver/Src/stm32f1xx_ll_sdmmc.c ****   /* Set power state to ON */ 
 432              		.loc 1 324 0
 433              		.cfi_startproc
 434              		@ args = 0, pretend = 0, frame = 0
 435              		@ frame_needed = 0, uses_anonymous_args = 0
 436              		@ link register save eliminated.
 437              	.LVL37:
 326:Drivers/STM32F1xx_HAL_Driver/Src/stm32f1xx_ll_sdmmc.c ****   
 438              		.loc 1 326 0
 439 0000 0323     		movs	r3, #3
 440 0002 0360     		str	r3, [r0]
 329:Drivers/STM32F1xx_HAL_Driver/Src/stm32f1xx_ll_sdmmc.c **** 
 441              		.loc 1 329 0
 442 0004 0020     		movs	r0, #0
 443              	.LVL38:
 444 0006 7047     		bx	lr
 445              		.cfi_endproc
ARM GAS  /tmp/ccBn9PL3.s 			page 35


 446              	.LFE66:
 448              		.section	.text.SDIO_PowerState_OFF,"ax",%progbits
 449              		.align	2
 450              		.global	SDIO_PowerState_OFF
 451              		.thumb
 452              		.thumb_func
 454              	SDIO_PowerState_OFF:
 455              	.LFB67:
 337:Drivers/STM32F1xx_HAL_Driver/Src/stm32f1xx_ll_sdmmc.c ****   /* Set power state to OFF */
 456              		.loc 1 337 0
 457              		.cfi_startproc
 458              		@ args = 0, pretend = 0, frame = 0
 459              		@ frame_needed = 0, uses_anonymous_args = 0
 460              		@ link register save eliminated.
 461              	.LVL39:
 339:Drivers/STM32F1xx_HAL_Driver/Src/stm32f1xx_ll_sdmmc.c ****   
 462              		.loc 1 339 0
 463 0000 0023     		movs	r3, #0
 464 0002 0360     		str	r3, [r0]
 342:Drivers/STM32F1xx_HAL_Driver/Src/stm32f1xx_ll_sdmmc.c **** 
 465              		.loc 1 342 0
 466 0004 1846     		mov	r0, r3
 467              	.LVL40:
 468 0006 7047     		bx	lr
 469              		.cfi_endproc
 470              	.LFE67:
 472              		.section	.text.SDIO_GetPowerState,"ax",%progbits
 473              		.align	2
 474              		.global	SDIO_GetPowerState
 475              		.thumb
 476              		.thumb_func
 478              	SDIO_GetPowerState:
 479              	.LFB68:
 354:Drivers/STM32F1xx_HAL_Driver/Src/stm32f1xx_ll_sdmmc.c ****   return (SDIOx->POWER & SDIO_POWER_PWRCTRL);
 480              		.loc 1 354 0
 481              		.cfi_startproc
 482              		@ args = 0, pretend = 0, frame = 0
 483              		@ frame_needed = 0, uses_anonymous_args = 0
 484              		@ link register save eliminated.
 485              	.LVL41:
 355:Drivers/STM32F1xx_HAL_Driver/Src/stm32f1xx_ll_sdmmc.c **** }
 486              		.loc 1 355 0
 487 0000 0068     		ldr	r0, [r0]
 488              	.LVL42:
 356:Drivers/STM32F1xx_HAL_Driver/Src/stm32f1xx_ll_sdmmc.c **** 
 489              		.loc 1 356 0
 490 0002 00F00300 		and	r0, r0, #3
 491 0006 7047     		bx	lr
 492              		.cfi_endproc
 493              	.LFE68:
 495              		.section	.text.SDIO_SendCommand,"ax",%progbits
 496              		.align	2
 497              		.global	SDIO_SendCommand
 498              		.thumb
 499              		.thumb_func
 501              	SDIO_SendCommand:
 502              	.LFB69:
ARM GAS  /tmp/ccBn9PL3.s 			page 36


 367:Drivers/STM32F1xx_HAL_Driver/Src/stm32f1xx_ll_sdmmc.c ****   uint32_t tmpreg = 0U;
 503              		.loc 1 367 0
 504              		.cfi_startproc
 505              		@ args = 0, pretend = 0, frame = 0
 506              		@ frame_needed = 0, uses_anonymous_args = 0
 507              		@ link register save eliminated.
 508              	.LVL43:
 377:Drivers/STM32F1xx_HAL_Driver/Src/stm32f1xx_ll_sdmmc.c **** 
 509              		.loc 1 377 0
 510 0000 0B68     		ldr	r3, [r1]
 511 0002 8360     		str	r3, [r0, #8]
 380:Drivers/STM32F1xx_HAL_Driver/Src/stm32f1xx_ll_sdmmc.c ****                        Command->Response         |\
 512              		.loc 1 380 0
 513 0004 4A68     		ldr	r2, [r1, #4]
 381:Drivers/STM32F1xx_HAL_Driver/Src/stm32f1xx_ll_sdmmc.c ****                        Command->WaitForInterrupt |\
 514              		.loc 1 381 0
 515 0006 8B68     		ldr	r3, [r1, #8]
 380:Drivers/STM32F1xx_HAL_Driver/Src/stm32f1xx_ll_sdmmc.c ****                        Command->Response         |\
 516              		.loc 1 380 0
 517 0008 1A43     		orrs	r2, r2, r3
 382:Drivers/STM32F1xx_HAL_Driver/Src/stm32f1xx_ll_sdmmc.c ****                        Command->CPSM);
 518              		.loc 1 382 0
 519 000a CB68     		ldr	r3, [r1, #12]
 381:Drivers/STM32F1xx_HAL_Driver/Src/stm32f1xx_ll_sdmmc.c ****                        Command->WaitForInterrupt |\
 520              		.loc 1 381 0
 521 000c 1343     		orrs	r3, r3, r2
 383:Drivers/STM32F1xx_HAL_Driver/Src/stm32f1xx_ll_sdmmc.c ****   
 522              		.loc 1 383 0
 523 000e 0A69     		ldr	r2, [r1, #16]
 380:Drivers/STM32F1xx_HAL_Driver/Src/stm32f1xx_ll_sdmmc.c ****                        Command->Response         |\
 524              		.loc 1 380 0
 525 0010 43EA0201 		orr	r1, r3, r2
 526              	.LVL44:
 386:Drivers/STM32F1xx_HAL_Driver/Src/stm32f1xx_ll_sdmmc.c ****   
 527              		.loc 1 386 0
 528 0014 C268     		ldr	r2, [r0, #12]
 529 0016 22F47F63 		bic	r3, r2, #4080
 530 001a 23F00F03 		bic	r3, r3, #15
 531 001e 0B43     		orrs	r3, r3, r1
 532 0020 C360     		str	r3, [r0, #12]
 389:Drivers/STM32F1xx_HAL_Driver/Src/stm32f1xx_ll_sdmmc.c **** 
 533              		.loc 1 389 0
 534 0022 0020     		movs	r0, #0
 535              	.LVL45:
 536 0024 7047     		bx	lr
 537              		.cfi_endproc
 538              	.LFE69:
 540 0026 00BF     		.section	.text.SDIO_GetCommandResponse,"ax",%progbits
 541              		.align	2
 542              		.global	SDIO_GetCommandResponse
 543              		.thumb
 544              		.thumb_func
 546              	SDIO_GetCommandResponse:
 547              	.LFB70:
 397:Drivers/STM32F1xx_HAL_Driver/Src/stm32f1xx_ll_sdmmc.c ****   return (uint8_t)(SDIOx->RESPCMD);
 548              		.loc 1 397 0
 549              		.cfi_startproc
ARM GAS  /tmp/ccBn9PL3.s 			page 37


 550              		@ args = 0, pretend = 0, frame = 0
 551              		@ frame_needed = 0, uses_anonymous_args = 0
 552              		@ link register save eliminated.
 553              	.LVL46:
 398:Drivers/STM32F1xx_HAL_Driver/Src/stm32f1xx_ll_sdmmc.c **** }
 554              		.loc 1 398 0
 555 0000 0069     		ldr	r0, [r0, #16]
 556              	.LVL47:
 399:Drivers/STM32F1xx_HAL_Driver/Src/stm32f1xx_ll_sdmmc.c **** 
 557              		.loc 1 399 0
 558 0002 C0B2     		uxtb	r0, r0
 559 0004 7047     		bx	lr
 560              		.cfi_endproc
 561              	.LFE70:
 563 0006 00BF     		.section	.text.SDIO_GetResponse,"ax",%progbits
 564              		.align	2
 565              		.global	SDIO_GetResponse
 566              		.thumb
 567              		.thumb_func
 569              	SDIO_GetResponse:
 570              	.LFB71:
 414:Drivers/STM32F1xx_HAL_Driver/Src/stm32f1xx_ll_sdmmc.c ****   __IO uint32_t tmp = 0U;
 571              		.loc 1 414 0
 572              		.cfi_startproc
 573              		@ args = 0, pretend = 0, frame = 8
 574              		@ frame_needed = 0, uses_anonymous_args = 0
 575              		@ link register save eliminated.
 576              	.LVL48:
 577 0000 82B0     		sub	sp, sp, #8
 578              	.LCFI8:
 579              		.cfi_def_cfa_offset 8
 415:Drivers/STM32F1xx_HAL_Driver/Src/stm32f1xx_ll_sdmmc.c **** 
 580              		.loc 1 415 0
 581 0002 0023     		movs	r3, #0
 582 0004 0193     		str	r3, [sp, #4]
 421:Drivers/STM32F1xx_HAL_Driver/Src/stm32f1xx_ll_sdmmc.c ****   
 583              		.loc 1 421 0
 584 0006 1430     		adds	r0, r0, #20
 585              	.LVL49:
 586 0008 0144     		add	r1, r1, r0
 587              	.LVL50:
 588 000a 0191     		str	r1, [sp, #4]
 423:Drivers/STM32F1xx_HAL_Driver/Src/stm32f1xx_ll_sdmmc.c **** }  
 589              		.loc 1 423 0
 590 000c 019B     		ldr	r3, [sp, #4]
 591 000e 1868     		ldr	r0, [r3]
 592              	.LVL51:
 424:Drivers/STM32F1xx_HAL_Driver/Src/stm32f1xx_ll_sdmmc.c **** 
 593              		.loc 1 424 0
 594 0010 02B0     		add	sp, sp, #8
 595              	.LCFI9:
 596              		.cfi_def_cfa_offset 0
 597              		@ sp needed
 598 0012 7047     		bx	lr
 599              		.cfi_endproc
 600              	.LFE71:
 602              		.section	.text.SDMMC_GetCmdResp1,"ax",%progbits
ARM GAS  /tmp/ccBn9PL3.s 			page 38


 603              		.align	2
 604              		.thumb
 605              		.thumb_func
 607              	SDMMC_GetCmdResp1:
 608              	.LFB102:
1171:Drivers/STM32F1xx_HAL_Driver/Src/stm32f1xx_ll_sdmmc.c ****   uint32_t response_r1;
 609              		.loc 1 1171 0
 610              		.cfi_startproc
 611              		@ args = 0, pretend = 0, frame = 0
 612              		@ frame_needed = 0, uses_anonymous_args = 0
 613              	.LVL52:
 614 0000 38B5     		push	{r3, r4, r5, lr}
 615              	.LCFI10:
 616              		.cfi_def_cfa_offset 16
 617              		.cfi_offset 3, -16
 618              		.cfi_offset 4, -12
 619              		.cfi_offset 5, -8
 620              		.cfi_offset 14, -4
1176:Drivers/STM32F1xx_HAL_Driver/Src/stm32f1xx_ll_sdmmc.c ****   
 621              		.loc 1 1176 0
 622 0002 514B     		ldr	r3, .L68
 623 0004 1B68     		ldr	r3, [r3]
 624 0006 514C     		ldr	r4, .L68+4
 625 0008 A4FB0343 		umull	r4, r3, r4, r3
 626 000c 5B0A     		lsrs	r3, r3, #9
 627 000e 02FB03F2 		mul	r2, r2, r3
 628              	.LVL53:
 629              	.L44:
1180:Drivers/STM32F1xx_HAL_Driver/Src/stm32f1xx_ll_sdmmc.c ****     {
 630              		.loc 1 1180 0
 631 0012 531E     		subs	r3, r2, #1
 632              	.LVL54:
 633 0014 002A     		cmp	r2, #0
 634 0016 5ED0     		beq	.L47
1185:Drivers/STM32F1xx_HAL_Driver/Src/stm32f1xx_ll_sdmmc.c ****   
 635              		.loc 1 1185 0
 636 0018 446B     		ldr	r4, [r0, #52]
1180:Drivers/STM32F1xx_HAL_Driver/Src/stm32f1xx_ll_sdmmc.c ****     {
 637              		.loc 1 1180 0
 638 001a 1A46     		mov	r2, r3
1185:Drivers/STM32F1xx_HAL_Driver/Src/stm32f1xx_ll_sdmmc.c ****   
 639              		.loc 1 1185 0
 640 001c 14F0450F 		tst	r4, #69
 641 0020 F7D0     		beq	.L44
1187:Drivers/STM32F1xx_HAL_Driver/Src/stm32f1xx_ll_sdmmc.c ****   {
 642              		.loc 1 1187 0
 643 0022 436B     		ldr	r3, [r0, #52]
 644              	.LVL55:
 645 0024 13F0040F 		tst	r3, #4
 646 0028 03D0     		beq	.L45
1189:Drivers/STM32F1xx_HAL_Driver/Src/stm32f1xx_ll_sdmmc.c ****     
 647              		.loc 1 1189 0
 648 002a 0423     		movs	r3, #4
 649 002c 8363     		str	r3, [r0, #56]
1191:Drivers/STM32F1xx_HAL_Driver/Src/stm32f1xx_ll_sdmmc.c ****   }
 650              		.loc 1 1191 0
 651 002e 1846     		mov	r0, r3
ARM GAS  /tmp/ccBn9PL3.s 			page 39


 652              	.LVL56:
 653 0030 38BD     		pop	{r3, r4, r5, pc}
 654              	.LVL57:
 655              	.L45:
1193:Drivers/STM32F1xx_HAL_Driver/Src/stm32f1xx_ll_sdmmc.c ****   {
 656              		.loc 1 1193 0
 657 0032 436B     		ldr	r3, [r0, #52]
 658 0034 13F0010F 		tst	r3, #1
 659 0038 03D0     		beq	.L46
1195:Drivers/STM32F1xx_HAL_Driver/Src/stm32f1xx_ll_sdmmc.c ****     
 660              		.loc 1 1195 0
 661 003a 0123     		movs	r3, #1
 662 003c 8363     		str	r3, [r0, #56]
1197:Drivers/STM32F1xx_HAL_Driver/Src/stm32f1xx_ll_sdmmc.c ****   }
 663              		.loc 1 1197 0
 664 003e 1846     		mov	r0, r3
 665              	.LVL58:
 666 0040 38BD     		pop	{r3, r4, r5, pc}
 667              	.LVL59:
 668              	.L46:
 669 0042 0D46     		mov	r5, r1
 670 0044 0446     		mov	r4, r0
1201:Drivers/STM32F1xx_HAL_Driver/Src/stm32f1xx_ll_sdmmc.c ****   {
 671              		.loc 1 1201 0
 672 0046 FFF7FEFF 		bl	SDIO_GetCommandResponse
 673              	.LVL60:
 674 004a A842     		cmp	r0, r5
 675 004c 46D1     		bne	.L48
1207:Drivers/STM32F1xx_HAL_Driver/Src/stm32f1xx_ll_sdmmc.c ****   
 676              		.loc 1 1207 0
 677 004e 40F2FF53 		movw	r3, #1535
 678 0052 A363     		str	r3, [r4, #56]
1210:Drivers/STM32F1xx_HAL_Driver/Src/stm32f1xx_ll_sdmmc.c ****   
 679              		.loc 1 1210 0
 680 0054 2046     		mov	r0, r4
 681 0056 0021     		movs	r1, #0
 682 0058 FFF7FEFF 		bl	SDIO_GetResponse
 683              	.LVL61:
 684 005c 0346     		mov	r3, r0
 685              	.LVL62:
1212:Drivers/STM32F1xx_HAL_Driver/Src/stm32f1xx_ll_sdmmc.c ****   {
 686              		.loc 1 1212 0
 687 005e 3C48     		ldr	r0, .L68+8
 688              	.LVL63:
 689 0060 1840     		ands	r0, r0, r3
 690 0062 0028     		cmp	r0, #0
 691 0064 6FD0     		beq	.L43
1216:Drivers/STM32F1xx_HAL_Driver/Src/stm32f1xx_ll_sdmmc.c ****   {
 692              		.loc 1 1216 0
 693 0066 002B     		cmp	r3, #0
 694 0068 3ADB     		blt	.L49
1220:Drivers/STM32F1xx_HAL_Driver/Src/stm32f1xx_ll_sdmmc.c ****   {
 695              		.loc 1 1220 0
 696 006a 13F0804F 		tst	r3, #1073741824
 697 006e 3AD1     		bne	.L50
1224:Drivers/STM32F1xx_HAL_Driver/Src/stm32f1xx_ll_sdmmc.c ****   {
 698              		.loc 1 1224 0
ARM GAS  /tmp/ccBn9PL3.s 			page 40


 699 0070 13F0005F 		tst	r3, #536870912
 700 0074 39D1     		bne	.L51
1228:Drivers/STM32F1xx_HAL_Driver/Src/stm32f1xx_ll_sdmmc.c ****   {
 701              		.loc 1 1228 0
 702 0076 13F0805F 		tst	r3, #268435456
 703 007a 38D1     		bne	.L52
1232:Drivers/STM32F1xx_HAL_Driver/Src/stm32f1xx_ll_sdmmc.c ****   {
 704              		.loc 1 1232 0
 705 007c 13F0006F 		tst	r3, #134217728
 706 0080 38D1     		bne	.L53
1236:Drivers/STM32F1xx_HAL_Driver/Src/stm32f1xx_ll_sdmmc.c ****   {
 707              		.loc 1 1236 0
 708 0082 13F0806F 		tst	r3, #67108864
 709 0086 38D1     		bne	.L54
1240:Drivers/STM32F1xx_HAL_Driver/Src/stm32f1xx_ll_sdmmc.c ****   {
 710              		.loc 1 1240 0
 711 0088 13F0807F 		tst	r3, #16777216
 712 008c 38D1     		bne	.L55
1244:Drivers/STM32F1xx_HAL_Driver/Src/stm32f1xx_ll_sdmmc.c ****   {
 713              		.loc 1 1244 0
 714 008e 13F4000F 		tst	r3, #8388608
 715 0092 38D1     		bne	.L56
1248:Drivers/STM32F1xx_HAL_Driver/Src/stm32f1xx_ll_sdmmc.c ****   {
 716              		.loc 1 1248 0
 717 0094 13F4800F 		tst	r3, #4194304
 718 0098 38D1     		bne	.L57
1252:Drivers/STM32F1xx_HAL_Driver/Src/stm32f1xx_ll_sdmmc.c ****   {
 719              		.loc 1 1252 0
 720 009a 13F4001F 		tst	r3, #2097152
 721 009e 38D1     		bne	.L58
1256:Drivers/STM32F1xx_HAL_Driver/Src/stm32f1xx_ll_sdmmc.c ****   {
 722              		.loc 1 1256 0
 723 00a0 13F4801F 		tst	r3, #1048576
 724 00a4 38D1     		bne	.L59
1260:Drivers/STM32F1xx_HAL_Driver/Src/stm32f1xx_ll_sdmmc.c ****   {
 725              		.loc 1 1260 0
 726 00a6 13F4802F 		tst	r3, #262144
 727 00aa 38D1     		bne	.L60
1264:Drivers/STM32F1xx_HAL_Driver/Src/stm32f1xx_ll_sdmmc.c ****   {
 728              		.loc 1 1264 0
 729 00ac 13F4003F 		tst	r3, #131072
 730 00b0 38D1     		bne	.L61
1268:Drivers/STM32F1xx_HAL_Driver/Src/stm32f1xx_ll_sdmmc.c ****   {
 731              		.loc 1 1268 0
 732 00b2 13F4803F 		tst	r3, #65536
 733 00b6 38D1     		bne	.L62
1272:Drivers/STM32F1xx_HAL_Driver/Src/stm32f1xx_ll_sdmmc.c ****   {
 734              		.loc 1 1272 0
 735 00b8 13F4004F 		tst	r3, #32768
 736 00bc 38D1     		bne	.L63
1276:Drivers/STM32F1xx_HAL_Driver/Src/stm32f1xx_ll_sdmmc.c ****   {
 737              		.loc 1 1276 0
 738 00be 13F4804F 		tst	r3, #16384
 739 00c2 38D1     		bne	.L64
1280:Drivers/STM32F1xx_HAL_Driver/Src/stm32f1xx_ll_sdmmc.c ****   {
 740              		.loc 1 1280 0
 741 00c4 13F4005F 		tst	r3, #8192
ARM GAS  /tmp/ccBn9PL3.s 			page 41


 742 00c8 38D1     		bne	.L65
1284:Drivers/STM32F1xx_HAL_Driver/Src/stm32f1xx_ll_sdmmc.c ****   {
 743              		.loc 1 1284 0
 744 00ca 13F0080F 		tst	r3, #8
 745 00ce 38D0     		beq	.L66
1286:Drivers/STM32F1xx_HAL_Driver/Src/stm32f1xx_ll_sdmmc.c ****   }
 746              		.loc 1 1286 0
 747 00d0 4FF40000 		mov	r0, #8388608
 748 00d4 38BD     		pop	{r3, r4, r5, pc}
 749              	.LVL64:
 750              	.L47:
1182:Drivers/STM32F1xx_HAL_Driver/Src/stm32f1xx_ll_sdmmc.c ****     }
 751              		.loc 1 1182 0
 752 00d6 4FF00040 		mov	r0, #-2147483648
 753              	.LVL65:
 754 00da 38BD     		pop	{r3, r4, r5, pc}
 755              	.LVL66:
 756              	.L48:
1203:Drivers/STM32F1xx_HAL_Driver/Src/stm32f1xx_ll_sdmmc.c ****   }
 757              		.loc 1 1203 0
 758 00dc 0120     		movs	r0, #1
 759 00de 38BD     		pop	{r3, r4, r5, pc}
 760              	.LVL67:
 761              	.L49:
1218:Drivers/STM32F1xx_HAL_Driver/Src/stm32f1xx_ll_sdmmc.c ****   }
 762              		.loc 1 1218 0
 763 00e0 4FF00070 		mov	r0, #33554432
 764 00e4 38BD     		pop	{r3, r4, r5, pc}
 765              	.LVL68:
 766              	.L50:
1222:Drivers/STM32F1xx_HAL_Driver/Src/stm32f1xx_ll_sdmmc.c ****   }
 767              		.loc 1 1222 0
 768 00e6 4020     		movs	r0, #64
 769 00e8 38BD     		pop	{r3, r4, r5, pc}
 770              	.LVL69:
 771              	.L51:
1226:Drivers/STM32F1xx_HAL_Driver/Src/stm32f1xx_ll_sdmmc.c ****   }
 772              		.loc 1 1226 0
 773 00ea 8020     		movs	r0, #128
 774 00ec 38BD     		pop	{r3, r4, r5, pc}
 775              	.LVL70:
 776              	.L52:
1230:Drivers/STM32F1xx_HAL_Driver/Src/stm32f1xx_ll_sdmmc.c ****   }
 777              		.loc 1 1230 0
 778 00ee 4FF48070 		mov	r0, #256
 779 00f2 38BD     		pop	{r3, r4, r5, pc}
 780              	.LVL71:
 781              	.L53:
1234:Drivers/STM32F1xx_HAL_Driver/Src/stm32f1xx_ll_sdmmc.c ****   }
 782              		.loc 1 1234 0
 783 00f4 4FF40070 		mov	r0, #512
 784 00f8 38BD     		pop	{r3, r4, r5, pc}
 785              	.LVL72:
 786              	.L54:
1238:Drivers/STM32F1xx_HAL_Driver/Src/stm32f1xx_ll_sdmmc.c ****   }
 787              		.loc 1 1238 0
 788 00fa 4FF48060 		mov	r0, #1024
ARM GAS  /tmp/ccBn9PL3.s 			page 42


 789 00fe 38BD     		pop	{r3, r4, r5, pc}
 790              	.LVL73:
 791              	.L55:
1242:Drivers/STM32F1xx_HAL_Driver/Src/stm32f1xx_ll_sdmmc.c ****   }
 792              		.loc 1 1242 0
 793 0100 4FF40060 		mov	r0, #2048
 794 0104 38BD     		pop	{r3, r4, r5, pc}
 795              	.LVL74:
 796              	.L56:
1246:Drivers/STM32F1xx_HAL_Driver/Src/stm32f1xx_ll_sdmmc.c ****   }
 797              		.loc 1 1246 0
 798 0106 4FF48050 		mov	r0, #4096
 799 010a 38BD     		pop	{r3, r4, r5, pc}
 800              	.LVL75:
 801              	.L57:
1250:Drivers/STM32F1xx_HAL_Driver/Src/stm32f1xx_ll_sdmmc.c ****   }
 802              		.loc 1 1250 0
 803 010c 4FF40050 		mov	r0, #8192
 804 0110 38BD     		pop	{r3, r4, r5, pc}
 805              	.LVL76:
 806              	.L58:
1254:Drivers/STM32F1xx_HAL_Driver/Src/stm32f1xx_ll_sdmmc.c ****   }
 807              		.loc 1 1254 0
 808 0112 4FF48040 		mov	r0, #16384
 809 0116 38BD     		pop	{r3, r4, r5, pc}
 810              	.LVL77:
 811              	.L59:
1258:Drivers/STM32F1xx_HAL_Driver/Src/stm32f1xx_ll_sdmmc.c ****   }
 812              		.loc 1 1258 0
 813 0118 4FF40040 		mov	r0, #32768
 814 011c 38BD     		pop	{r3, r4, r5, pc}
 815              	.LVL78:
 816              	.L60:
1262:Drivers/STM32F1xx_HAL_Driver/Src/stm32f1xx_ll_sdmmc.c ****   }
 817              		.loc 1 1262 0
 818 011e 4FF40030 		mov	r0, #131072
 819 0122 38BD     		pop	{r3, r4, r5, pc}
 820              	.LVL79:
 821              	.L61:
1266:Drivers/STM32F1xx_HAL_Driver/Src/stm32f1xx_ll_sdmmc.c ****   }
 822              		.loc 1 1266 0
 823 0124 4FF48020 		mov	r0, #262144
 824 0128 38BD     		pop	{r3, r4, r5, pc}
 825              	.LVL80:
 826              	.L62:
1270:Drivers/STM32F1xx_HAL_Driver/Src/stm32f1xx_ll_sdmmc.c ****   }
 827              		.loc 1 1270 0
 828 012a 4FF40020 		mov	r0, #524288
 829 012e 38BD     		pop	{r3, r4, r5, pc}
 830              	.LVL81:
 831              	.L63:
1274:Drivers/STM32F1xx_HAL_Driver/Src/stm32f1xx_ll_sdmmc.c ****   }
 832              		.loc 1 1274 0
 833 0130 4FF48010 		mov	r0, #1048576
 834 0134 38BD     		pop	{r3, r4, r5, pc}
 835              	.LVL82:
 836              	.L64:
ARM GAS  /tmp/ccBn9PL3.s 			page 43


1278:Drivers/STM32F1xx_HAL_Driver/Src/stm32f1xx_ll_sdmmc.c ****   }
 837              		.loc 1 1278 0
 838 0136 4FF40010 		mov	r0, #2097152
 839 013a 38BD     		pop	{r3, r4, r5, pc}
 840              	.LVL83:
 841              	.L65:
1282:Drivers/STM32F1xx_HAL_Driver/Src/stm32f1xx_ll_sdmmc.c ****   }
 842              		.loc 1 1282 0
 843 013c 4FF48000 		mov	r0, #4194304
 844 0140 38BD     		pop	{r3, r4, r5, pc}
 845              	.LVL84:
 846              	.L66:
1290:Drivers/STM32F1xx_HAL_Driver/Src/stm32f1xx_ll_sdmmc.c ****   }
 847              		.loc 1 1290 0
 848 0142 4FF48030 		mov	r0, #65536
 849              	.L43:
1292:Drivers/STM32F1xx_HAL_Driver/Src/stm32f1xx_ll_sdmmc.c **** 
 850              		.loc 1 1292 0
 851 0146 38BD     		pop	{r3, r4, r5, pc}
 852              	.LVL85:
 853              	.L69:
 854              		.align	2
 855              	.L68:
 856 0148 00000000 		.word	SystemCoreClock
 857 014c D34D6210 		.word	274877907
 858 0150 08E0FFFD 		.word	-33562616
 859              		.cfi_endproc
 860              	.LFE102:
 862              		.section	.text.SDMMC_GetCmdResp6,"ax",%progbits
 863              		.align	2
 864              		.thumb
 865              		.thumb_func
 867              	SDMMC_GetCmdResp6:
 868              	.LFB105:
1381:Drivers/STM32F1xx_HAL_Driver/Src/stm32f1xx_ll_sdmmc.c ****   uint32_t response_r1;
 869              		.loc 1 1381 0
 870              		.cfi_startproc
 871              		@ args = 0, pretend = 0, frame = 0
 872              		@ frame_needed = 0, uses_anonymous_args = 0
 873              	.LVL86:
 874 0000 70B5     		push	{r4, r5, r6, lr}
 875              	.LCFI11:
 876              		.cfi_def_cfa_offset 16
 877              		.cfi_offset 4, -16
 878              		.cfi_offset 5, -12
 879              		.cfi_offset 6, -8
 880              		.cfi_offset 14, -4
1386:Drivers/STM32F1xx_HAL_Driver/Src/stm32f1xx_ll_sdmmc.c ****   
 881              		.loc 1 1386 0
 882 0002 254B     		ldr	r3, .L81
 883 0004 1B68     		ldr	r3, [r3]
 884 0006 254C     		ldr	r4, .L81+4
 885 0008 A4FB0343 		umull	r4, r3, r4, r3
 886 000c 5C0A     		lsrs	r4, r3, #9
 887 000e 41F28833 		movw	r3, #5000
 888 0012 03FB04F3 		mul	r3, r3, r4
 889              	.LVL87:
ARM GAS  /tmp/ccBn9PL3.s 			page 44


 890              	.L72:
1390:Drivers/STM32F1xx_HAL_Driver/Src/stm32f1xx_ll_sdmmc.c ****     {
 891              		.loc 1 1390 0
 892 0016 5C1E     		subs	r4, r3, #1
 893              	.LVL88:
 894 0018 93B3     		cbz	r3, .L76
1395:Drivers/STM32F1xx_HAL_Driver/Src/stm32f1xx_ll_sdmmc.c ****   
 895              		.loc 1 1395 0
 896 001a 456B     		ldr	r5, [r0, #52]
1390:Drivers/STM32F1xx_HAL_Driver/Src/stm32f1xx_ll_sdmmc.c ****     {
 897              		.loc 1 1390 0
 898 001c 2346     		mov	r3, r4
1395:Drivers/STM32F1xx_HAL_Driver/Src/stm32f1xx_ll_sdmmc.c ****   
 899              		.loc 1 1395 0
 900 001e 15F0450F 		tst	r5, #69
 901 0022 F8D0     		beq	.L72
1397:Drivers/STM32F1xx_HAL_Driver/Src/stm32f1xx_ll_sdmmc.c ****   {
 902              		.loc 1 1397 0
 903 0024 436B     		ldr	r3, [r0, #52]
 904 0026 13F0040F 		tst	r3, #4
 905 002a 03D0     		beq	.L73
1399:Drivers/STM32F1xx_HAL_Driver/Src/stm32f1xx_ll_sdmmc.c ****     
 906              		.loc 1 1399 0
 907 002c 0423     		movs	r3, #4
 908 002e 8363     		str	r3, [r0, #56]
1401:Drivers/STM32F1xx_HAL_Driver/Src/stm32f1xx_ll_sdmmc.c ****   }
 909              		.loc 1 1401 0
 910 0030 1846     		mov	r0, r3
 911              	.LVL89:
 912 0032 70BD     		pop	{r4, r5, r6, pc}
 913              	.LVL90:
 914              	.L73:
1403:Drivers/STM32F1xx_HAL_Driver/Src/stm32f1xx_ll_sdmmc.c ****   {
 915              		.loc 1 1403 0
 916 0034 436B     		ldr	r3, [r0, #52]
 917 0036 13F0010F 		tst	r3, #1
 918 003a 03D0     		beq	.L74
1405:Drivers/STM32F1xx_HAL_Driver/Src/stm32f1xx_ll_sdmmc.c ****     
 919              		.loc 1 1405 0
 920 003c 0123     		movs	r3, #1
 921 003e 8363     		str	r3, [r0, #56]
1407:Drivers/STM32F1xx_HAL_Driver/Src/stm32f1xx_ll_sdmmc.c ****   }
 922              		.loc 1 1407 0
 923 0040 1846     		mov	r0, r3
 924              	.LVL91:
 925 0042 70BD     		pop	{r4, r5, r6, pc}
 926              	.LVL92:
 927              	.L74:
 928 0044 1646     		mov	r6, r2
 929 0046 0D46     		mov	r5, r1
 930 0048 0446     		mov	r4, r0
 931              	.LVL93:
1411:Drivers/STM32F1xx_HAL_Driver/Src/stm32f1xx_ll_sdmmc.c ****   {
 932              		.loc 1 1411 0
 933 004a FFF7FEFF 		bl	SDIO_GetCommandResponse
 934              	.LVL94:
 935 004e A842     		cmp	r0, r5
ARM GAS  /tmp/ccBn9PL3.s 			page 45


 936 0050 19D1     		bne	.L77
1417:Drivers/STM32F1xx_HAL_Driver/Src/stm32f1xx_ll_sdmmc.c ****   
 937              		.loc 1 1417 0
 938 0052 40F2FF53 		movw	r3, #1535
 939 0056 A363     		str	r3, [r4, #56]
1420:Drivers/STM32F1xx_HAL_Driver/Src/stm32f1xx_ll_sdmmc.c ****   
 940              		.loc 1 1420 0
 941 0058 2046     		mov	r0, r4
 942 005a 0021     		movs	r1, #0
 943 005c FFF7FEFF 		bl	SDIO_GetResponse
 944              	.LVL95:
 945 0060 0346     		mov	r3, r0
 946              	.LVL96:
1422:Drivers/STM32F1xx_HAL_Driver/Src/stm32f1xx_ll_sdmmc.c ****   {
 947              		.loc 1 1422 0
 948 0062 10F46040 		ands	r0, r0, #57344
 949              	.LVL97:
 950 0066 02D1     		bne	.L75
1424:Drivers/STM32F1xx_HAL_Driver/Src/stm32f1xx_ll_sdmmc.c ****     
 951              		.loc 1 1424 0
 952 0068 1B0C     		lsrs	r3, r3, #16
 953              	.LVL98:
 954 006a 3380     		strh	r3, [r6]	@ movhi
1426:Drivers/STM32F1xx_HAL_Driver/Src/stm32f1xx_ll_sdmmc.c ****   }
 955              		.loc 1 1426 0
 956 006c 70BD     		pop	{r4, r5, r6, pc}
 957              	.LVL99:
 958              	.L75:
1428:Drivers/STM32F1xx_HAL_Driver/Src/stm32f1xx_ll_sdmmc.c ****   {
 959              		.loc 1 1428 0
 960 006e 13F4804F 		tst	r3, #16384
 961 0072 0AD1     		bne	.L78
1432:Drivers/STM32F1xx_HAL_Driver/Src/stm32f1xx_ll_sdmmc.c ****   {
 962              		.loc 1 1432 0
 963 0074 13F4004F 		tst	r3, #32768
 964 0078 0AD0     		beq	.L79
1434:Drivers/STM32F1xx_HAL_Driver/Src/stm32f1xx_ll_sdmmc.c ****   }
 965              		.loc 1 1434 0
 966 007a 4FF48050 		mov	r0, #4096
 967 007e 70BD     		pop	{r4, r5, r6, pc}
 968              	.LVL100:
 969              	.L76:
1392:Drivers/STM32F1xx_HAL_Driver/Src/stm32f1xx_ll_sdmmc.c ****     }
 970              		.loc 1 1392 0
 971 0080 4FF00040 		mov	r0, #-2147483648
 972              	.LVL101:
 973 0084 70BD     		pop	{r4, r5, r6, pc}
 974              	.LVL102:
 975              	.L77:
1413:Drivers/STM32F1xx_HAL_Driver/Src/stm32f1xx_ll_sdmmc.c ****   }
 976              		.loc 1 1413 0
 977 0086 0120     		movs	r0, #1
 978 0088 70BD     		pop	{r4, r5, r6, pc}
 979              	.LVL103:
 980              	.L78:
1430:Drivers/STM32F1xx_HAL_Driver/Src/stm32f1xx_ll_sdmmc.c ****   }
 981              		.loc 1 1430 0
ARM GAS  /tmp/ccBn9PL3.s 			page 46


 982 008a 4FF40050 		mov	r0, #8192
 983 008e 70BD     		pop	{r4, r5, r6, pc}
 984              	.LVL104:
 985              	.L79:
1438:Drivers/STM32F1xx_HAL_Driver/Src/stm32f1xx_ll_sdmmc.c ****   }
 986              		.loc 1 1438 0
 987 0090 4FF48030 		mov	r0, #65536
1440:Drivers/STM32F1xx_HAL_Driver/Src/stm32f1xx_ll_sdmmc.c **** 
 988              		.loc 1 1440 0
 989 0094 70BD     		pop	{r4, r5, r6, pc}
 990              	.LVL105:
 991              	.L82:
 992 0096 00BF     		.align	2
 993              	.L81:
 994 0098 00000000 		.word	SystemCoreClock
 995 009c D34D6210 		.word	274877907
 996              		.cfi_endproc
 997              	.LFE105:
 999              		.section	.text.SDIO_ConfigData,"ax",%progbits
 1000              		.align	2
 1001              		.global	SDIO_ConfigData
 1002              		.thumb
 1003              		.thumb_func
 1005              	SDIO_ConfigData:
 1006              	.LFB72:
 435:Drivers/STM32F1xx_HAL_Driver/Src/stm32f1xx_ll_sdmmc.c ****   uint32_t tmpreg = 0U;
 1007              		.loc 1 435 0
 1008              		.cfi_startproc
 1009              		@ args = 0, pretend = 0, frame = 0
 1010              		@ frame_needed = 0, uses_anonymous_args = 0
 1011              		@ link register save eliminated.
 1012              	.LVL106:
 446:Drivers/STM32F1xx_HAL_Driver/Src/stm32f1xx_ll_sdmmc.c **** 
 1013              		.loc 1 446 0
 1014 0000 0B68     		ldr	r3, [r1]
 1015 0002 4362     		str	r3, [r0, #36]
 449:Drivers/STM32F1xx_HAL_Driver/Src/stm32f1xx_ll_sdmmc.c **** 
 1016              		.loc 1 449 0
 1017 0004 4B68     		ldr	r3, [r1, #4]
 1018 0006 8362     		str	r3, [r0, #40]
 452:Drivers/STM32F1xx_HAL_Driver/Src/stm32f1xx_ll_sdmmc.c ****                        Data->TransferDir   |\
 1019              		.loc 1 452 0
 1020 0008 8A68     		ldr	r2, [r1, #8]
 453:Drivers/STM32F1xx_HAL_Driver/Src/stm32f1xx_ll_sdmmc.c ****                        Data->TransferMode  |\
 1021              		.loc 1 453 0
 1022 000a CB68     		ldr	r3, [r1, #12]
 452:Drivers/STM32F1xx_HAL_Driver/Src/stm32f1xx_ll_sdmmc.c ****                        Data->TransferDir   |\
 1023              		.loc 1 452 0
 1024 000c 1A43     		orrs	r2, r2, r3
 454:Drivers/STM32F1xx_HAL_Driver/Src/stm32f1xx_ll_sdmmc.c ****                        Data->DPSM);
 1025              		.loc 1 454 0
 1026 000e 0B69     		ldr	r3, [r1, #16]
 453:Drivers/STM32F1xx_HAL_Driver/Src/stm32f1xx_ll_sdmmc.c ****                        Data->TransferMode  |\
 1027              		.loc 1 453 0
 1028 0010 1343     		orrs	r3, r3, r2
 455:Drivers/STM32F1xx_HAL_Driver/Src/stm32f1xx_ll_sdmmc.c ****   
 1029              		.loc 1 455 0
ARM GAS  /tmp/ccBn9PL3.s 			page 47


 1030 0012 4A69     		ldr	r2, [r1, #20]
 452:Drivers/STM32F1xx_HAL_Driver/Src/stm32f1xx_ll_sdmmc.c ****                        Data->TransferDir   |\
 1031              		.loc 1 452 0
 1032 0014 1A43     		orrs	r2, r2, r3
 1033              	.LVL107:
 458:Drivers/STM32F1xx_HAL_Driver/Src/stm32f1xx_ll_sdmmc.c **** 
 1034              		.loc 1 458 0
 1035 0016 C36A     		ldr	r3, [r0, #44]
 1036 0018 23F0F703 		bic	r3, r3, #247
 1037 001c 1343     		orrs	r3, r3, r2
 1038 001e C362     		str	r3, [r0, #44]
 462:Drivers/STM32F1xx_HAL_Driver/Src/stm32f1xx_ll_sdmmc.c **** 
 1039              		.loc 1 462 0
 1040 0020 0020     		movs	r0, #0
 1041              	.LVL108:
 1042 0022 7047     		bx	lr
 1043              		.cfi_endproc
 1044              	.LFE72:
 1046              		.section	.text.SDIO_GetDataCounter,"ax",%progbits
 1047              		.align	2
 1048              		.global	SDIO_GetDataCounter
 1049              		.thumb
 1050              		.thumb_func
 1052              	SDIO_GetDataCounter:
 1053              	.LFB73:
 470:Drivers/STM32F1xx_HAL_Driver/Src/stm32f1xx_ll_sdmmc.c ****   return (SDIOx->DCOUNT);
 1054              		.loc 1 470 0
 1055              		.cfi_startproc
 1056              		@ args = 0, pretend = 0, frame = 0
 1057              		@ frame_needed = 0, uses_anonymous_args = 0
 1058              		@ link register save eliminated.
 1059              	.LVL109:
 471:Drivers/STM32F1xx_HAL_Driver/Src/stm32f1xx_ll_sdmmc.c **** }
 1060              		.loc 1 471 0
 1061 0000 006B     		ldr	r0, [r0, #48]
 1062              	.LVL110:
 472:Drivers/STM32F1xx_HAL_Driver/Src/stm32f1xx_ll_sdmmc.c **** 
 1063              		.loc 1 472 0
 1064 0002 7047     		bx	lr
 1065              		.cfi_endproc
 1066              	.LFE73:
 1068              		.section	.text.SDIO_GetFIFOCount,"ax",%progbits
 1069              		.align	2
 1070              		.global	SDIO_GetFIFOCount
 1071              		.thumb
 1072              		.thumb_func
 1074              	SDIO_GetFIFOCount:
 1075              	.LFB74:
 480:Drivers/STM32F1xx_HAL_Driver/Src/stm32f1xx_ll_sdmmc.c ****   return (SDIOx->FIFO);
 1076              		.loc 1 480 0
 1077              		.cfi_startproc
 1078              		@ args = 0, pretend = 0, frame = 0
 1079              		@ frame_needed = 0, uses_anonymous_args = 0
 1080              		@ link register save eliminated.
 1081              	.LVL111:
 481:Drivers/STM32F1xx_HAL_Driver/Src/stm32f1xx_ll_sdmmc.c **** }
 1082              		.loc 1 481 0
ARM GAS  /tmp/ccBn9PL3.s 			page 48


 1083 0000 D0F88000 		ldr	r0, [r0, #128]
 1084              	.LVL112:
 482:Drivers/STM32F1xx_HAL_Driver/Src/stm32f1xx_ll_sdmmc.c **** 
 1085              		.loc 1 482 0
 1086 0004 7047     		bx	lr
 1087              		.cfi_endproc
 1088              	.LFE74:
 1090 0006 00BF     		.section	.text.SDIO_SetSDMMCReadWaitMode,"ax",%progbits
 1091              		.align	2
 1092              		.global	SDIO_SetSDMMCReadWaitMode
 1093              		.thumb
 1094              		.thumb_func
 1096              	SDIO_SetSDMMCReadWaitMode:
 1097              	.LFB75:
 494:Drivers/STM32F1xx_HAL_Driver/Src/stm32f1xx_ll_sdmmc.c ****   /* Check the parameters */
 1098              		.loc 1 494 0
 1099              		.cfi_startproc
 1100              		@ args = 0, pretend = 0, frame = 0
 1101              		@ frame_needed = 0, uses_anonymous_args = 0
 1102              		@ link register save eliminated.
 1103              	.LVL113:
 499:Drivers/STM32F1xx_HAL_Driver/Src/stm32f1xx_ll_sdmmc.c ****   
 1104              		.loc 1 499 0
 1105 0000 C36A     		ldr	r3, [r0, #44]
 1106 0002 23F48063 		bic	r3, r3, #1024
 1107 0006 1943     		orrs	r1, r1, r3
 1108              	.LVL114:
 1109 0008 C162     		str	r1, [r0, #44]
 502:Drivers/STM32F1xx_HAL_Driver/Src/stm32f1xx_ll_sdmmc.c **** 
 1110              		.loc 1 502 0
 1111 000a 0020     		movs	r0, #0
 1112              	.LVL115:
 1113 000c 7047     		bx	lr
 1114              		.cfi_endproc
 1115              	.LFE75:
 1117 000e 00BF     		.section	.text.SDMMC_CmdBlockLength,"ax",%progbits
 1118              		.align	2
 1119              		.global	SDMMC_CmdBlockLength
 1120              		.thumb
 1121              		.thumb_func
 1123              	SDMMC_CmdBlockLength:
 1124              	.LFB76:
 529:Drivers/STM32F1xx_HAL_Driver/Src/stm32f1xx_ll_sdmmc.c ****   SDIO_CmdInitTypeDef  sdmmc_cmdinit;
 1125              		.loc 1 529 0
 1126              		.cfi_startproc
 1127              		@ args = 0, pretend = 0, frame = 24
 1128              		@ frame_needed = 0, uses_anonymous_args = 0
 1129              	.LVL116:
 1130 0000 30B5     		push	{r4, r5, lr}
 1131              	.LCFI12:
 1132              		.cfi_def_cfa_offset 12
 1133              		.cfi_offset 4, -12
 1134              		.cfi_offset 5, -8
 1135              		.cfi_offset 14, -4
 1136 0002 87B0     		sub	sp, sp, #28
 1137              	.LCFI13:
 1138              		.cfi_def_cfa_offset 40
ARM GAS  /tmp/ccBn9PL3.s 			page 49


 1139 0004 0546     		mov	r5, r0
 1140              	.LVL117:
 534:Drivers/STM32F1xx_HAL_Driver/Src/stm32f1xx_ll_sdmmc.c ****   sdmmc_cmdinit.CmdIndex         = SDMMC_CMD_SET_BLOCKLEN;
 1141              		.loc 1 534 0
 1142 0006 0191     		str	r1, [sp, #4]
 535:Drivers/STM32F1xx_HAL_Driver/Src/stm32f1xx_ll_sdmmc.c ****   sdmmc_cmdinit.Response         = SDIO_RESPONSE_SHORT;
 1143              		.loc 1 535 0
 1144 0008 1024     		movs	r4, #16
 1145 000a 0294     		str	r4, [sp, #8]
 536:Drivers/STM32F1xx_HAL_Driver/Src/stm32f1xx_ll_sdmmc.c ****   sdmmc_cmdinit.WaitForInterrupt = SDIO_WAIT_NO;
 1146              		.loc 1 536 0
 1147 000c 4023     		movs	r3, #64
 1148 000e 0393     		str	r3, [sp, #12]
 537:Drivers/STM32F1xx_HAL_Driver/Src/stm32f1xx_ll_sdmmc.c ****   sdmmc_cmdinit.CPSM             = SDIO_CPSM_ENABLE;
 1149              		.loc 1 537 0
 1150 0010 0023     		movs	r3, #0
 1151 0012 0493     		str	r3, [sp, #16]
 538:Drivers/STM32F1xx_HAL_Driver/Src/stm32f1xx_ll_sdmmc.c ****   SDIO_SendCommand(SDIOx, &sdmmc_cmdinit);
 1152              		.loc 1 538 0
 1153 0014 4FF48063 		mov	r3, #1024
 1154 0018 0593     		str	r3, [sp, #20]
 539:Drivers/STM32F1xx_HAL_Driver/Src/stm32f1xx_ll_sdmmc.c ****   
 1155              		.loc 1 539 0
 1156 001a 01A9     		add	r1, sp, #4
 1157              	.LVL118:
 1158 001c FFF7FEFF 		bl	SDIO_SendCommand
 1159              	.LVL119:
 542:Drivers/STM32F1xx_HAL_Driver/Src/stm32f1xx_ll_sdmmc.c **** 
 1160              		.loc 1 542 0
 1161 0020 2846     		mov	r0, r5
 1162 0022 2146     		mov	r1, r4
 1163 0024 41F28832 		movw	r2, #5000
 1164 0028 FFF7FEFF 		bl	SDMMC_GetCmdResp1
 1165              	.LVL120:
 545:Drivers/STM32F1xx_HAL_Driver/Src/stm32f1xx_ll_sdmmc.c **** 
 1166              		.loc 1 545 0
 1167 002c 07B0     		add	sp, sp, #28
 1168              	.LCFI14:
 1169              		.cfi_def_cfa_offset 12
 1170              		@ sp needed
 1171 002e 30BD     		pop	{r4, r5, pc}
 1172              		.cfi_endproc
 1173              	.LFE76:
 1175              		.section	.text.SDMMC_CmdReadSingleBlock,"ax",%progbits
 1176              		.align	2
 1177              		.global	SDMMC_CmdReadSingleBlock
 1178              		.thumb
 1179              		.thumb_func
 1181              	SDMMC_CmdReadSingleBlock:
 1182              	.LFB77:
 553:Drivers/STM32F1xx_HAL_Driver/Src/stm32f1xx_ll_sdmmc.c ****   SDIO_CmdInitTypeDef  sdmmc_cmdinit;
 1183              		.loc 1 553 0
 1184              		.cfi_startproc
 1185              		@ args = 0, pretend = 0, frame = 24
 1186              		@ frame_needed = 0, uses_anonymous_args = 0
 1187              	.LVL121:
 1188 0000 30B5     		push	{r4, r5, lr}
ARM GAS  /tmp/ccBn9PL3.s 			page 50


 1189              	.LCFI15:
 1190              		.cfi_def_cfa_offset 12
 1191              		.cfi_offset 4, -12
 1192              		.cfi_offset 5, -8
 1193              		.cfi_offset 14, -4
 1194 0002 87B0     		sub	sp, sp, #28
 1195              	.LCFI16:
 1196              		.cfi_def_cfa_offset 40
 1197 0004 0546     		mov	r5, r0
 1198              	.LVL122:
 558:Drivers/STM32F1xx_HAL_Driver/Src/stm32f1xx_ll_sdmmc.c ****   sdmmc_cmdinit.CmdIndex         = SDMMC_CMD_READ_SINGLE_BLOCK;
 1199              		.loc 1 558 0
 1200 0006 0191     		str	r1, [sp, #4]
 559:Drivers/STM32F1xx_HAL_Driver/Src/stm32f1xx_ll_sdmmc.c ****   sdmmc_cmdinit.Response         = SDIO_RESPONSE_SHORT;
 1201              		.loc 1 559 0
 1202 0008 1124     		movs	r4, #17
 1203 000a 0294     		str	r4, [sp, #8]
 560:Drivers/STM32F1xx_HAL_Driver/Src/stm32f1xx_ll_sdmmc.c ****   sdmmc_cmdinit.WaitForInterrupt = SDIO_WAIT_NO;
 1204              		.loc 1 560 0
 1205 000c 4023     		movs	r3, #64
 1206 000e 0393     		str	r3, [sp, #12]
 561:Drivers/STM32F1xx_HAL_Driver/Src/stm32f1xx_ll_sdmmc.c ****   sdmmc_cmdinit.CPSM             = SDIO_CPSM_ENABLE;
 1207              		.loc 1 561 0
 1208 0010 0023     		movs	r3, #0
 1209 0012 0493     		str	r3, [sp, #16]
 562:Drivers/STM32F1xx_HAL_Driver/Src/stm32f1xx_ll_sdmmc.c ****   SDIO_SendCommand(SDIOx, &sdmmc_cmdinit);
 1210              		.loc 1 562 0
 1211 0014 4FF48063 		mov	r3, #1024
 1212 0018 0593     		str	r3, [sp, #20]
 563:Drivers/STM32F1xx_HAL_Driver/Src/stm32f1xx_ll_sdmmc.c ****   
 1213              		.loc 1 563 0
 1214 001a 01A9     		add	r1, sp, #4
 1215              	.LVL123:
 1216 001c FFF7FEFF 		bl	SDIO_SendCommand
 1217              	.LVL124:
 566:Drivers/STM32F1xx_HAL_Driver/Src/stm32f1xx_ll_sdmmc.c **** 
 1218              		.loc 1 566 0
 1219 0020 2846     		mov	r0, r5
 1220 0022 2146     		mov	r1, r4
 1221 0024 41F28832 		movw	r2, #5000
 1222 0028 FFF7FEFF 		bl	SDMMC_GetCmdResp1
 1223              	.LVL125:
 569:Drivers/STM32F1xx_HAL_Driver/Src/stm32f1xx_ll_sdmmc.c **** 
 1224              		.loc 1 569 0
 1225 002c 07B0     		add	sp, sp, #28
 1226              	.LCFI17:
 1227              		.cfi_def_cfa_offset 12
 1228              		@ sp needed
 1229 002e 30BD     		pop	{r4, r5, pc}
 1230              		.cfi_endproc
 1231              	.LFE77:
 1233              		.section	.text.SDMMC_CmdReadMultiBlock,"ax",%progbits
 1234              		.align	2
 1235              		.global	SDMMC_CmdReadMultiBlock
 1236              		.thumb
 1237              		.thumb_func
 1239              	SDMMC_CmdReadMultiBlock:
ARM GAS  /tmp/ccBn9PL3.s 			page 51


 1240              	.LFB78:
 577:Drivers/STM32F1xx_HAL_Driver/Src/stm32f1xx_ll_sdmmc.c ****   SDIO_CmdInitTypeDef  sdmmc_cmdinit;
 1241              		.loc 1 577 0
 1242              		.cfi_startproc
 1243              		@ args = 0, pretend = 0, frame = 24
 1244              		@ frame_needed = 0, uses_anonymous_args = 0
 1245              	.LVL126:
 1246 0000 30B5     		push	{r4, r5, lr}
 1247              	.LCFI18:
 1248              		.cfi_def_cfa_offset 12
 1249              		.cfi_offset 4, -12
 1250              		.cfi_offset 5, -8
 1251              		.cfi_offset 14, -4
 1252 0002 87B0     		sub	sp, sp, #28
 1253              	.LCFI19:
 1254              		.cfi_def_cfa_offset 40
 1255 0004 0546     		mov	r5, r0
 1256              	.LVL127:
 582:Drivers/STM32F1xx_HAL_Driver/Src/stm32f1xx_ll_sdmmc.c ****   sdmmc_cmdinit.CmdIndex         = SDMMC_CMD_READ_MULT_BLOCK;
 1257              		.loc 1 582 0
 1258 0006 0191     		str	r1, [sp, #4]
 583:Drivers/STM32F1xx_HAL_Driver/Src/stm32f1xx_ll_sdmmc.c ****   sdmmc_cmdinit.Response         = SDIO_RESPONSE_SHORT;
 1259              		.loc 1 583 0
 1260 0008 1224     		movs	r4, #18
 1261 000a 0294     		str	r4, [sp, #8]
 584:Drivers/STM32F1xx_HAL_Driver/Src/stm32f1xx_ll_sdmmc.c ****   sdmmc_cmdinit.WaitForInterrupt = SDIO_WAIT_NO;
 1262              		.loc 1 584 0
 1263 000c 4023     		movs	r3, #64
 1264 000e 0393     		str	r3, [sp, #12]
 585:Drivers/STM32F1xx_HAL_Driver/Src/stm32f1xx_ll_sdmmc.c ****   sdmmc_cmdinit.CPSM             = SDIO_CPSM_ENABLE;
 1265              		.loc 1 585 0
 1266 0010 0023     		movs	r3, #0
 1267 0012 0493     		str	r3, [sp, #16]
 586:Drivers/STM32F1xx_HAL_Driver/Src/stm32f1xx_ll_sdmmc.c ****   SDIO_SendCommand(SDIOx, &sdmmc_cmdinit);
 1268              		.loc 1 586 0
 1269 0014 4FF48063 		mov	r3, #1024
 1270 0018 0593     		str	r3, [sp, #20]
 587:Drivers/STM32F1xx_HAL_Driver/Src/stm32f1xx_ll_sdmmc.c ****   
 1271              		.loc 1 587 0
 1272 001a 01A9     		add	r1, sp, #4
 1273              	.LVL128:
 1274 001c FFF7FEFF 		bl	SDIO_SendCommand
 1275              	.LVL129:
 590:Drivers/STM32F1xx_HAL_Driver/Src/stm32f1xx_ll_sdmmc.c **** 
 1276              		.loc 1 590 0
 1277 0020 2846     		mov	r0, r5
 1278 0022 2146     		mov	r1, r4
 1279 0024 41F28832 		movw	r2, #5000
 1280 0028 FFF7FEFF 		bl	SDMMC_GetCmdResp1
 1281              	.LVL130:
 593:Drivers/STM32F1xx_HAL_Driver/Src/stm32f1xx_ll_sdmmc.c **** 
 1282              		.loc 1 593 0
 1283 002c 07B0     		add	sp, sp, #28
 1284              	.LCFI20:
 1285              		.cfi_def_cfa_offset 12
 1286              		@ sp needed
 1287 002e 30BD     		pop	{r4, r5, pc}
ARM GAS  /tmp/ccBn9PL3.s 			page 52


 1288              		.cfi_endproc
 1289              	.LFE78:
 1291              		.section	.text.SDMMC_CmdWriteSingleBlock,"ax",%progbits
 1292              		.align	2
 1293              		.global	SDMMC_CmdWriteSingleBlock
 1294              		.thumb
 1295              		.thumb_func
 1297              	SDMMC_CmdWriteSingleBlock:
 1298              	.LFB79:
 601:Drivers/STM32F1xx_HAL_Driver/Src/stm32f1xx_ll_sdmmc.c ****   SDIO_CmdInitTypeDef  sdmmc_cmdinit;
 1299              		.loc 1 601 0
 1300              		.cfi_startproc
 1301              		@ args = 0, pretend = 0, frame = 24
 1302              		@ frame_needed = 0, uses_anonymous_args = 0
 1303              	.LVL131:
 1304 0000 30B5     		push	{r4, r5, lr}
 1305              	.LCFI21:
 1306              		.cfi_def_cfa_offset 12
 1307              		.cfi_offset 4, -12
 1308              		.cfi_offset 5, -8
 1309              		.cfi_offset 14, -4
 1310 0002 87B0     		sub	sp, sp, #28
 1311              	.LCFI22:
 1312              		.cfi_def_cfa_offset 40
 1313 0004 0546     		mov	r5, r0
 1314              	.LVL132:
 606:Drivers/STM32F1xx_HAL_Driver/Src/stm32f1xx_ll_sdmmc.c ****   sdmmc_cmdinit.CmdIndex         = SDMMC_CMD_WRITE_SINGLE_BLOCK;
 1315              		.loc 1 606 0
 1316 0006 0191     		str	r1, [sp, #4]
 607:Drivers/STM32F1xx_HAL_Driver/Src/stm32f1xx_ll_sdmmc.c ****   sdmmc_cmdinit.Response         = SDIO_RESPONSE_SHORT;
 1317              		.loc 1 607 0
 1318 0008 1824     		movs	r4, #24
 1319 000a 0294     		str	r4, [sp, #8]
 608:Drivers/STM32F1xx_HAL_Driver/Src/stm32f1xx_ll_sdmmc.c ****   sdmmc_cmdinit.WaitForInterrupt = SDIO_WAIT_NO;
 1320              		.loc 1 608 0
 1321 000c 4023     		movs	r3, #64
 1322 000e 0393     		str	r3, [sp, #12]
 609:Drivers/STM32F1xx_HAL_Driver/Src/stm32f1xx_ll_sdmmc.c ****   sdmmc_cmdinit.CPSM             = SDIO_CPSM_ENABLE;
 1323              		.loc 1 609 0
 1324 0010 0023     		movs	r3, #0
 1325 0012 0493     		str	r3, [sp, #16]
 610:Drivers/STM32F1xx_HAL_Driver/Src/stm32f1xx_ll_sdmmc.c ****   SDIO_SendCommand(SDIOx, &sdmmc_cmdinit);
 1326              		.loc 1 610 0
 1327 0014 4FF48063 		mov	r3, #1024
 1328 0018 0593     		str	r3, [sp, #20]
 611:Drivers/STM32F1xx_HAL_Driver/Src/stm32f1xx_ll_sdmmc.c ****   
 1329              		.loc 1 611 0
 1330 001a 01A9     		add	r1, sp, #4
 1331              	.LVL133:
 1332 001c FFF7FEFF 		bl	SDIO_SendCommand
 1333              	.LVL134:
 614:Drivers/STM32F1xx_HAL_Driver/Src/stm32f1xx_ll_sdmmc.c **** 
 1334              		.loc 1 614 0
 1335 0020 2846     		mov	r0, r5
 1336 0022 2146     		mov	r1, r4
 1337 0024 41F28832 		movw	r2, #5000
 1338 0028 FFF7FEFF 		bl	SDMMC_GetCmdResp1
ARM GAS  /tmp/ccBn9PL3.s 			page 53


 1339              	.LVL135:
 617:Drivers/STM32F1xx_HAL_Driver/Src/stm32f1xx_ll_sdmmc.c **** 
 1340              		.loc 1 617 0
 1341 002c 07B0     		add	sp, sp, #28
 1342              	.LCFI23:
 1343              		.cfi_def_cfa_offset 12
 1344              		@ sp needed
 1345 002e 30BD     		pop	{r4, r5, pc}
 1346              		.cfi_endproc
 1347              	.LFE79:
 1349              		.section	.text.SDMMC_CmdWriteMultiBlock,"ax",%progbits
 1350              		.align	2
 1351              		.global	SDMMC_CmdWriteMultiBlock
 1352              		.thumb
 1353              		.thumb_func
 1355              	SDMMC_CmdWriteMultiBlock:
 1356              	.LFB80:
 625:Drivers/STM32F1xx_HAL_Driver/Src/stm32f1xx_ll_sdmmc.c ****   SDIO_CmdInitTypeDef  sdmmc_cmdinit;
 1357              		.loc 1 625 0
 1358              		.cfi_startproc
 1359              		@ args = 0, pretend = 0, frame = 24
 1360              		@ frame_needed = 0, uses_anonymous_args = 0
 1361              	.LVL136:
 1362 0000 30B5     		push	{r4, r5, lr}
 1363              	.LCFI24:
 1364              		.cfi_def_cfa_offset 12
 1365              		.cfi_offset 4, -12
 1366              		.cfi_offset 5, -8
 1367              		.cfi_offset 14, -4
 1368 0002 87B0     		sub	sp, sp, #28
 1369              	.LCFI25:
 1370              		.cfi_def_cfa_offset 40
 1371 0004 0546     		mov	r5, r0
 1372              	.LVL137:
 630:Drivers/STM32F1xx_HAL_Driver/Src/stm32f1xx_ll_sdmmc.c ****   sdmmc_cmdinit.CmdIndex         = SDMMC_CMD_WRITE_MULT_BLOCK;
 1373              		.loc 1 630 0
 1374 0006 0191     		str	r1, [sp, #4]
 631:Drivers/STM32F1xx_HAL_Driver/Src/stm32f1xx_ll_sdmmc.c ****   sdmmc_cmdinit.Response         = SDIO_RESPONSE_SHORT;
 1375              		.loc 1 631 0
 1376 0008 1924     		movs	r4, #25
 1377 000a 0294     		str	r4, [sp, #8]
 632:Drivers/STM32F1xx_HAL_Driver/Src/stm32f1xx_ll_sdmmc.c ****   sdmmc_cmdinit.WaitForInterrupt = SDIO_WAIT_NO;
 1378              		.loc 1 632 0
 1379 000c 4023     		movs	r3, #64
 1380 000e 0393     		str	r3, [sp, #12]
 633:Drivers/STM32F1xx_HAL_Driver/Src/stm32f1xx_ll_sdmmc.c ****   sdmmc_cmdinit.CPSM             = SDIO_CPSM_ENABLE;
 1381              		.loc 1 633 0
 1382 0010 0023     		movs	r3, #0
 1383 0012 0493     		str	r3, [sp, #16]
 634:Drivers/STM32F1xx_HAL_Driver/Src/stm32f1xx_ll_sdmmc.c ****   SDIO_SendCommand(SDIOx, &sdmmc_cmdinit);
 1384              		.loc 1 634 0
 1385 0014 4FF48063 		mov	r3, #1024
 1386 0018 0593     		str	r3, [sp, #20]
 635:Drivers/STM32F1xx_HAL_Driver/Src/stm32f1xx_ll_sdmmc.c ****   
 1387              		.loc 1 635 0
 1388 001a 01A9     		add	r1, sp, #4
 1389              	.LVL138:
ARM GAS  /tmp/ccBn9PL3.s 			page 54


 1390 001c FFF7FEFF 		bl	SDIO_SendCommand
 1391              	.LVL139:
 638:Drivers/STM32F1xx_HAL_Driver/Src/stm32f1xx_ll_sdmmc.c **** 
 1392              		.loc 1 638 0
 1393 0020 2846     		mov	r0, r5
 1394 0022 2146     		mov	r1, r4
 1395 0024 41F28832 		movw	r2, #5000
 1396 0028 FFF7FEFF 		bl	SDMMC_GetCmdResp1
 1397              	.LVL140:
 641:Drivers/STM32F1xx_HAL_Driver/Src/stm32f1xx_ll_sdmmc.c **** 
 1398              		.loc 1 641 0
 1399 002c 07B0     		add	sp, sp, #28
 1400              	.LCFI26:
 1401              		.cfi_def_cfa_offset 12
 1402              		@ sp needed
 1403 002e 30BD     		pop	{r4, r5, pc}
 1404              		.cfi_endproc
 1405              	.LFE80:
 1407              		.section	.text.SDMMC_CmdSDEraseStartAdd,"ax",%progbits
 1408              		.align	2
 1409              		.global	SDMMC_CmdSDEraseStartAdd
 1410              		.thumb
 1411              		.thumb_func
 1413              	SDMMC_CmdSDEraseStartAdd:
 1414              	.LFB81:
 649:Drivers/STM32F1xx_HAL_Driver/Src/stm32f1xx_ll_sdmmc.c ****   SDIO_CmdInitTypeDef  sdmmc_cmdinit;
 1415              		.loc 1 649 0
 1416              		.cfi_startproc
 1417              		@ args = 0, pretend = 0, frame = 24
 1418              		@ frame_needed = 0, uses_anonymous_args = 0
 1419              	.LVL141:
 1420 0000 30B5     		push	{r4, r5, lr}
 1421              	.LCFI27:
 1422              		.cfi_def_cfa_offset 12
 1423              		.cfi_offset 4, -12
 1424              		.cfi_offset 5, -8
 1425              		.cfi_offset 14, -4
 1426 0002 87B0     		sub	sp, sp, #28
 1427              	.LCFI28:
 1428              		.cfi_def_cfa_offset 40
 1429 0004 0546     		mov	r5, r0
 1430              	.LVL142:
 654:Drivers/STM32F1xx_HAL_Driver/Src/stm32f1xx_ll_sdmmc.c ****   sdmmc_cmdinit.CmdIndex         = SDMMC_CMD_SD_ERASE_GRP_START;
 1431              		.loc 1 654 0
 1432 0006 0191     		str	r1, [sp, #4]
 655:Drivers/STM32F1xx_HAL_Driver/Src/stm32f1xx_ll_sdmmc.c ****   sdmmc_cmdinit.Response         = SDIO_RESPONSE_SHORT;
 1433              		.loc 1 655 0
 1434 0008 2024     		movs	r4, #32
 1435 000a 0294     		str	r4, [sp, #8]
 656:Drivers/STM32F1xx_HAL_Driver/Src/stm32f1xx_ll_sdmmc.c ****   sdmmc_cmdinit.WaitForInterrupt = SDIO_WAIT_NO;
 1436              		.loc 1 656 0
 1437 000c 4023     		movs	r3, #64
 1438 000e 0393     		str	r3, [sp, #12]
 657:Drivers/STM32F1xx_HAL_Driver/Src/stm32f1xx_ll_sdmmc.c ****   sdmmc_cmdinit.CPSM             = SDIO_CPSM_ENABLE;
 1439              		.loc 1 657 0
 1440 0010 0023     		movs	r3, #0
 1441 0012 0493     		str	r3, [sp, #16]
ARM GAS  /tmp/ccBn9PL3.s 			page 55


 658:Drivers/STM32F1xx_HAL_Driver/Src/stm32f1xx_ll_sdmmc.c ****   SDIO_SendCommand(SDIOx, &sdmmc_cmdinit);
 1442              		.loc 1 658 0
 1443 0014 4FF48063 		mov	r3, #1024
 1444 0018 0593     		str	r3, [sp, #20]
 659:Drivers/STM32F1xx_HAL_Driver/Src/stm32f1xx_ll_sdmmc.c ****   
 1445              		.loc 1 659 0
 1446 001a 01A9     		add	r1, sp, #4
 1447              	.LVL143:
 1448 001c FFF7FEFF 		bl	SDIO_SendCommand
 1449              	.LVL144:
 662:Drivers/STM32F1xx_HAL_Driver/Src/stm32f1xx_ll_sdmmc.c **** 
 1450              		.loc 1 662 0
 1451 0020 2846     		mov	r0, r5
 1452 0022 2146     		mov	r1, r4
 1453 0024 41F28832 		movw	r2, #5000
 1454 0028 FFF7FEFF 		bl	SDMMC_GetCmdResp1
 1455              	.LVL145:
 665:Drivers/STM32F1xx_HAL_Driver/Src/stm32f1xx_ll_sdmmc.c **** 
 1456              		.loc 1 665 0
 1457 002c 07B0     		add	sp, sp, #28
 1458              	.LCFI29:
 1459              		.cfi_def_cfa_offset 12
 1460              		@ sp needed
 1461 002e 30BD     		pop	{r4, r5, pc}
 1462              		.cfi_endproc
 1463              	.LFE81:
 1465              		.section	.text.SDMMC_CmdSDEraseEndAdd,"ax",%progbits
 1466              		.align	2
 1467              		.global	SDMMC_CmdSDEraseEndAdd
 1468              		.thumb
 1469              		.thumb_func
 1471              	SDMMC_CmdSDEraseEndAdd:
 1472              	.LFB82:
 673:Drivers/STM32F1xx_HAL_Driver/Src/stm32f1xx_ll_sdmmc.c ****   SDIO_CmdInitTypeDef  sdmmc_cmdinit;
 1473              		.loc 1 673 0
 1474              		.cfi_startproc
 1475              		@ args = 0, pretend = 0, frame = 24
 1476              		@ frame_needed = 0, uses_anonymous_args = 0
 1477              	.LVL146:
 1478 0000 30B5     		push	{r4, r5, lr}
 1479              	.LCFI30:
 1480              		.cfi_def_cfa_offset 12
 1481              		.cfi_offset 4, -12
 1482              		.cfi_offset 5, -8
 1483              		.cfi_offset 14, -4
 1484 0002 87B0     		sub	sp, sp, #28
 1485              	.LCFI31:
 1486              		.cfi_def_cfa_offset 40
 1487 0004 0546     		mov	r5, r0
 1488              	.LVL147:
 678:Drivers/STM32F1xx_HAL_Driver/Src/stm32f1xx_ll_sdmmc.c ****   sdmmc_cmdinit.CmdIndex         = SDMMC_CMD_SD_ERASE_GRP_END;
 1489              		.loc 1 678 0
 1490 0006 0191     		str	r1, [sp, #4]
 679:Drivers/STM32F1xx_HAL_Driver/Src/stm32f1xx_ll_sdmmc.c ****   sdmmc_cmdinit.Response         = SDIO_RESPONSE_SHORT;
 1491              		.loc 1 679 0
 1492 0008 2124     		movs	r4, #33
 1493 000a 0294     		str	r4, [sp, #8]
ARM GAS  /tmp/ccBn9PL3.s 			page 56


 680:Drivers/STM32F1xx_HAL_Driver/Src/stm32f1xx_ll_sdmmc.c ****   sdmmc_cmdinit.WaitForInterrupt = SDIO_WAIT_NO;
 1494              		.loc 1 680 0
 1495 000c 4023     		movs	r3, #64
 1496 000e 0393     		str	r3, [sp, #12]
 681:Drivers/STM32F1xx_HAL_Driver/Src/stm32f1xx_ll_sdmmc.c ****   sdmmc_cmdinit.CPSM             = SDIO_CPSM_ENABLE;
 1497              		.loc 1 681 0
 1498 0010 0023     		movs	r3, #0
 1499 0012 0493     		str	r3, [sp, #16]
 682:Drivers/STM32F1xx_HAL_Driver/Src/stm32f1xx_ll_sdmmc.c ****   SDIO_SendCommand(SDIOx, &sdmmc_cmdinit);
 1500              		.loc 1 682 0
 1501 0014 4FF48063 		mov	r3, #1024
 1502 0018 0593     		str	r3, [sp, #20]
 683:Drivers/STM32F1xx_HAL_Driver/Src/stm32f1xx_ll_sdmmc.c ****   
 1503              		.loc 1 683 0
 1504 001a 01A9     		add	r1, sp, #4
 1505              	.LVL148:
 1506 001c FFF7FEFF 		bl	SDIO_SendCommand
 1507              	.LVL149:
 686:Drivers/STM32F1xx_HAL_Driver/Src/stm32f1xx_ll_sdmmc.c **** 
 1508              		.loc 1 686 0
 1509 0020 2846     		mov	r0, r5
 1510 0022 2146     		mov	r1, r4
 1511 0024 41F28832 		movw	r2, #5000
 1512 0028 FFF7FEFF 		bl	SDMMC_GetCmdResp1
 1513              	.LVL150:
 689:Drivers/STM32F1xx_HAL_Driver/Src/stm32f1xx_ll_sdmmc.c **** 
 1514              		.loc 1 689 0
 1515 002c 07B0     		add	sp, sp, #28
 1516              	.LCFI32:
 1517              		.cfi_def_cfa_offset 12
 1518              		@ sp needed
 1519 002e 30BD     		pop	{r4, r5, pc}
 1520              		.cfi_endproc
 1521              	.LFE82:
 1523              		.section	.text.SDMMC_CmdEraseStartAdd,"ax",%progbits
 1524              		.align	2
 1525              		.global	SDMMC_CmdEraseStartAdd
 1526              		.thumb
 1527              		.thumb_func
 1529              	SDMMC_CmdEraseStartAdd:
 1530              	.LFB83:
 697:Drivers/STM32F1xx_HAL_Driver/Src/stm32f1xx_ll_sdmmc.c ****   SDIO_CmdInitTypeDef  sdmmc_cmdinit;
 1531              		.loc 1 697 0
 1532              		.cfi_startproc
 1533              		@ args = 0, pretend = 0, frame = 24
 1534              		@ frame_needed = 0, uses_anonymous_args = 0
 1535              	.LVL151:
 1536 0000 30B5     		push	{r4, r5, lr}
 1537              	.LCFI33:
 1538              		.cfi_def_cfa_offset 12
 1539              		.cfi_offset 4, -12
 1540              		.cfi_offset 5, -8
 1541              		.cfi_offset 14, -4
 1542 0002 87B0     		sub	sp, sp, #28
 1543              	.LCFI34:
 1544              		.cfi_def_cfa_offset 40
 1545 0004 0546     		mov	r5, r0
ARM GAS  /tmp/ccBn9PL3.s 			page 57


 1546              	.LVL152:
 702:Drivers/STM32F1xx_HAL_Driver/Src/stm32f1xx_ll_sdmmc.c ****   sdmmc_cmdinit.CmdIndex         = SDMMC_CMD_ERASE_GRP_START;
 1547              		.loc 1 702 0
 1548 0006 0191     		str	r1, [sp, #4]
 703:Drivers/STM32F1xx_HAL_Driver/Src/stm32f1xx_ll_sdmmc.c ****   sdmmc_cmdinit.Response         = SDIO_RESPONSE_SHORT;
 1549              		.loc 1 703 0
 1550 0008 2324     		movs	r4, #35
 1551 000a 0294     		str	r4, [sp, #8]
 704:Drivers/STM32F1xx_HAL_Driver/Src/stm32f1xx_ll_sdmmc.c ****   sdmmc_cmdinit.WaitForInterrupt = SDIO_WAIT_NO;
 1552              		.loc 1 704 0
 1553 000c 4023     		movs	r3, #64
 1554 000e 0393     		str	r3, [sp, #12]
 705:Drivers/STM32F1xx_HAL_Driver/Src/stm32f1xx_ll_sdmmc.c ****   sdmmc_cmdinit.CPSM             = SDIO_CPSM_ENABLE;
 1555              		.loc 1 705 0
 1556 0010 0023     		movs	r3, #0
 1557 0012 0493     		str	r3, [sp, #16]
 706:Drivers/STM32F1xx_HAL_Driver/Src/stm32f1xx_ll_sdmmc.c ****   SDIO_SendCommand(SDIOx, &sdmmc_cmdinit);
 1558              		.loc 1 706 0
 1559 0014 4FF48063 		mov	r3, #1024
 1560 0018 0593     		str	r3, [sp, #20]
 707:Drivers/STM32F1xx_HAL_Driver/Src/stm32f1xx_ll_sdmmc.c ****   
 1561              		.loc 1 707 0
 1562 001a 01A9     		add	r1, sp, #4
 1563              	.LVL153:
 1564 001c FFF7FEFF 		bl	SDIO_SendCommand
 1565              	.LVL154:
 710:Drivers/STM32F1xx_HAL_Driver/Src/stm32f1xx_ll_sdmmc.c **** 
 1566              		.loc 1 710 0
 1567 0020 2846     		mov	r0, r5
 1568 0022 2146     		mov	r1, r4
 1569 0024 41F28832 		movw	r2, #5000
 1570 0028 FFF7FEFF 		bl	SDMMC_GetCmdResp1
 1571              	.LVL155:
 713:Drivers/STM32F1xx_HAL_Driver/Src/stm32f1xx_ll_sdmmc.c **** 
 1572              		.loc 1 713 0
 1573 002c 07B0     		add	sp, sp, #28
 1574              	.LCFI35:
 1575              		.cfi_def_cfa_offset 12
 1576              		@ sp needed
 1577 002e 30BD     		pop	{r4, r5, pc}
 1578              		.cfi_endproc
 1579              	.LFE83:
 1581              		.section	.text.SDMMC_CmdEraseEndAdd,"ax",%progbits
 1582              		.align	2
 1583              		.global	SDMMC_CmdEraseEndAdd
 1584              		.thumb
 1585              		.thumb_func
 1587              	SDMMC_CmdEraseEndAdd:
 1588              	.LFB84:
 721:Drivers/STM32F1xx_HAL_Driver/Src/stm32f1xx_ll_sdmmc.c ****   SDIO_CmdInitTypeDef  sdmmc_cmdinit;
 1589              		.loc 1 721 0
 1590              		.cfi_startproc
 1591              		@ args = 0, pretend = 0, frame = 24
 1592              		@ frame_needed = 0, uses_anonymous_args = 0
 1593              	.LVL156:
 1594 0000 30B5     		push	{r4, r5, lr}
 1595              	.LCFI36:
ARM GAS  /tmp/ccBn9PL3.s 			page 58


 1596              		.cfi_def_cfa_offset 12
 1597              		.cfi_offset 4, -12
 1598              		.cfi_offset 5, -8
 1599              		.cfi_offset 14, -4
 1600 0002 87B0     		sub	sp, sp, #28
 1601              	.LCFI37:
 1602              		.cfi_def_cfa_offset 40
 1603 0004 0546     		mov	r5, r0
 1604              	.LVL157:
 726:Drivers/STM32F1xx_HAL_Driver/Src/stm32f1xx_ll_sdmmc.c ****   sdmmc_cmdinit.CmdIndex         = SDMMC_CMD_ERASE_GRP_END;
 1605              		.loc 1 726 0
 1606 0006 0191     		str	r1, [sp, #4]
 727:Drivers/STM32F1xx_HAL_Driver/Src/stm32f1xx_ll_sdmmc.c ****   sdmmc_cmdinit.Response         = SDIO_RESPONSE_SHORT;
 1607              		.loc 1 727 0
 1608 0008 2424     		movs	r4, #36
 1609 000a 0294     		str	r4, [sp, #8]
 728:Drivers/STM32F1xx_HAL_Driver/Src/stm32f1xx_ll_sdmmc.c ****   sdmmc_cmdinit.WaitForInterrupt = SDIO_WAIT_NO;
 1610              		.loc 1 728 0
 1611 000c 4023     		movs	r3, #64
 1612 000e 0393     		str	r3, [sp, #12]
 729:Drivers/STM32F1xx_HAL_Driver/Src/stm32f1xx_ll_sdmmc.c ****   sdmmc_cmdinit.CPSM             = SDIO_CPSM_ENABLE;
 1613              		.loc 1 729 0
 1614 0010 0023     		movs	r3, #0
 1615 0012 0493     		str	r3, [sp, #16]
 730:Drivers/STM32F1xx_HAL_Driver/Src/stm32f1xx_ll_sdmmc.c ****   SDIO_SendCommand(SDIOx, &sdmmc_cmdinit);
 1616              		.loc 1 730 0
 1617 0014 4FF48063 		mov	r3, #1024
 1618 0018 0593     		str	r3, [sp, #20]
 731:Drivers/STM32F1xx_HAL_Driver/Src/stm32f1xx_ll_sdmmc.c ****   
 1619              		.loc 1 731 0
 1620 001a 01A9     		add	r1, sp, #4
 1621              	.LVL158:
 1622 001c FFF7FEFF 		bl	SDIO_SendCommand
 1623              	.LVL159:
 734:Drivers/STM32F1xx_HAL_Driver/Src/stm32f1xx_ll_sdmmc.c **** 
 1624              		.loc 1 734 0
 1625 0020 2846     		mov	r0, r5
 1626 0022 2146     		mov	r1, r4
 1627 0024 41F28832 		movw	r2, #5000
 1628 0028 FFF7FEFF 		bl	SDMMC_GetCmdResp1
 1629              	.LVL160:
 737:Drivers/STM32F1xx_HAL_Driver/Src/stm32f1xx_ll_sdmmc.c **** 
 1630              		.loc 1 737 0
 1631 002c 07B0     		add	sp, sp, #28
 1632              	.LCFI38:
 1633              		.cfi_def_cfa_offset 12
 1634              		@ sp needed
 1635 002e 30BD     		pop	{r4, r5, pc}
 1636              		.cfi_endproc
 1637              	.LFE84:
 1639              		.section	.text.SDMMC_CmdErase,"ax",%progbits
 1640              		.align	2
 1641              		.global	SDMMC_CmdErase
 1642              		.thumb
 1643              		.thumb_func
 1645              	SDMMC_CmdErase:
 1646              	.LFB85:
ARM GAS  /tmp/ccBn9PL3.s 			page 59


 745:Drivers/STM32F1xx_HAL_Driver/Src/stm32f1xx_ll_sdmmc.c ****   SDIO_CmdInitTypeDef  sdmmc_cmdinit;
 1647              		.loc 1 745 0
 1648              		.cfi_startproc
 1649              		@ args = 0, pretend = 0, frame = 24
 1650              		@ frame_needed = 0, uses_anonymous_args = 0
 1651              	.LVL161:
 1652 0000 30B5     		push	{r4, r5, lr}
 1653              	.LCFI39:
 1654              		.cfi_def_cfa_offset 12
 1655              		.cfi_offset 4, -12
 1656              		.cfi_offset 5, -8
 1657              		.cfi_offset 14, -4
 1658 0002 87B0     		sub	sp, sp, #28
 1659              	.LCFI40:
 1660              		.cfi_def_cfa_offset 40
 1661 0004 0546     		mov	r5, r0
 1662              	.LVL162:
 750:Drivers/STM32F1xx_HAL_Driver/Src/stm32f1xx_ll_sdmmc.c ****   sdmmc_cmdinit.CmdIndex         = SDMMC_CMD_ERASE;
 1663              		.loc 1 750 0
 1664 0006 0023     		movs	r3, #0
 1665 0008 0193     		str	r3, [sp, #4]
 751:Drivers/STM32F1xx_HAL_Driver/Src/stm32f1xx_ll_sdmmc.c ****   sdmmc_cmdinit.Response         = SDIO_RESPONSE_SHORT;
 1666              		.loc 1 751 0
 1667 000a 2624     		movs	r4, #38
 1668 000c 0294     		str	r4, [sp, #8]
 752:Drivers/STM32F1xx_HAL_Driver/Src/stm32f1xx_ll_sdmmc.c ****   sdmmc_cmdinit.WaitForInterrupt = SDIO_WAIT_NO;
 1669              		.loc 1 752 0
 1670 000e 4022     		movs	r2, #64
 1671 0010 0392     		str	r2, [sp, #12]
 753:Drivers/STM32F1xx_HAL_Driver/Src/stm32f1xx_ll_sdmmc.c ****   sdmmc_cmdinit.CPSM             = SDIO_CPSM_ENABLE;
 1672              		.loc 1 753 0
 1673 0012 0493     		str	r3, [sp, #16]
 754:Drivers/STM32F1xx_HAL_Driver/Src/stm32f1xx_ll_sdmmc.c ****   SDIO_SendCommand(SDIOx, &sdmmc_cmdinit);
 1674              		.loc 1 754 0
 1675 0014 4FF48063 		mov	r3, #1024
 1676 0018 0593     		str	r3, [sp, #20]
 755:Drivers/STM32F1xx_HAL_Driver/Src/stm32f1xx_ll_sdmmc.c ****   
 1677              		.loc 1 755 0
 1678 001a 01A9     		add	r1, sp, #4
 1679 001c FFF7FEFF 		bl	SDIO_SendCommand
 1680              	.LVL163:
 758:Drivers/STM32F1xx_HAL_Driver/Src/stm32f1xx_ll_sdmmc.c **** 
 1681              		.loc 1 758 0
 1682 0020 2846     		mov	r0, r5
 1683 0022 2146     		mov	r1, r4
 1684 0024 4FF21862 		movw	r2, #63000
 1685 0028 FFF7FEFF 		bl	SDMMC_GetCmdResp1
 1686              	.LVL164:
 761:Drivers/STM32F1xx_HAL_Driver/Src/stm32f1xx_ll_sdmmc.c **** 
 1687              		.loc 1 761 0
 1688 002c 07B0     		add	sp, sp, #28
 1689              	.LCFI41:
 1690              		.cfi_def_cfa_offset 12
 1691              		@ sp needed
 1692 002e 30BD     		pop	{r4, r5, pc}
 1693              		.cfi_endproc
 1694              	.LFE85:
ARM GAS  /tmp/ccBn9PL3.s 			page 60


 1696              		.section	.text.SDMMC_CmdStopTransfer,"ax",%progbits
 1697              		.align	2
 1698              		.global	SDMMC_CmdStopTransfer
 1699              		.thumb
 1700              		.thumb_func
 1702              	SDMMC_CmdStopTransfer:
 1703              	.LFB86:
 769:Drivers/STM32F1xx_HAL_Driver/Src/stm32f1xx_ll_sdmmc.c ****   SDIO_CmdInitTypeDef  sdmmc_cmdinit;
 1704              		.loc 1 769 0
 1705              		.cfi_startproc
 1706              		@ args = 0, pretend = 0, frame = 24
 1707              		@ frame_needed = 0, uses_anonymous_args = 0
 1708              	.LVL165:
 1709 0000 30B5     		push	{r4, r5, lr}
 1710              	.LCFI42:
 1711              		.cfi_def_cfa_offset 12
 1712              		.cfi_offset 4, -12
 1713              		.cfi_offset 5, -8
 1714              		.cfi_offset 14, -4
 1715 0002 87B0     		sub	sp, sp, #28
 1716              	.LCFI43:
 1717              		.cfi_def_cfa_offset 40
 1718 0004 0546     		mov	r5, r0
 1719              	.LVL166:
 774:Drivers/STM32F1xx_HAL_Driver/Src/stm32f1xx_ll_sdmmc.c ****   sdmmc_cmdinit.CmdIndex         = SDMMC_CMD_STOP_TRANSMISSION;
 1720              		.loc 1 774 0
 1721 0006 0023     		movs	r3, #0
 1722 0008 0193     		str	r3, [sp, #4]
 775:Drivers/STM32F1xx_HAL_Driver/Src/stm32f1xx_ll_sdmmc.c ****   sdmmc_cmdinit.Response         = SDIO_RESPONSE_SHORT;
 1723              		.loc 1 775 0
 1724 000a 0C24     		movs	r4, #12
 1725 000c 0294     		str	r4, [sp, #8]
 776:Drivers/STM32F1xx_HAL_Driver/Src/stm32f1xx_ll_sdmmc.c ****   sdmmc_cmdinit.WaitForInterrupt = SDIO_WAIT_NO;
 1726              		.loc 1 776 0
 1727 000e 4022     		movs	r2, #64
 1728 0010 0392     		str	r2, [sp, #12]
 777:Drivers/STM32F1xx_HAL_Driver/Src/stm32f1xx_ll_sdmmc.c ****   sdmmc_cmdinit.CPSM             = SDIO_CPSM_ENABLE;
 1729              		.loc 1 777 0
 1730 0012 0493     		str	r3, [sp, #16]
 778:Drivers/STM32F1xx_HAL_Driver/Src/stm32f1xx_ll_sdmmc.c ****   SDIO_SendCommand(SDIOx, &sdmmc_cmdinit);
 1731              		.loc 1 778 0
 1732 0014 4FF48063 		mov	r3, #1024
 1733 0018 0593     		str	r3, [sp, #20]
 779:Drivers/STM32F1xx_HAL_Driver/Src/stm32f1xx_ll_sdmmc.c ****   
 1734              		.loc 1 779 0
 1735 001a 01A9     		add	r1, sp, #4
 1736 001c FFF7FEFF 		bl	SDIO_SendCommand
 1737              	.LVL167:
 782:Drivers/STM32F1xx_HAL_Driver/Src/stm32f1xx_ll_sdmmc.c **** 
 1738              		.loc 1 782 0
 1739 0020 2846     		mov	r0, r5
 1740 0022 2146     		mov	r1, r4
 1741 0024 024A     		ldr	r2, .L109
 1742 0026 FFF7FEFF 		bl	SDMMC_GetCmdResp1
 1743              	.LVL168:
 785:Drivers/STM32F1xx_HAL_Driver/Src/stm32f1xx_ll_sdmmc.c **** 
 1744              		.loc 1 785 0
ARM GAS  /tmp/ccBn9PL3.s 			page 61


 1745 002a 07B0     		add	sp, sp, #28
 1746              	.LCFI44:
 1747              		.cfi_def_cfa_offset 12
 1748              		@ sp needed
 1749 002c 30BD     		pop	{r4, r5, pc}
 1750              	.LVL169:
 1751              	.L110:
 1752 002e 00BF     		.align	2
 1753              	.L109:
 1754 0030 00E1F505 		.word	100000000
 1755              		.cfi_endproc
 1756              	.LFE86:
 1758              		.section	.text.SDMMC_CmdSelDesel,"ax",%progbits
 1759              		.align	2
 1760              		.global	SDMMC_CmdSelDesel
 1761              		.thumb
 1762              		.thumb_func
 1764              	SDMMC_CmdSelDesel:
 1765              	.LFB87:
 794:Drivers/STM32F1xx_HAL_Driver/Src/stm32f1xx_ll_sdmmc.c ****   SDIO_CmdInitTypeDef  sdmmc_cmdinit;
 1766              		.loc 1 794 0
 1767              		.cfi_startproc
 1768              		@ args = 0, pretend = 0, frame = 24
 1769              		@ frame_needed = 0, uses_anonymous_args = 0
 1770              	.LVL170:
 1771 0000 30B5     		push	{r4, r5, lr}
 1772              	.LCFI45:
 1773              		.cfi_def_cfa_offset 12
 1774              		.cfi_offset 4, -12
 1775              		.cfi_offset 5, -8
 1776              		.cfi_offset 14, -4
 1777 0002 87B0     		sub	sp, sp, #28
 1778              	.LCFI46:
 1779              		.cfi_def_cfa_offset 40
 1780 0004 0546     		mov	r5, r0
 1781              	.LVL171:
 799:Drivers/STM32F1xx_HAL_Driver/Src/stm32f1xx_ll_sdmmc.c ****   sdmmc_cmdinit.CmdIndex         = SDMMC_CMD_SEL_DESEL_CARD;
 1782              		.loc 1 799 0
 1783 0006 0192     		str	r2, [sp, #4]
 800:Drivers/STM32F1xx_HAL_Driver/Src/stm32f1xx_ll_sdmmc.c ****   sdmmc_cmdinit.Response         = SDIO_RESPONSE_SHORT;
 1784              		.loc 1 800 0
 1785 0008 0724     		movs	r4, #7
 1786 000a 0294     		str	r4, [sp, #8]
 801:Drivers/STM32F1xx_HAL_Driver/Src/stm32f1xx_ll_sdmmc.c ****   sdmmc_cmdinit.WaitForInterrupt = SDIO_WAIT_NO;
 1787              		.loc 1 801 0
 1788 000c 4023     		movs	r3, #64
 1789 000e 0393     		str	r3, [sp, #12]
 802:Drivers/STM32F1xx_HAL_Driver/Src/stm32f1xx_ll_sdmmc.c ****   sdmmc_cmdinit.CPSM             = SDIO_CPSM_ENABLE;
 1790              		.loc 1 802 0
 1791 0010 0023     		movs	r3, #0
 1792 0012 0493     		str	r3, [sp, #16]
 803:Drivers/STM32F1xx_HAL_Driver/Src/stm32f1xx_ll_sdmmc.c ****   SDIO_SendCommand(SDIOx, &sdmmc_cmdinit);
 1793              		.loc 1 803 0
 1794 0014 4FF48063 		mov	r3, #1024
 1795 0018 0593     		str	r3, [sp, #20]
 804:Drivers/STM32F1xx_HAL_Driver/Src/stm32f1xx_ll_sdmmc.c ****   
 1796              		.loc 1 804 0
ARM GAS  /tmp/ccBn9PL3.s 			page 62


 1797 001a 01A9     		add	r1, sp, #4
 1798 001c FFF7FEFF 		bl	SDIO_SendCommand
 1799              	.LVL172:
 807:Drivers/STM32F1xx_HAL_Driver/Src/stm32f1xx_ll_sdmmc.c **** 
 1800              		.loc 1 807 0
 1801 0020 2846     		mov	r0, r5
 1802 0022 2146     		mov	r1, r4
 1803 0024 41F28832 		movw	r2, #5000
 1804 0028 FFF7FEFF 		bl	SDMMC_GetCmdResp1
 1805              	.LVL173:
 810:Drivers/STM32F1xx_HAL_Driver/Src/stm32f1xx_ll_sdmmc.c **** 
 1806              		.loc 1 810 0
 1807 002c 07B0     		add	sp, sp, #28
 1808              	.LCFI47:
 1809              		.cfi_def_cfa_offset 12
 1810              		@ sp needed
 1811 002e 30BD     		pop	{r4, r5, pc}
 1812              		.cfi_endproc
 1813              	.LFE87:
 1815              		.section	.text.SDMMC_CmdGoIdleState,"ax",%progbits
 1816              		.align	2
 1817              		.global	SDMMC_CmdGoIdleState
 1818              		.thumb
 1819              		.thumb_func
 1821              	SDMMC_CmdGoIdleState:
 1822              	.LFB88:
 818:Drivers/STM32F1xx_HAL_Driver/Src/stm32f1xx_ll_sdmmc.c ****   SDIO_CmdInitTypeDef  sdmmc_cmdinit;
 1823              		.loc 1 818 0
 1824              		.cfi_startproc
 1825              		@ args = 0, pretend = 0, frame = 24
 1826              		@ frame_needed = 0, uses_anonymous_args = 0
 1827              	.LVL174:
 1828 0000 10B5     		push	{r4, lr}
 1829              	.LCFI48:
 1830              		.cfi_def_cfa_offset 8
 1831              		.cfi_offset 4, -8
 1832              		.cfi_offset 14, -4
 1833 0002 86B0     		sub	sp, sp, #24
 1834              	.LCFI49:
 1835              		.cfi_def_cfa_offset 32
 1836 0004 0446     		mov	r4, r0
 1837              	.LVL175:
 822:Drivers/STM32F1xx_HAL_Driver/Src/stm32f1xx_ll_sdmmc.c ****   sdmmc_cmdinit.CmdIndex         = SDMMC_CMD_GO_IDLE_STATE;
 1838              		.loc 1 822 0
 1839 0006 0023     		movs	r3, #0
 1840 0008 0193     		str	r3, [sp, #4]
 823:Drivers/STM32F1xx_HAL_Driver/Src/stm32f1xx_ll_sdmmc.c ****   sdmmc_cmdinit.Response         = SDIO_RESPONSE_NO;
 1841              		.loc 1 823 0
 1842 000a 0293     		str	r3, [sp, #8]
 824:Drivers/STM32F1xx_HAL_Driver/Src/stm32f1xx_ll_sdmmc.c ****   sdmmc_cmdinit.WaitForInterrupt = SDIO_WAIT_NO;
 1843              		.loc 1 824 0
 1844 000c 0393     		str	r3, [sp, #12]
 825:Drivers/STM32F1xx_HAL_Driver/Src/stm32f1xx_ll_sdmmc.c ****   sdmmc_cmdinit.CPSM             = SDIO_CPSM_ENABLE;
 1845              		.loc 1 825 0
 1846 000e 0493     		str	r3, [sp, #16]
 826:Drivers/STM32F1xx_HAL_Driver/Src/stm32f1xx_ll_sdmmc.c ****   SDIO_SendCommand(SDIOx, &sdmmc_cmdinit);
 1847              		.loc 1 826 0
ARM GAS  /tmp/ccBn9PL3.s 			page 63


 1848 0010 4FF48063 		mov	r3, #1024
 1849 0014 0593     		str	r3, [sp, #20]
 827:Drivers/STM32F1xx_HAL_Driver/Src/stm32f1xx_ll_sdmmc.c ****   
 1850              		.loc 1 827 0
 1851 0016 01A9     		add	r1, sp, #4
 1852 0018 FFF7FEFF 		bl	SDIO_SendCommand
 1853              	.LVL176:
 830:Drivers/STM32F1xx_HAL_Driver/Src/stm32f1xx_ll_sdmmc.c **** 
 1854              		.loc 1 830 0
 1855 001c 2046     		mov	r0, r4
 1856 001e FFF7FEFF 		bl	SDMMC_GetCmdError
 1857              	.LVL177:
 833:Drivers/STM32F1xx_HAL_Driver/Src/stm32f1xx_ll_sdmmc.c **** 
 1858              		.loc 1 833 0
 1859 0022 06B0     		add	sp, sp, #24
 1860              	.LCFI50:
 1861              		.cfi_def_cfa_offset 8
 1862              		@ sp needed
 1863 0024 10BD     		pop	{r4, pc}
 1864              		.cfi_endproc
 1865              	.LFE88:
 1867 0026 00BF     		.section	.text.SDMMC_CmdOperCond,"ax",%progbits
 1868              		.align	2
 1869              		.global	SDMMC_CmdOperCond
 1870              		.thumb
 1871              		.thumb_func
 1873              	SDMMC_CmdOperCond:
 1874              	.LFB89:
 841:Drivers/STM32F1xx_HAL_Driver/Src/stm32f1xx_ll_sdmmc.c ****   SDIO_CmdInitTypeDef  sdmmc_cmdinit;
 1875              		.loc 1 841 0
 1876              		.cfi_startproc
 1877              		@ args = 0, pretend = 0, frame = 24
 1878              		@ frame_needed = 0, uses_anonymous_args = 0
 1879              	.LVL178:
 1880 0000 10B5     		push	{r4, lr}
 1881              	.LCFI51:
 1882              		.cfi_def_cfa_offset 8
 1883              		.cfi_offset 4, -8
 1884              		.cfi_offset 14, -4
 1885 0002 86B0     		sub	sp, sp, #24
 1886              	.LCFI52:
 1887              		.cfi_def_cfa_offset 32
 1888 0004 0446     		mov	r4, r0
 1889              	.LVL179:
 850:Drivers/STM32F1xx_HAL_Driver/Src/stm32f1xx_ll_sdmmc.c ****   sdmmc_cmdinit.CmdIndex         = SDMMC_CMD_HS_SEND_EXT_CSD;
 1890              		.loc 1 850 0
 1891 0006 4FF4D573 		mov	r3, #426
 1892 000a 0193     		str	r3, [sp, #4]
 851:Drivers/STM32F1xx_HAL_Driver/Src/stm32f1xx_ll_sdmmc.c ****   sdmmc_cmdinit.Response         = SDIO_RESPONSE_SHORT;
 1893              		.loc 1 851 0
 1894 000c 0823     		movs	r3, #8
 1895 000e 0293     		str	r3, [sp, #8]
 852:Drivers/STM32F1xx_HAL_Driver/Src/stm32f1xx_ll_sdmmc.c ****   sdmmc_cmdinit.WaitForInterrupt = SDIO_WAIT_NO;
 1896              		.loc 1 852 0
 1897 0010 4023     		movs	r3, #64
 1898 0012 0393     		str	r3, [sp, #12]
 853:Drivers/STM32F1xx_HAL_Driver/Src/stm32f1xx_ll_sdmmc.c ****   sdmmc_cmdinit.CPSM             = SDIO_CPSM_ENABLE;
ARM GAS  /tmp/ccBn9PL3.s 			page 64


 1899              		.loc 1 853 0
 1900 0014 0023     		movs	r3, #0
 1901 0016 0493     		str	r3, [sp, #16]
 854:Drivers/STM32F1xx_HAL_Driver/Src/stm32f1xx_ll_sdmmc.c ****   SDIO_SendCommand(SDIOx, &sdmmc_cmdinit);
 1902              		.loc 1 854 0
 1903 0018 4FF48063 		mov	r3, #1024
 1904 001c 0593     		str	r3, [sp, #20]
 855:Drivers/STM32F1xx_HAL_Driver/Src/stm32f1xx_ll_sdmmc.c ****   
 1905              		.loc 1 855 0
 1906 001e 01A9     		add	r1, sp, #4
 1907 0020 FFF7FEFF 		bl	SDIO_SendCommand
 1908              	.LVL180:
 858:Drivers/STM32F1xx_HAL_Driver/Src/stm32f1xx_ll_sdmmc.c **** 
 1909              		.loc 1 858 0
 1910 0024 2046     		mov	r0, r4
 1911 0026 FFF7FEFF 		bl	SDMMC_GetCmdResp7
 1912              	.LVL181:
 861:Drivers/STM32F1xx_HAL_Driver/Src/stm32f1xx_ll_sdmmc.c **** 
 1913              		.loc 1 861 0
 1914 002a 06B0     		add	sp, sp, #24
 1915              	.LCFI53:
 1916              		.cfi_def_cfa_offset 8
 1917              		@ sp needed
 1918 002c 10BD     		pop	{r4, pc}
 1919              		.cfi_endproc
 1920              	.LFE89:
 1922 002e 00BF     		.section	.text.SDMMC_CmdAppCommand,"ax",%progbits
 1923              		.align	2
 1924              		.global	SDMMC_CmdAppCommand
 1925              		.thumb
 1926              		.thumb_func
 1928              	SDMMC_CmdAppCommand:
 1929              	.LFB90:
 871:Drivers/STM32F1xx_HAL_Driver/Src/stm32f1xx_ll_sdmmc.c ****   SDIO_CmdInitTypeDef  sdmmc_cmdinit;
 1930              		.loc 1 871 0
 1931              		.cfi_startproc
 1932              		@ args = 0, pretend = 0, frame = 24
 1933              		@ frame_needed = 0, uses_anonymous_args = 0
 1934              	.LVL182:
 1935 0000 30B5     		push	{r4, r5, lr}
 1936              	.LCFI54:
 1937              		.cfi_def_cfa_offset 12
 1938              		.cfi_offset 4, -12
 1939              		.cfi_offset 5, -8
 1940              		.cfi_offset 14, -4
 1941 0002 87B0     		sub	sp, sp, #28
 1942              	.LCFI55:
 1943              		.cfi_def_cfa_offset 40
 1944 0004 0546     		mov	r5, r0
 1945              	.LVL183:
 875:Drivers/STM32F1xx_HAL_Driver/Src/stm32f1xx_ll_sdmmc.c ****   sdmmc_cmdinit.CmdIndex         = SDMMC_CMD_APP_CMD;
 1946              		.loc 1 875 0
 1947 0006 0191     		str	r1, [sp, #4]
 876:Drivers/STM32F1xx_HAL_Driver/Src/stm32f1xx_ll_sdmmc.c ****   sdmmc_cmdinit.Response         = SDIO_RESPONSE_SHORT;
 1948              		.loc 1 876 0
 1949 0008 3724     		movs	r4, #55
 1950 000a 0294     		str	r4, [sp, #8]
ARM GAS  /tmp/ccBn9PL3.s 			page 65


 877:Drivers/STM32F1xx_HAL_Driver/Src/stm32f1xx_ll_sdmmc.c ****   sdmmc_cmdinit.WaitForInterrupt = SDIO_WAIT_NO;
 1951              		.loc 1 877 0
 1952 000c 4023     		movs	r3, #64
 1953 000e 0393     		str	r3, [sp, #12]
 878:Drivers/STM32F1xx_HAL_Driver/Src/stm32f1xx_ll_sdmmc.c ****   sdmmc_cmdinit.CPSM             = SDIO_CPSM_ENABLE;
 1954              		.loc 1 878 0
 1955 0010 0023     		movs	r3, #0
 1956 0012 0493     		str	r3, [sp, #16]
 879:Drivers/STM32F1xx_HAL_Driver/Src/stm32f1xx_ll_sdmmc.c ****   SDIO_SendCommand(SDIOx, &sdmmc_cmdinit);
 1957              		.loc 1 879 0
 1958 0014 4FF48063 		mov	r3, #1024
 1959 0018 0593     		str	r3, [sp, #20]
 880:Drivers/STM32F1xx_HAL_Driver/Src/stm32f1xx_ll_sdmmc.c ****   
 1960              		.loc 1 880 0
 1961 001a 01A9     		add	r1, sp, #4
 1962              	.LVL184:
 1963 001c FFF7FEFF 		bl	SDIO_SendCommand
 1964              	.LVL185:
 886:Drivers/STM32F1xx_HAL_Driver/Src/stm32f1xx_ll_sdmmc.c **** 
 1965              		.loc 1 886 0
 1966 0020 2846     		mov	r0, r5
 1967 0022 2146     		mov	r1, r4
 1968 0024 41F28832 		movw	r2, #5000
 1969 0028 FFF7FEFF 		bl	SDMMC_GetCmdResp1
 1970              	.LVL186:
 889:Drivers/STM32F1xx_HAL_Driver/Src/stm32f1xx_ll_sdmmc.c **** 
 1971              		.loc 1 889 0
 1972 002c 07B0     		add	sp, sp, #28
 1973              	.LCFI56:
 1974              		.cfi_def_cfa_offset 12
 1975              		@ sp needed
 1976 002e 30BD     		pop	{r4, r5, pc}
 1977              		.cfi_endproc
 1978              	.LFE90:
 1980              		.section	.text.SDMMC_CmdAppOperCommand,"ax",%progbits
 1981              		.align	2
 1982              		.global	SDMMC_CmdAppOperCommand
 1983              		.thumb
 1984              		.thumb_func
 1986              	SDMMC_CmdAppOperCommand:
 1987              	.LFB91:
 898:Drivers/STM32F1xx_HAL_Driver/Src/stm32f1xx_ll_sdmmc.c ****   SDIO_CmdInitTypeDef  sdmmc_cmdinit;
 1988              		.loc 1 898 0
 1989              		.cfi_startproc
 1990              		@ args = 0, pretend = 0, frame = 24
 1991              		@ frame_needed = 0, uses_anonymous_args = 0
 1992              	.LVL187:
 1993 0000 10B5     		push	{r4, lr}
 1994              	.LCFI57:
 1995              		.cfi_def_cfa_offset 8
 1996              		.cfi_offset 4, -8
 1997              		.cfi_offset 14, -4
 1998 0002 86B0     		sub	sp, sp, #24
 1999              	.LCFI58:
 2000              		.cfi_def_cfa_offset 32
 2001 0004 0446     		mov	r4, r0
 2002              	.LVL188:
ARM GAS  /tmp/ccBn9PL3.s 			page 66


 902:Drivers/STM32F1xx_HAL_Driver/Src/stm32f1xx_ll_sdmmc.c ****   sdmmc_cmdinit.CmdIndex         = SDMMC_CMD_SD_APP_OP_COND;
 2003              		.loc 1 902 0
 2004 0006 41F00041 		orr	r1, r1, #-2147483648
 2005              	.LVL189:
 2006 000a 41F48011 		orr	r1, r1, #1048576
 2007 000e 0191     		str	r1, [sp, #4]
 903:Drivers/STM32F1xx_HAL_Driver/Src/stm32f1xx_ll_sdmmc.c ****   sdmmc_cmdinit.Response         = SDIO_RESPONSE_SHORT;
 2008              		.loc 1 903 0
 2009 0010 2923     		movs	r3, #41
 2010 0012 0293     		str	r3, [sp, #8]
 904:Drivers/STM32F1xx_HAL_Driver/Src/stm32f1xx_ll_sdmmc.c ****   sdmmc_cmdinit.WaitForInterrupt = SDIO_WAIT_NO;
 2011              		.loc 1 904 0
 2012 0014 4023     		movs	r3, #64
 2013 0016 0393     		str	r3, [sp, #12]
 905:Drivers/STM32F1xx_HAL_Driver/Src/stm32f1xx_ll_sdmmc.c ****   sdmmc_cmdinit.CPSM             = SDIO_CPSM_ENABLE;
 2014              		.loc 1 905 0
 2015 0018 0023     		movs	r3, #0
 2016 001a 0493     		str	r3, [sp, #16]
 906:Drivers/STM32F1xx_HAL_Driver/Src/stm32f1xx_ll_sdmmc.c ****   SDIO_SendCommand(SDIOx, &sdmmc_cmdinit);
 2017              		.loc 1 906 0
 2018 001c 4FF48063 		mov	r3, #1024
 2019 0020 0593     		str	r3, [sp, #20]
 907:Drivers/STM32F1xx_HAL_Driver/Src/stm32f1xx_ll_sdmmc.c ****   
 2020              		.loc 1 907 0
 2021 0022 01A9     		add	r1, sp, #4
 2022 0024 FFF7FEFF 		bl	SDIO_SendCommand
 2023              	.LVL190:
 910:Drivers/STM32F1xx_HAL_Driver/Src/stm32f1xx_ll_sdmmc.c **** 
 2024              		.loc 1 910 0
 2025 0028 2046     		mov	r0, r4
 2026 002a FFF7FEFF 		bl	SDMMC_GetCmdResp3
 2027              	.LVL191:
 913:Drivers/STM32F1xx_HAL_Driver/Src/stm32f1xx_ll_sdmmc.c **** 
 2028              		.loc 1 913 0
 2029 002e 06B0     		add	sp, sp, #24
 2030              	.LCFI59:
 2031              		.cfi_def_cfa_offset 8
 2032              		@ sp needed
 2033 0030 10BD     		pop	{r4, pc}
 2034              		.cfi_endproc
 2035              	.LFE91:
 2037 0032 00BF     		.section	.text.SDMMC_CmdBusWidth,"ax",%progbits
 2038              		.align	2
 2039              		.global	SDMMC_CmdBusWidth
 2040              		.thumb
 2041              		.thumb_func
 2043              	SDMMC_CmdBusWidth:
 2044              	.LFB92:
 921:Drivers/STM32F1xx_HAL_Driver/Src/stm32f1xx_ll_sdmmc.c ****   SDIO_CmdInitTypeDef  sdmmc_cmdinit;
 2045              		.loc 1 921 0
 2046              		.cfi_startproc
 2047              		@ args = 0, pretend = 0, frame = 24
 2048              		@ frame_needed = 0, uses_anonymous_args = 0
 2049              	.LVL192:
 2050 0000 30B5     		push	{r4, r5, lr}
 2051              	.LCFI60:
 2052              		.cfi_def_cfa_offset 12
ARM GAS  /tmp/ccBn9PL3.s 			page 67


 2053              		.cfi_offset 4, -12
 2054              		.cfi_offset 5, -8
 2055              		.cfi_offset 14, -4
 2056 0002 87B0     		sub	sp, sp, #28
 2057              	.LCFI61:
 2058              		.cfi_def_cfa_offset 40
 2059 0004 0546     		mov	r5, r0
 2060              	.LVL193:
 925:Drivers/STM32F1xx_HAL_Driver/Src/stm32f1xx_ll_sdmmc.c ****   sdmmc_cmdinit.CmdIndex         = SDMMC_CMD_APP_SD_SET_BUSWIDTH;
 2061              		.loc 1 925 0
 2062 0006 0191     		str	r1, [sp, #4]
 926:Drivers/STM32F1xx_HAL_Driver/Src/stm32f1xx_ll_sdmmc.c ****   sdmmc_cmdinit.Response         = SDIO_RESPONSE_SHORT;
 2063              		.loc 1 926 0
 2064 0008 0624     		movs	r4, #6
 2065 000a 0294     		str	r4, [sp, #8]
 927:Drivers/STM32F1xx_HAL_Driver/Src/stm32f1xx_ll_sdmmc.c ****   sdmmc_cmdinit.WaitForInterrupt = SDIO_WAIT_NO;
 2066              		.loc 1 927 0
 2067 000c 4023     		movs	r3, #64
 2068 000e 0393     		str	r3, [sp, #12]
 928:Drivers/STM32F1xx_HAL_Driver/Src/stm32f1xx_ll_sdmmc.c ****   sdmmc_cmdinit.CPSM             = SDIO_CPSM_ENABLE;
 2069              		.loc 1 928 0
 2070 0010 0023     		movs	r3, #0
 2071 0012 0493     		str	r3, [sp, #16]
 929:Drivers/STM32F1xx_HAL_Driver/Src/stm32f1xx_ll_sdmmc.c ****   SDIO_SendCommand(SDIOx, &sdmmc_cmdinit);
 2072              		.loc 1 929 0
 2073 0014 4FF48063 		mov	r3, #1024
 2074 0018 0593     		str	r3, [sp, #20]
 930:Drivers/STM32F1xx_HAL_Driver/Src/stm32f1xx_ll_sdmmc.c ****   
 2075              		.loc 1 930 0
 2076 001a 01A9     		add	r1, sp, #4
 2077              	.LVL194:
 2078 001c FFF7FEFF 		bl	SDIO_SendCommand
 2079              	.LVL195:
 933:Drivers/STM32F1xx_HAL_Driver/Src/stm32f1xx_ll_sdmmc.c **** 
 2080              		.loc 1 933 0
 2081 0020 2846     		mov	r0, r5
 2082 0022 2146     		mov	r1, r4
 2083 0024 41F28832 		movw	r2, #5000
 2084 0028 FFF7FEFF 		bl	SDMMC_GetCmdResp1
 2085              	.LVL196:
 936:Drivers/STM32F1xx_HAL_Driver/Src/stm32f1xx_ll_sdmmc.c **** 
 2086              		.loc 1 936 0
 2087 002c 07B0     		add	sp, sp, #28
 2088              	.LCFI62:
 2089              		.cfi_def_cfa_offset 12
 2090              		@ sp needed
 2091 002e 30BD     		pop	{r4, r5, pc}
 2092              		.cfi_endproc
 2093              	.LFE92:
 2095              		.section	.text.SDMMC_CmdSendSCR,"ax",%progbits
 2096              		.align	2
 2097              		.global	SDMMC_CmdSendSCR
 2098              		.thumb
 2099              		.thumb_func
 2101              	SDMMC_CmdSendSCR:
 2102              	.LFB93:
 944:Drivers/STM32F1xx_HAL_Driver/Src/stm32f1xx_ll_sdmmc.c ****   SDIO_CmdInitTypeDef  sdmmc_cmdinit;
ARM GAS  /tmp/ccBn9PL3.s 			page 68


 2103              		.loc 1 944 0
 2104              		.cfi_startproc
 2105              		@ args = 0, pretend = 0, frame = 24
 2106              		@ frame_needed = 0, uses_anonymous_args = 0
 2107              	.LVL197:
 2108 0000 30B5     		push	{r4, r5, lr}
 2109              	.LCFI63:
 2110              		.cfi_def_cfa_offset 12
 2111              		.cfi_offset 4, -12
 2112              		.cfi_offset 5, -8
 2113              		.cfi_offset 14, -4
 2114 0002 87B0     		sub	sp, sp, #28
 2115              	.LCFI64:
 2116              		.cfi_def_cfa_offset 40
 2117 0004 0546     		mov	r5, r0
 2118              	.LVL198:
 949:Drivers/STM32F1xx_HAL_Driver/Src/stm32f1xx_ll_sdmmc.c ****   sdmmc_cmdinit.CmdIndex         = SDMMC_CMD_SD_APP_SEND_SCR;
 2119              		.loc 1 949 0
 2120 0006 0023     		movs	r3, #0
 2121 0008 0193     		str	r3, [sp, #4]
 950:Drivers/STM32F1xx_HAL_Driver/Src/stm32f1xx_ll_sdmmc.c ****   sdmmc_cmdinit.Response         = SDIO_RESPONSE_SHORT;
 2122              		.loc 1 950 0
 2123 000a 3324     		movs	r4, #51
 2124 000c 0294     		str	r4, [sp, #8]
 951:Drivers/STM32F1xx_HAL_Driver/Src/stm32f1xx_ll_sdmmc.c ****   sdmmc_cmdinit.WaitForInterrupt = SDIO_WAIT_NO;
 2125              		.loc 1 951 0
 2126 000e 4022     		movs	r2, #64
 2127 0010 0392     		str	r2, [sp, #12]
 952:Drivers/STM32F1xx_HAL_Driver/Src/stm32f1xx_ll_sdmmc.c ****   sdmmc_cmdinit.CPSM             = SDIO_CPSM_ENABLE;
 2128              		.loc 1 952 0
 2129 0012 0493     		str	r3, [sp, #16]
 953:Drivers/STM32F1xx_HAL_Driver/Src/stm32f1xx_ll_sdmmc.c ****   SDIO_SendCommand(SDIOx, &sdmmc_cmdinit);
 2130              		.loc 1 953 0
 2131 0014 4FF48063 		mov	r3, #1024
 2132 0018 0593     		str	r3, [sp, #20]
 954:Drivers/STM32F1xx_HAL_Driver/Src/stm32f1xx_ll_sdmmc.c ****   
 2133              		.loc 1 954 0
 2134 001a 01A9     		add	r1, sp, #4
 2135 001c FFF7FEFF 		bl	SDIO_SendCommand
 2136              	.LVL199:
 957:Drivers/STM32F1xx_HAL_Driver/Src/stm32f1xx_ll_sdmmc.c **** 
 2137              		.loc 1 957 0
 2138 0020 2846     		mov	r0, r5
 2139 0022 2146     		mov	r1, r4
 2140 0024 41F28832 		movw	r2, #5000
 2141 0028 FFF7FEFF 		bl	SDMMC_GetCmdResp1
 2142              	.LVL200:
 960:Drivers/STM32F1xx_HAL_Driver/Src/stm32f1xx_ll_sdmmc.c **** 
 2143              		.loc 1 960 0
 2144 002c 07B0     		add	sp, sp, #28
 2145              	.LCFI65:
 2146              		.cfi_def_cfa_offset 12
 2147              		@ sp needed
 2148 002e 30BD     		pop	{r4, r5, pc}
 2149              		.cfi_endproc
 2150              	.LFE93:
 2152              		.section	.text.SDMMC_CmdSendCID,"ax",%progbits
ARM GAS  /tmp/ccBn9PL3.s 			page 69


 2153              		.align	2
 2154              		.global	SDMMC_CmdSendCID
 2155              		.thumb
 2156              		.thumb_func
 2158              	SDMMC_CmdSendCID:
 2159              	.LFB94:
 968:Drivers/STM32F1xx_HAL_Driver/Src/stm32f1xx_ll_sdmmc.c ****   SDIO_CmdInitTypeDef  sdmmc_cmdinit;
 2160              		.loc 1 968 0
 2161              		.cfi_startproc
 2162              		@ args = 0, pretend = 0, frame = 24
 2163              		@ frame_needed = 0, uses_anonymous_args = 0
 2164              	.LVL201:
 2165 0000 10B5     		push	{r4, lr}
 2166              	.LCFI66:
 2167              		.cfi_def_cfa_offset 8
 2168              		.cfi_offset 4, -8
 2169              		.cfi_offset 14, -4
 2170 0002 86B0     		sub	sp, sp, #24
 2171              	.LCFI67:
 2172              		.cfi_def_cfa_offset 32
 2173 0004 0446     		mov	r4, r0
 2174              	.LVL202:
 973:Drivers/STM32F1xx_HAL_Driver/Src/stm32f1xx_ll_sdmmc.c ****   sdmmc_cmdinit.CmdIndex         = SDMMC_CMD_ALL_SEND_CID;
 2175              		.loc 1 973 0
 2176 0006 0023     		movs	r3, #0
 2177 0008 0193     		str	r3, [sp, #4]
 974:Drivers/STM32F1xx_HAL_Driver/Src/stm32f1xx_ll_sdmmc.c ****   sdmmc_cmdinit.Response         = SDIO_RESPONSE_LONG;
 2178              		.loc 1 974 0
 2179 000a 0222     		movs	r2, #2
 2180 000c 0292     		str	r2, [sp, #8]
 975:Drivers/STM32F1xx_HAL_Driver/Src/stm32f1xx_ll_sdmmc.c ****   sdmmc_cmdinit.WaitForInterrupt = SDIO_WAIT_NO;
 2181              		.loc 1 975 0
 2182 000e C022     		movs	r2, #192
 2183 0010 0392     		str	r2, [sp, #12]
 976:Drivers/STM32F1xx_HAL_Driver/Src/stm32f1xx_ll_sdmmc.c ****   sdmmc_cmdinit.CPSM             = SDIO_CPSM_ENABLE;
 2184              		.loc 1 976 0
 2185 0012 0493     		str	r3, [sp, #16]
 977:Drivers/STM32F1xx_HAL_Driver/Src/stm32f1xx_ll_sdmmc.c ****   SDIO_SendCommand(SDIOx, &sdmmc_cmdinit);
 2186              		.loc 1 977 0
 2187 0014 4FF48063 		mov	r3, #1024
 2188 0018 0593     		str	r3, [sp, #20]
 978:Drivers/STM32F1xx_HAL_Driver/Src/stm32f1xx_ll_sdmmc.c ****   
 2189              		.loc 1 978 0
 2190 001a 01A9     		add	r1, sp, #4
 2191 001c FFF7FEFF 		bl	SDIO_SendCommand
 2192              	.LVL203:
 981:Drivers/STM32F1xx_HAL_Driver/Src/stm32f1xx_ll_sdmmc.c **** 
 2193              		.loc 1 981 0
 2194 0020 2046     		mov	r0, r4
 2195 0022 FFF7FEFF 		bl	SDMMC_GetCmdResp2
 2196              	.LVL204:
 984:Drivers/STM32F1xx_HAL_Driver/Src/stm32f1xx_ll_sdmmc.c **** 
 2197              		.loc 1 984 0
 2198 0026 06B0     		add	sp, sp, #24
 2199              	.LCFI68:
 2200              		.cfi_def_cfa_offset 8
 2201              		@ sp needed
ARM GAS  /tmp/ccBn9PL3.s 			page 70


 2202 0028 10BD     		pop	{r4, pc}
 2203              		.cfi_endproc
 2204              	.LFE94:
 2206 002a 00BF     		.section	.text.SDMMC_CmdSendCSD,"ax",%progbits
 2207              		.align	2
 2208              		.global	SDMMC_CmdSendCSD
 2209              		.thumb
 2210              		.thumb_func
 2212              	SDMMC_CmdSendCSD:
 2213              	.LFB95:
 992:Drivers/STM32F1xx_HAL_Driver/Src/stm32f1xx_ll_sdmmc.c ****   SDIO_CmdInitTypeDef  sdmmc_cmdinit;
 2214              		.loc 1 992 0
 2215              		.cfi_startproc
 2216              		@ args = 0, pretend = 0, frame = 24
 2217              		@ frame_needed = 0, uses_anonymous_args = 0
 2218              	.LVL205:
 2219 0000 10B5     		push	{r4, lr}
 2220              	.LCFI69:
 2221              		.cfi_def_cfa_offset 8
 2222              		.cfi_offset 4, -8
 2223              		.cfi_offset 14, -4
 2224 0002 86B0     		sub	sp, sp, #24
 2225              	.LCFI70:
 2226              		.cfi_def_cfa_offset 32
 2227 0004 0446     		mov	r4, r0
 2228              	.LVL206:
 997:Drivers/STM32F1xx_HAL_Driver/Src/stm32f1xx_ll_sdmmc.c ****   sdmmc_cmdinit.CmdIndex         = SDMMC_CMD_SEND_CSD;
 2229              		.loc 1 997 0
 2230 0006 0191     		str	r1, [sp, #4]
 998:Drivers/STM32F1xx_HAL_Driver/Src/stm32f1xx_ll_sdmmc.c ****   sdmmc_cmdinit.Response         = SDIO_RESPONSE_LONG;
 2231              		.loc 1 998 0
 2232 0008 0923     		movs	r3, #9
 2233 000a 0293     		str	r3, [sp, #8]
 999:Drivers/STM32F1xx_HAL_Driver/Src/stm32f1xx_ll_sdmmc.c ****   sdmmc_cmdinit.WaitForInterrupt = SDIO_WAIT_NO;
 2234              		.loc 1 999 0
 2235 000c C023     		movs	r3, #192
 2236 000e 0393     		str	r3, [sp, #12]
1000:Drivers/STM32F1xx_HAL_Driver/Src/stm32f1xx_ll_sdmmc.c ****   sdmmc_cmdinit.CPSM             = SDIO_CPSM_ENABLE;
 2237              		.loc 1 1000 0
 2238 0010 0023     		movs	r3, #0
 2239 0012 0493     		str	r3, [sp, #16]
1001:Drivers/STM32F1xx_HAL_Driver/Src/stm32f1xx_ll_sdmmc.c ****   SDIO_SendCommand(SDIOx, &sdmmc_cmdinit);
 2240              		.loc 1 1001 0
 2241 0014 4FF48063 		mov	r3, #1024
 2242 0018 0593     		str	r3, [sp, #20]
1002:Drivers/STM32F1xx_HAL_Driver/Src/stm32f1xx_ll_sdmmc.c ****   
 2243              		.loc 1 1002 0
 2244 001a 01A9     		add	r1, sp, #4
 2245              	.LVL207:
 2246 001c FFF7FEFF 		bl	SDIO_SendCommand
 2247              	.LVL208:
1005:Drivers/STM32F1xx_HAL_Driver/Src/stm32f1xx_ll_sdmmc.c **** 
 2248              		.loc 1 1005 0
 2249 0020 2046     		mov	r0, r4
 2250 0022 FFF7FEFF 		bl	SDMMC_GetCmdResp2
 2251              	.LVL209:
1008:Drivers/STM32F1xx_HAL_Driver/Src/stm32f1xx_ll_sdmmc.c **** 
ARM GAS  /tmp/ccBn9PL3.s 			page 71


 2252              		.loc 1 1008 0
 2253 0026 06B0     		add	sp, sp, #24
 2254              	.LCFI71:
 2255              		.cfi_def_cfa_offset 8
 2256              		@ sp needed
 2257 0028 10BD     		pop	{r4, pc}
 2258              		.cfi_endproc
 2259              	.LFE95:
 2261 002a 00BF     		.section	.text.SDMMC_CmdSetRelAdd,"ax",%progbits
 2262              		.align	2
 2263              		.global	SDMMC_CmdSetRelAdd
 2264              		.thumb
 2265              		.thumb_func
 2267              	SDMMC_CmdSetRelAdd:
 2268              	.LFB96:
1016:Drivers/STM32F1xx_HAL_Driver/Src/stm32f1xx_ll_sdmmc.c ****   SDIO_CmdInitTypeDef  sdmmc_cmdinit;
 2269              		.loc 1 1016 0
 2270              		.cfi_startproc
 2271              		@ args = 0, pretend = 0, frame = 24
 2272              		@ frame_needed = 0, uses_anonymous_args = 0
 2273              	.LVL210:
 2274 0000 70B5     		push	{r4, r5, r6, lr}
 2275              	.LCFI72:
 2276              		.cfi_def_cfa_offset 16
 2277              		.cfi_offset 4, -16
 2278              		.cfi_offset 5, -12
 2279              		.cfi_offset 6, -8
 2280              		.cfi_offset 14, -4
 2281 0002 86B0     		sub	sp, sp, #24
 2282              	.LCFI73:
 2283              		.cfi_def_cfa_offset 40
 2284 0004 0646     		mov	r6, r0
 2285 0006 0D46     		mov	r5, r1
 2286              	.LVL211:
1021:Drivers/STM32F1xx_HAL_Driver/Src/stm32f1xx_ll_sdmmc.c ****   sdmmc_cmdinit.CmdIndex         = SDMMC_CMD_SET_REL_ADDR;
 2287              		.loc 1 1021 0
 2288 0008 0023     		movs	r3, #0
 2289 000a 0193     		str	r3, [sp, #4]
1022:Drivers/STM32F1xx_HAL_Driver/Src/stm32f1xx_ll_sdmmc.c ****   sdmmc_cmdinit.Response         = SDIO_RESPONSE_SHORT;
 2290              		.loc 1 1022 0
 2291 000c 0324     		movs	r4, #3
 2292 000e 0294     		str	r4, [sp, #8]
1023:Drivers/STM32F1xx_HAL_Driver/Src/stm32f1xx_ll_sdmmc.c ****   sdmmc_cmdinit.WaitForInterrupt = SDIO_WAIT_NO;
 2293              		.loc 1 1023 0
 2294 0010 4022     		movs	r2, #64
 2295 0012 0392     		str	r2, [sp, #12]
1024:Drivers/STM32F1xx_HAL_Driver/Src/stm32f1xx_ll_sdmmc.c ****   sdmmc_cmdinit.CPSM             = SDIO_CPSM_ENABLE;
 2296              		.loc 1 1024 0
 2297 0014 0493     		str	r3, [sp, #16]
1025:Drivers/STM32F1xx_HAL_Driver/Src/stm32f1xx_ll_sdmmc.c ****   SDIO_SendCommand(SDIOx, &sdmmc_cmdinit);
 2298              		.loc 1 1025 0
 2299 0016 4FF48063 		mov	r3, #1024
 2300 001a 0593     		str	r3, [sp, #20]
1026:Drivers/STM32F1xx_HAL_Driver/Src/stm32f1xx_ll_sdmmc.c ****   
 2301              		.loc 1 1026 0
 2302 001c 01A9     		add	r1, sp, #4
 2303              	.LVL212:
ARM GAS  /tmp/ccBn9PL3.s 			page 72


 2304 001e FFF7FEFF 		bl	SDIO_SendCommand
 2305              	.LVL213:
1029:Drivers/STM32F1xx_HAL_Driver/Src/stm32f1xx_ll_sdmmc.c **** 
 2306              		.loc 1 1029 0
 2307 0022 3046     		mov	r0, r6
 2308 0024 2146     		mov	r1, r4
 2309 0026 2A46     		mov	r2, r5
 2310 0028 FFF7FEFF 		bl	SDMMC_GetCmdResp6
 2311              	.LVL214:
1032:Drivers/STM32F1xx_HAL_Driver/Src/stm32f1xx_ll_sdmmc.c **** 
 2312              		.loc 1 1032 0
 2313 002c 06B0     		add	sp, sp, #24
 2314              	.LCFI74:
 2315              		.cfi_def_cfa_offset 16
 2316              		@ sp needed
 2317 002e 70BD     		pop	{r4, r5, r6, pc}
 2318              		.cfi_endproc
 2319              	.LFE96:
 2321              		.section	.text.SDMMC_CmdSendStatus,"ax",%progbits
 2322              		.align	2
 2323              		.global	SDMMC_CmdSendStatus
 2324              		.thumb
 2325              		.thumb_func
 2327              	SDMMC_CmdSendStatus:
 2328              	.LFB97:
1040:Drivers/STM32F1xx_HAL_Driver/Src/stm32f1xx_ll_sdmmc.c ****   SDIO_CmdInitTypeDef  sdmmc_cmdinit;
 2329              		.loc 1 1040 0
 2330              		.cfi_startproc
 2331              		@ args = 0, pretend = 0, frame = 24
 2332              		@ frame_needed = 0, uses_anonymous_args = 0
 2333              	.LVL215:
 2334 0000 30B5     		push	{r4, r5, lr}
 2335              	.LCFI75:
 2336              		.cfi_def_cfa_offset 12
 2337              		.cfi_offset 4, -12
 2338              		.cfi_offset 5, -8
 2339              		.cfi_offset 14, -4
 2340 0002 87B0     		sub	sp, sp, #28
 2341              	.LCFI76:
 2342              		.cfi_def_cfa_offset 40
 2343 0004 0546     		mov	r5, r0
 2344              	.LVL216:
1044:Drivers/STM32F1xx_HAL_Driver/Src/stm32f1xx_ll_sdmmc.c ****   sdmmc_cmdinit.CmdIndex         = SDMMC_CMD_SEND_STATUS;
 2345              		.loc 1 1044 0
 2346 0006 0191     		str	r1, [sp, #4]
1045:Drivers/STM32F1xx_HAL_Driver/Src/stm32f1xx_ll_sdmmc.c ****   sdmmc_cmdinit.Response         = SDIO_RESPONSE_SHORT;
 2347              		.loc 1 1045 0
 2348 0008 0D24     		movs	r4, #13
 2349 000a 0294     		str	r4, [sp, #8]
1046:Drivers/STM32F1xx_HAL_Driver/Src/stm32f1xx_ll_sdmmc.c ****   sdmmc_cmdinit.WaitForInterrupt = SDIO_WAIT_NO;
 2350              		.loc 1 1046 0
 2351 000c 4023     		movs	r3, #64
 2352 000e 0393     		str	r3, [sp, #12]
1047:Drivers/STM32F1xx_HAL_Driver/Src/stm32f1xx_ll_sdmmc.c ****   sdmmc_cmdinit.CPSM             = SDIO_CPSM_ENABLE;
 2353              		.loc 1 1047 0
 2354 0010 0023     		movs	r3, #0
 2355 0012 0493     		str	r3, [sp, #16]
ARM GAS  /tmp/ccBn9PL3.s 			page 73


1048:Drivers/STM32F1xx_HAL_Driver/Src/stm32f1xx_ll_sdmmc.c ****   SDIO_SendCommand(SDIOx, &sdmmc_cmdinit);
 2356              		.loc 1 1048 0
 2357 0014 4FF48063 		mov	r3, #1024
 2358 0018 0593     		str	r3, [sp, #20]
1049:Drivers/STM32F1xx_HAL_Driver/Src/stm32f1xx_ll_sdmmc.c ****   
 2359              		.loc 1 1049 0
 2360 001a 01A9     		add	r1, sp, #4
 2361              	.LVL217:
 2362 001c FFF7FEFF 		bl	SDIO_SendCommand
 2363              	.LVL218:
1052:Drivers/STM32F1xx_HAL_Driver/Src/stm32f1xx_ll_sdmmc.c **** 
 2364              		.loc 1 1052 0
 2365 0020 2846     		mov	r0, r5
 2366 0022 2146     		mov	r1, r4
 2367 0024 41F28832 		movw	r2, #5000
 2368 0028 FFF7FEFF 		bl	SDMMC_GetCmdResp1
 2369              	.LVL219:
1055:Drivers/STM32F1xx_HAL_Driver/Src/stm32f1xx_ll_sdmmc.c **** 
 2370              		.loc 1 1055 0
 2371 002c 07B0     		add	sp, sp, #28
 2372              	.LCFI77:
 2373              		.cfi_def_cfa_offset 12
 2374              		@ sp needed
 2375 002e 30BD     		pop	{r4, r5, pc}
 2376              		.cfi_endproc
 2377              	.LFE97:
 2379              		.section	.text.SDMMC_CmdStatusRegister,"ax",%progbits
 2380              		.align	2
 2381              		.global	SDMMC_CmdStatusRegister
 2382              		.thumb
 2383              		.thumb_func
 2385              	SDMMC_CmdStatusRegister:
 2386              	.LFB98:
1063:Drivers/STM32F1xx_HAL_Driver/Src/stm32f1xx_ll_sdmmc.c ****   SDIO_CmdInitTypeDef  sdmmc_cmdinit;
 2387              		.loc 1 1063 0
 2388              		.cfi_startproc
 2389              		@ args = 0, pretend = 0, frame = 24
 2390              		@ frame_needed = 0, uses_anonymous_args = 0
 2391              	.LVL220:
 2392 0000 30B5     		push	{r4, r5, lr}
 2393              	.LCFI78:
 2394              		.cfi_def_cfa_offset 12
 2395              		.cfi_offset 4, -12
 2396              		.cfi_offset 5, -8
 2397              		.cfi_offset 14, -4
 2398 0002 87B0     		sub	sp, sp, #28
 2399              	.LCFI79:
 2400              		.cfi_def_cfa_offset 40
 2401 0004 0546     		mov	r5, r0
 2402              	.LVL221:
1067:Drivers/STM32F1xx_HAL_Driver/Src/stm32f1xx_ll_sdmmc.c ****   sdmmc_cmdinit.CmdIndex         = SDMMC_CMD_SD_APP_STATUS;
 2403              		.loc 1 1067 0
 2404 0006 0023     		movs	r3, #0
 2405 0008 0193     		str	r3, [sp, #4]
1068:Drivers/STM32F1xx_HAL_Driver/Src/stm32f1xx_ll_sdmmc.c ****   sdmmc_cmdinit.Response         = SDIO_RESPONSE_SHORT;
 2406              		.loc 1 1068 0
 2407 000a 0D24     		movs	r4, #13
ARM GAS  /tmp/ccBn9PL3.s 			page 74


 2408 000c 0294     		str	r4, [sp, #8]
1069:Drivers/STM32F1xx_HAL_Driver/Src/stm32f1xx_ll_sdmmc.c ****   sdmmc_cmdinit.WaitForInterrupt = SDIO_WAIT_NO;
 2409              		.loc 1 1069 0
 2410 000e 4022     		movs	r2, #64
 2411 0010 0392     		str	r2, [sp, #12]
1070:Drivers/STM32F1xx_HAL_Driver/Src/stm32f1xx_ll_sdmmc.c ****   sdmmc_cmdinit.CPSM             = SDIO_CPSM_ENABLE;
 2412              		.loc 1 1070 0
 2413 0012 0493     		str	r3, [sp, #16]
1071:Drivers/STM32F1xx_HAL_Driver/Src/stm32f1xx_ll_sdmmc.c ****   SDIO_SendCommand(SDIOx, &sdmmc_cmdinit);
 2414              		.loc 1 1071 0
 2415 0014 4FF48063 		mov	r3, #1024
 2416 0018 0593     		str	r3, [sp, #20]
1072:Drivers/STM32F1xx_HAL_Driver/Src/stm32f1xx_ll_sdmmc.c ****   
 2417              		.loc 1 1072 0
 2418 001a 01A9     		add	r1, sp, #4
 2419 001c FFF7FEFF 		bl	SDIO_SendCommand
 2420              	.LVL222:
1075:Drivers/STM32F1xx_HAL_Driver/Src/stm32f1xx_ll_sdmmc.c **** 
 2421              		.loc 1 1075 0
 2422 0020 2846     		mov	r0, r5
 2423 0022 2146     		mov	r1, r4
 2424 0024 41F28832 		movw	r2, #5000
 2425 0028 FFF7FEFF 		bl	SDMMC_GetCmdResp1
 2426              	.LVL223:
1078:Drivers/STM32F1xx_HAL_Driver/Src/stm32f1xx_ll_sdmmc.c **** 
 2427              		.loc 1 1078 0
 2428 002c 07B0     		add	sp, sp, #28
 2429              	.LCFI80:
 2430              		.cfi_def_cfa_offset 12
 2431              		@ sp needed
 2432 002e 30BD     		pop	{r4, r5, pc}
 2433              		.cfi_endproc
 2434              	.LFE98:
 2436              		.section	.text.SDMMC_CmdOpCondition,"ax",%progbits
 2437              		.align	2
 2438              		.global	SDMMC_CmdOpCondition
 2439              		.thumb
 2440              		.thumb_func
 2442              	SDMMC_CmdOpCondition:
 2443              	.LFB99:
1088:Drivers/STM32F1xx_HAL_Driver/Src/stm32f1xx_ll_sdmmc.c ****   SDIO_CmdInitTypeDef  sdmmc_cmdinit;
 2444              		.loc 1 1088 0
 2445              		.cfi_startproc
 2446              		@ args = 0, pretend = 0, frame = 24
 2447              		@ frame_needed = 0, uses_anonymous_args = 0
 2448              	.LVL224:
 2449 0000 10B5     		push	{r4, lr}
 2450              	.LCFI81:
 2451              		.cfi_def_cfa_offset 8
 2452              		.cfi_offset 4, -8
 2453              		.cfi_offset 14, -4
 2454 0002 86B0     		sub	sp, sp, #24
 2455              	.LCFI82:
 2456              		.cfi_def_cfa_offset 32
 2457 0004 0446     		mov	r4, r0
 2458              	.LVL225:
1092:Drivers/STM32F1xx_HAL_Driver/Src/stm32f1xx_ll_sdmmc.c ****   sdmmc_cmdinit.CmdIndex         = SDMMC_CMD_SEND_OP_COND;
ARM GAS  /tmp/ccBn9PL3.s 			page 75


 2459              		.loc 1 1092 0
 2460 0006 0191     		str	r1, [sp, #4]
1093:Drivers/STM32F1xx_HAL_Driver/Src/stm32f1xx_ll_sdmmc.c ****   sdmmc_cmdinit.Response         = SDIO_RESPONSE_SHORT;
 2461              		.loc 1 1093 0
 2462 0008 0123     		movs	r3, #1
 2463 000a 0293     		str	r3, [sp, #8]
1094:Drivers/STM32F1xx_HAL_Driver/Src/stm32f1xx_ll_sdmmc.c ****   sdmmc_cmdinit.WaitForInterrupt = SDIO_WAIT_NO;
 2464              		.loc 1 1094 0
 2465 000c 4023     		movs	r3, #64
 2466 000e 0393     		str	r3, [sp, #12]
1095:Drivers/STM32F1xx_HAL_Driver/Src/stm32f1xx_ll_sdmmc.c ****   sdmmc_cmdinit.CPSM             = SDIO_CPSM_ENABLE;
 2467              		.loc 1 1095 0
 2468 0010 0023     		movs	r3, #0
 2469 0012 0493     		str	r3, [sp, #16]
1096:Drivers/STM32F1xx_HAL_Driver/Src/stm32f1xx_ll_sdmmc.c ****   SDIO_SendCommand(SDIOx, &sdmmc_cmdinit);
 2470              		.loc 1 1096 0
 2471 0014 4FF48063 		mov	r3, #1024
 2472 0018 0593     		str	r3, [sp, #20]
1097:Drivers/STM32F1xx_HAL_Driver/Src/stm32f1xx_ll_sdmmc.c ****   
 2473              		.loc 1 1097 0
 2474 001a 01A9     		add	r1, sp, #4
 2475              	.LVL226:
 2476 001c FFF7FEFF 		bl	SDIO_SendCommand
 2477              	.LVL227:
1100:Drivers/STM32F1xx_HAL_Driver/Src/stm32f1xx_ll_sdmmc.c **** 
 2478              		.loc 1 1100 0
 2479 0020 2046     		mov	r0, r4
 2480 0022 FFF7FEFF 		bl	SDMMC_GetCmdResp3
 2481              	.LVL228:
1103:Drivers/STM32F1xx_HAL_Driver/Src/stm32f1xx_ll_sdmmc.c **** 
 2482              		.loc 1 1103 0
 2483 0026 06B0     		add	sp, sp, #24
 2484              	.LCFI83:
 2485              		.cfi_def_cfa_offset 8
 2486              		@ sp needed
 2487 0028 10BD     		pop	{r4, pc}
 2488              		.cfi_endproc
 2489              	.LFE99:
 2491 002a 00BF     		.section	.text.SDMMC_CmdSwitch,"ax",%progbits
 2492              		.align	2
 2493              		.global	SDMMC_CmdSwitch
 2494              		.thumb
 2495              		.thumb_func
 2497              	SDMMC_CmdSwitch:
 2498              	.LFB100:
1112:Drivers/STM32F1xx_HAL_Driver/Src/stm32f1xx_ll_sdmmc.c ****   SDIO_CmdInitTypeDef  sdmmc_cmdinit;
 2499              		.loc 1 1112 0
 2500              		.cfi_startproc
 2501              		@ args = 0, pretend = 0, frame = 24
 2502              		@ frame_needed = 0, uses_anonymous_args = 0
 2503              	.LVL229:
 2504 0000 30B5     		push	{r4, r5, lr}
 2505              	.LCFI84:
 2506              		.cfi_def_cfa_offset 12
 2507              		.cfi_offset 4, -12
 2508              		.cfi_offset 5, -8
 2509              		.cfi_offset 14, -4
ARM GAS  /tmp/ccBn9PL3.s 			page 76


 2510 0002 87B0     		sub	sp, sp, #28
 2511              	.LCFI85:
 2512              		.cfi_def_cfa_offset 40
 2513 0004 0546     		mov	r5, r0
 2514              	.LVL230:
1116:Drivers/STM32F1xx_HAL_Driver/Src/stm32f1xx_ll_sdmmc.c ****   sdmmc_cmdinit.CmdIndex         = SDMMC_CMD_HS_SWITCH;
 2515              		.loc 1 1116 0
 2516 0006 0191     		str	r1, [sp, #4]
1117:Drivers/STM32F1xx_HAL_Driver/Src/stm32f1xx_ll_sdmmc.c ****   sdmmc_cmdinit.Response         = SDIO_RESPONSE_SHORT;
 2517              		.loc 1 1117 0
 2518 0008 0624     		movs	r4, #6
 2519 000a 0294     		str	r4, [sp, #8]
1118:Drivers/STM32F1xx_HAL_Driver/Src/stm32f1xx_ll_sdmmc.c ****   sdmmc_cmdinit.WaitForInterrupt = SDIO_WAIT_NO;
 2520              		.loc 1 1118 0
 2521 000c 4023     		movs	r3, #64
 2522 000e 0393     		str	r3, [sp, #12]
1119:Drivers/STM32F1xx_HAL_Driver/Src/stm32f1xx_ll_sdmmc.c ****   sdmmc_cmdinit.CPSM             = SDIO_CPSM_ENABLE;
 2523              		.loc 1 1119 0
 2524 0010 0023     		movs	r3, #0
 2525 0012 0493     		str	r3, [sp, #16]
1120:Drivers/STM32F1xx_HAL_Driver/Src/stm32f1xx_ll_sdmmc.c ****   SDIO_SendCommand(SDIOx, &sdmmc_cmdinit);
 2526              		.loc 1 1120 0
 2527 0014 4FF48063 		mov	r3, #1024
 2528 0018 0593     		str	r3, [sp, #20]
1121:Drivers/STM32F1xx_HAL_Driver/Src/stm32f1xx_ll_sdmmc.c ****   
 2529              		.loc 1 1121 0
 2530 001a 01A9     		add	r1, sp, #4
 2531              	.LVL231:
 2532 001c FFF7FEFF 		bl	SDIO_SendCommand
 2533              	.LVL232:
1124:Drivers/STM32F1xx_HAL_Driver/Src/stm32f1xx_ll_sdmmc.c **** 
 2534              		.loc 1 1124 0
 2535 0020 2846     		mov	r0, r5
 2536 0022 2146     		mov	r1, r4
 2537 0024 41F28832 		movw	r2, #5000
 2538 0028 FFF7FEFF 		bl	SDMMC_GetCmdResp1
 2539              	.LVL233:
1127:Drivers/STM32F1xx_HAL_Driver/Src/stm32f1xx_ll_sdmmc.c **** 
 2540              		.loc 1 1127 0
 2541 002c 07B0     		add	sp, sp, #28
 2542              	.LCFI86:
 2543              		.cfi_def_cfa_offset 12
 2544              		@ sp needed
 2545 002e 30BD     		pop	{r4, r5, pc}
 2546              		.cfi_endproc
 2547              	.LFE100:
 2549              		.text
 2550              	.Letext0:
 2551              		.file 2 "/usr/include/newlib/machine/_default_types.h"
 2552              		.file 3 "/usr/include/newlib/sys/_stdint.h"
 2553              		.file 4 "Drivers/CMSIS/Device/ST/STM32F1xx/Include/stm32f103xe.h"
 2554              		.file 5 "Drivers/CMSIS/Device/ST/STM32F1xx/Include/stm32f1xx.h"
 2555              		.file 6 "Drivers/STM32F1xx_HAL_Driver/Inc/stm32f1xx_hal_def.h"
 2556              		.file 7 "Drivers/STM32F1xx_HAL_Driver/Inc/stm32f1xx_ll_sdmmc.h"
 2557              		.file 8 "Drivers/CMSIS/Include/core_cm3.h"
 2558              		.file 9 "Drivers/CMSIS/Device/ST/STM32F1xx/Include/system_stm32f1xx.h"
ARM GAS  /tmp/ccBn9PL3.s 			page 77


DEFINED SYMBOLS
                            *ABS*:0000000000000000 stm32f1xx_ll_sdmmc.c
     /tmp/ccBn9PL3.s:19     .text.SDMMC_GetCmdError:0000000000000000 $t
     /tmp/ccBn9PL3.s:23     .text.SDMMC_GetCmdError:0000000000000000 SDMMC_GetCmdError
     /tmp/ccBn9PL3.s:70     .text.SDMMC_GetCmdError:0000000000000034 $d
     /tmp/ccBn9PL3.s:76     .text.SDMMC_GetCmdResp2:0000000000000000 $t
     /tmp/ccBn9PL3.s:80     .text.SDMMC_GetCmdResp2:0000000000000000 SDMMC_GetCmdResp2
     /tmp/ccBn9PL3.s:158    .text.SDMMC_GetCmdResp2:0000000000000054 $d
     /tmp/ccBn9PL3.s:164    .text.SDMMC_GetCmdResp3:0000000000000000 $t
     /tmp/ccBn9PL3.s:168    .text.SDMMC_GetCmdResp3:0000000000000000 SDMMC_GetCmdResp3
     /tmp/ccBn9PL3.s:234    .text.SDMMC_GetCmdResp3:0000000000000048 $d
     /tmp/ccBn9PL3.s:240    .text.SDMMC_GetCmdResp7:0000000000000000 $t
     /tmp/ccBn9PL3.s:244    .text.SDMMC_GetCmdResp7:0000000000000000 SDMMC_GetCmdResp7
     /tmp/ccBn9PL3.s:308    .text.SDMMC_GetCmdResp7:000000000000004c $d
     /tmp/ccBn9PL3.s:314    .text.SDIO_Init:0000000000000000 $t
     /tmp/ccBn9PL3.s:319    .text.SDIO_Init:0000000000000000 SDIO_Init
     /tmp/ccBn9PL3.s:379    .text.SDIO_ReadFIFO:0000000000000000 $t
     /tmp/ccBn9PL3.s:384    .text.SDIO_ReadFIFO:0000000000000000 SDIO_ReadFIFO
     /tmp/ccBn9PL3.s:401    .text.SDIO_WriteFIFO:0000000000000000 $t
     /tmp/ccBn9PL3.s:406    .text.SDIO_WriteFIFO:0000000000000000 SDIO_WriteFIFO
     /tmp/ccBn9PL3.s:425    .text.SDIO_PowerState_ON:0000000000000000 $t
     /tmp/ccBn9PL3.s:430    .text.SDIO_PowerState_ON:0000000000000000 SDIO_PowerState_ON
     /tmp/ccBn9PL3.s:449    .text.SDIO_PowerState_OFF:0000000000000000 $t
     /tmp/ccBn9PL3.s:454    .text.SDIO_PowerState_OFF:0000000000000000 SDIO_PowerState_OFF
     /tmp/ccBn9PL3.s:473    .text.SDIO_GetPowerState:0000000000000000 $t
     /tmp/ccBn9PL3.s:478    .text.SDIO_GetPowerState:0000000000000000 SDIO_GetPowerState
     /tmp/ccBn9PL3.s:496    .text.SDIO_SendCommand:0000000000000000 $t
     /tmp/ccBn9PL3.s:501    .text.SDIO_SendCommand:0000000000000000 SDIO_SendCommand
     /tmp/ccBn9PL3.s:541    .text.SDIO_GetCommandResponse:0000000000000000 $t
     /tmp/ccBn9PL3.s:546    .text.SDIO_GetCommandResponse:0000000000000000 SDIO_GetCommandResponse
     /tmp/ccBn9PL3.s:564    .text.SDIO_GetResponse:0000000000000000 $t
     /tmp/ccBn9PL3.s:569    .text.SDIO_GetResponse:0000000000000000 SDIO_GetResponse
     /tmp/ccBn9PL3.s:603    .text.SDMMC_GetCmdResp1:0000000000000000 $t
     /tmp/ccBn9PL3.s:607    .text.SDMMC_GetCmdResp1:0000000000000000 SDMMC_GetCmdResp1
     /tmp/ccBn9PL3.s:856    .text.SDMMC_GetCmdResp1:0000000000000148 $d
     /tmp/ccBn9PL3.s:863    .text.SDMMC_GetCmdResp6:0000000000000000 $t
     /tmp/ccBn9PL3.s:867    .text.SDMMC_GetCmdResp6:0000000000000000 SDMMC_GetCmdResp6
     /tmp/ccBn9PL3.s:994    .text.SDMMC_GetCmdResp6:0000000000000098 $d
     /tmp/ccBn9PL3.s:1000   .text.SDIO_ConfigData:0000000000000000 $t
     /tmp/ccBn9PL3.s:1005   .text.SDIO_ConfigData:0000000000000000 SDIO_ConfigData
     /tmp/ccBn9PL3.s:1047   .text.SDIO_GetDataCounter:0000000000000000 $t
     /tmp/ccBn9PL3.s:1052   .text.SDIO_GetDataCounter:0000000000000000 SDIO_GetDataCounter
     /tmp/ccBn9PL3.s:1069   .text.SDIO_GetFIFOCount:0000000000000000 $t
     /tmp/ccBn9PL3.s:1074   .text.SDIO_GetFIFOCount:0000000000000000 SDIO_GetFIFOCount
     /tmp/ccBn9PL3.s:1091   .text.SDIO_SetSDMMCReadWaitMode:0000000000000000 $t
     /tmp/ccBn9PL3.s:1096   .text.SDIO_SetSDMMCReadWaitMode:0000000000000000 SDIO_SetSDMMCReadWaitMode
     /tmp/ccBn9PL3.s:1118   .text.SDMMC_CmdBlockLength:0000000000000000 $t
     /tmp/ccBn9PL3.s:1123   .text.SDMMC_CmdBlockLength:0000000000000000 SDMMC_CmdBlockLength
     /tmp/ccBn9PL3.s:1176   .text.SDMMC_CmdReadSingleBlock:0000000000000000 $t
     /tmp/ccBn9PL3.s:1181   .text.SDMMC_CmdReadSingleBlock:0000000000000000 SDMMC_CmdReadSingleBlock
     /tmp/ccBn9PL3.s:1234   .text.SDMMC_CmdReadMultiBlock:0000000000000000 $t
     /tmp/ccBn9PL3.s:1239   .text.SDMMC_CmdReadMultiBlock:0000000000000000 SDMMC_CmdReadMultiBlock
     /tmp/ccBn9PL3.s:1292   .text.SDMMC_CmdWriteSingleBlock:0000000000000000 $t
     /tmp/ccBn9PL3.s:1297   .text.SDMMC_CmdWriteSingleBlock:0000000000000000 SDMMC_CmdWriteSingleBlock
     /tmp/ccBn9PL3.s:1350   .text.SDMMC_CmdWriteMultiBlock:0000000000000000 $t
     /tmp/ccBn9PL3.s:1355   .text.SDMMC_CmdWriteMultiBlock:0000000000000000 SDMMC_CmdWriteMultiBlock
     /tmp/ccBn9PL3.s:1408   .text.SDMMC_CmdSDEraseStartAdd:0000000000000000 $t
ARM GAS  /tmp/ccBn9PL3.s 			page 78


     /tmp/ccBn9PL3.s:1413   .text.SDMMC_CmdSDEraseStartAdd:0000000000000000 SDMMC_CmdSDEraseStartAdd
     /tmp/ccBn9PL3.s:1466   .text.SDMMC_CmdSDEraseEndAdd:0000000000000000 $t
     /tmp/ccBn9PL3.s:1471   .text.SDMMC_CmdSDEraseEndAdd:0000000000000000 SDMMC_CmdSDEraseEndAdd
     /tmp/ccBn9PL3.s:1524   .text.SDMMC_CmdEraseStartAdd:0000000000000000 $t
     /tmp/ccBn9PL3.s:1529   .text.SDMMC_CmdEraseStartAdd:0000000000000000 SDMMC_CmdEraseStartAdd
     /tmp/ccBn9PL3.s:1582   .text.SDMMC_CmdEraseEndAdd:0000000000000000 $t
     /tmp/ccBn9PL3.s:1587   .text.SDMMC_CmdEraseEndAdd:0000000000000000 SDMMC_CmdEraseEndAdd
     /tmp/ccBn9PL3.s:1640   .text.SDMMC_CmdErase:0000000000000000 $t
     /tmp/ccBn9PL3.s:1645   .text.SDMMC_CmdErase:0000000000000000 SDMMC_CmdErase
     /tmp/ccBn9PL3.s:1697   .text.SDMMC_CmdStopTransfer:0000000000000000 $t
     /tmp/ccBn9PL3.s:1702   .text.SDMMC_CmdStopTransfer:0000000000000000 SDMMC_CmdStopTransfer
     /tmp/ccBn9PL3.s:1754   .text.SDMMC_CmdStopTransfer:0000000000000030 $d
     /tmp/ccBn9PL3.s:1759   .text.SDMMC_CmdSelDesel:0000000000000000 $t
     /tmp/ccBn9PL3.s:1764   .text.SDMMC_CmdSelDesel:0000000000000000 SDMMC_CmdSelDesel
     /tmp/ccBn9PL3.s:1816   .text.SDMMC_CmdGoIdleState:0000000000000000 $t
     /tmp/ccBn9PL3.s:1821   .text.SDMMC_CmdGoIdleState:0000000000000000 SDMMC_CmdGoIdleState
     /tmp/ccBn9PL3.s:1868   .text.SDMMC_CmdOperCond:0000000000000000 $t
     /tmp/ccBn9PL3.s:1873   .text.SDMMC_CmdOperCond:0000000000000000 SDMMC_CmdOperCond
     /tmp/ccBn9PL3.s:1923   .text.SDMMC_CmdAppCommand:0000000000000000 $t
     /tmp/ccBn9PL3.s:1928   .text.SDMMC_CmdAppCommand:0000000000000000 SDMMC_CmdAppCommand
     /tmp/ccBn9PL3.s:1981   .text.SDMMC_CmdAppOperCommand:0000000000000000 $t
     /tmp/ccBn9PL3.s:1986   .text.SDMMC_CmdAppOperCommand:0000000000000000 SDMMC_CmdAppOperCommand
     /tmp/ccBn9PL3.s:2038   .text.SDMMC_CmdBusWidth:0000000000000000 $t
     /tmp/ccBn9PL3.s:2043   .text.SDMMC_CmdBusWidth:0000000000000000 SDMMC_CmdBusWidth
     /tmp/ccBn9PL3.s:2096   .text.SDMMC_CmdSendSCR:0000000000000000 $t
     /tmp/ccBn9PL3.s:2101   .text.SDMMC_CmdSendSCR:0000000000000000 SDMMC_CmdSendSCR
     /tmp/ccBn9PL3.s:2153   .text.SDMMC_CmdSendCID:0000000000000000 $t
     /tmp/ccBn9PL3.s:2158   .text.SDMMC_CmdSendCID:0000000000000000 SDMMC_CmdSendCID
     /tmp/ccBn9PL3.s:2207   .text.SDMMC_CmdSendCSD:0000000000000000 $t
     /tmp/ccBn9PL3.s:2212   .text.SDMMC_CmdSendCSD:0000000000000000 SDMMC_CmdSendCSD
     /tmp/ccBn9PL3.s:2262   .text.SDMMC_CmdSetRelAdd:0000000000000000 $t
     /tmp/ccBn9PL3.s:2267   .text.SDMMC_CmdSetRelAdd:0000000000000000 SDMMC_CmdSetRelAdd
     /tmp/ccBn9PL3.s:2322   .text.SDMMC_CmdSendStatus:0000000000000000 $t
     /tmp/ccBn9PL3.s:2327   .text.SDMMC_CmdSendStatus:0000000000000000 SDMMC_CmdSendStatus
     /tmp/ccBn9PL3.s:2380   .text.SDMMC_CmdStatusRegister:0000000000000000 $t
     /tmp/ccBn9PL3.s:2385   .text.SDMMC_CmdStatusRegister:0000000000000000 SDMMC_CmdStatusRegister
     /tmp/ccBn9PL3.s:2437   .text.SDMMC_CmdOpCondition:0000000000000000 $t
     /tmp/ccBn9PL3.s:2442   .text.SDMMC_CmdOpCondition:0000000000000000 SDMMC_CmdOpCondition
     /tmp/ccBn9PL3.s:2492   .text.SDMMC_CmdSwitch:0000000000000000 $t
     /tmp/ccBn9PL3.s:2497   .text.SDMMC_CmdSwitch:0000000000000000 SDMMC_CmdSwitch
                     .debug_frame:0000000000000010 $d

UNDEFINED SYMBOLS
SystemCoreClock
